L251 LINKER/LOCATER V4.66.93.0                                                          11/25/2023  21:38:42  PAGE 1


L251 LINKER/LOCATER V4.66.93.0, INVOKED BY:
C:\KEIL_V5\C251\BIN\L251.EXE .\Out_File\board.obj, .\Out_File\common.obj, .\Out_File\zf_adc.obj, .\Out_File\zf_delay.obj
>> , .\Out_File\zf_eeprom.obj, .\Out_File\zf_exti.obj, .\Out_File\zf_gpio.obj, .\Out_File\zf_iic.obj, .\Out_File\zf_nvic
>> .obj, .\Out_File\zf_pwm.obj, .\Out_File\zf_spi.obj, .\Out_File\zf_tim.obj, .\Out_File\zf_uart.obj, .\Out_File\zf_fifo
>> .obj, .\Out_File\SEEKFREE_18TFT.obj, .\Out_File\SEEKFREE_ABSOLUTE_ENCODER.obj, .\Out_File\SEEKFREE_AT24C02.obj, .\Out
>> _File\SEEKFREE_BLUETOOTH_CH9141.obj, ..\..\Libraries\seekfree_peripheral\SEEKFREE_CONFIG.LIB, .\Out_File\SEEKFREE_DL1
>> A.obj, .\Out_File\SEEKFREE_FONT.obj, .\Out_File\SEEKFREE_ICM20602.obj, .\Out_File\SEEKFREE_IPS114_SPI.obj, .\Out_File
>> \SEEKFREE_MPU6050.obj, .\Out_File\SEEKFREE_OLED.obj, .\Out_File\SEEKFREE_PRINTF.obj, .\Out_File\SEEKFREE_TSL1401.obj,
>>  .\Out_File\SEEKFREE_VIRSCO.obj, .\Out_File\SEEKFREE_WIRELESS.obj, .\Out_File\SEEKFREE_WIRELESS_CH573.obj, .\Out_File
>> \SEEKFREE_IMU660RA.obj, .\Out_File\isr.obj, .\Out_File\main.obj, .\Out_File\all_init.obj, .\Out_File\bal.obj, .\Out_F
>> ile\electronic.obj, .\Out_File\element.obj, .\Out_File\LQ_PID.obj, .\Out_File\motor.obj TO .\Out_File\SEEKFREE PRINT 
>> (.\Out_File\SEEKFREE.map) CASE DISABLEWARNING (16, 57) REMOVEUNUSED CLASSES (EDATA (0X0-0XFFF), HDATA (0X0-0XFFF), HC
>> ONST (0XFE0000-0XFFFFFF), ECODE (0XFE0000-0XFFFFFF))


CPU MODE:     251 SOURCE MODE
INTR FRAME:   2 BYTES SAVED ON INTERRUPT
MEMORY MODEL: XSMALL WITH FLOATING POINT ARITHMETIC


INPUT MODULES INCLUDED:
  .\Out_File\board.obj (board)
         COMMENT TYPE 0: C251 V5.60.0
  .\Out_File\common.obj (common)
         COMMENT TYPE 0: C251 V5.60.0
  .\Out_File\zf_adc.obj (zf_adc)
         COMMENT TYPE 0: C251 V5.60.0
  .\Out_File\zf_delay.obj (zf_delay)
         COMMENT TYPE 0: C251 V5.60.0
  .\Out_File\zf_eeprom.obj (zf_eeprom)
         COMMENT TYPE 0: C251 V5.60.0
  .\Out_File\zf_exti.obj (zf_exti)
         COMMENT TYPE 0: C251 V5.60.0
  .\Out_File\zf_gpio.obj (zf_gpio)
         COMMENT TYPE 0: C251 V5.60.0
  .\Out_File\zf_iic.obj (zf_iic)
         COMMENT TYPE 0: C251 V5.60.0
  .\Out_File\zf_nvic.obj (zf_nvic)
         COMMENT TYPE 0: C251 V5.60.0
  .\Out_File\zf_pwm.obj (zf_pwm)
         COMMENT TYPE 0: C251 V5.60.0
  .\Out_File\zf_spi.obj (zf_spi)
         COMMENT TYPE 0: C251 V5.60.0
  .\Out_File\zf_tim.obj (zf_tim)
         COMMENT TYPE 0: C251 V5.60.0
  .\Out_File\zf_uart.obj (zf_uart)
         COMMENT TYPE 0: C251 V5.60.0
  .\Out_File\zf_fifo.obj (zf_fifo)
         COMMENT TYPE 0: C251 V5.60.0
  .\Out_File\SEEKFREE_18TFT.obj (SEEKFREE_18TFT)
         COMMENT TYPE 0: C251 V5.60.0
  .\Out_File\SEEKFREE_ABSOLUTE_ENCODER.obj (SEEKFREE_ABSOLUTE_ENCODER)
         COMMENT TYPE 0: C251 V5.60.0
  .\Out_File\SEEKFREE_AT24C02.obj (SEEKFREE_AT24C02)
         COMMENT TYPE 0: C251 V5.60.0
  .\Out_File\SEEKFREE_BLUETOOTH_CH9141.obj (SEEKFREE_BLUETOOTH_CH9141)
         COMMENT TYPE 0: C251 V5.60.0
  .\Out_File\SEEKFREE_DL1A.obj (SEEKFREE_DL1A)
         COMMENT TYPE 0: C251 V5.60.0
  .\Out_File\SEEKFREE_FONT.obj (SEEKFREE_FONT)
         COMMENT TYPE 0: C251 V5.60.0
  .\Out_File\SEEKFREE_ICM20602.obj (SEEKFREE_ICM20602)
         COMMENT TYPE 0: C251 V5.60.0
  .\Out_File\SEEKFREE_IPS114_SPI.obj (SEEKFREE_IPS114_SPI)
         COMMENT TYPE 0: C251 V5.60.0
  .\Out_File\SEEKFREE_MPU6050.obj (SEEKFREE_MPU6050)
L251 LINKER/LOCATER V4.66.93.0                                                        11/25/2023  21:38:42  PAGE 2


         COMMENT TYPE 0: C251 V5.60.0
  .\Out_File\SEEKFREE_OLED.obj (SEEKFREE_OLED)
         COMMENT TYPE 0: C251 V5.60.0
  .\Out_File\SEEKFREE_PRINTF.obj (SEEKFREE_PRINTF)
         COMMENT TYPE 0: C251 V5.60.0
  .\Out_File\SEEKFREE_TSL1401.obj (SEEKFREE_TSL1401)
         COMMENT TYPE 0: C251 V5.60.0
  .\Out_File\SEEKFREE_VIRSCO.obj (SEEKFREE_VIRSCO)
         COMMENT TYPE 0: C251 V5.60.0
  .\Out_File\SEEKFREE_WIRELESS.obj (SEEKFREE_WIRELESS)
         COMMENT TYPE 0: C251 V5.60.0
  .\Out_File\SEEKFREE_WIRELESS_CH573.obj (SEEKFREE_WIRELESS_CH573)
         COMMENT TYPE 0: C251 V5.60.0
  .\Out_File\SEEKFREE_IMU660RA.obj (SEEKFREE_IMU660RA)
         COMMENT TYPE 0: C251 V5.60.0
  .\Out_File\isr.obj (isr)
         COMMENT TYPE 0: C251 V5.60.0
  .\Out_File\main.obj (main)
         COMMENT TYPE 0: C251 V5.60.0
  .\Out_File\all_init.obj (all_init)
         COMMENT TYPE 0: C251 V5.60.0
  .\Out_File\bal.obj (bal)
         COMMENT TYPE 0: C251 V5.60.0
  .\Out_File\electronic.obj (electronic)
         COMMENT TYPE 0: C251 V5.60.0
  .\Out_File\element.obj (element)
         COMMENT TYPE 0: C251 V5.60.0
  .\Out_File\LQ_PID.obj (LQ_PID)
         COMMENT TYPE 0: C251 V5.60.0
  .\Out_File\motor.obj (motor)
         COMMENT TYPE 0: C251 V5.60.0
  ..\..\Libraries\seekfree_peripheral\SEEKFREE_CONFIG.LIB (SEEKFREE_CONFIG)
         COMMENT TYPE 0: C251 V5.60.0
  C:\KEIL_V5\C251\LIB\C2SFPXS.LIB (?C?FPADD)
         COMMENT TYPE 0: A251 V4.69.6.0
  C:\KEIL_V5\C251\LIB\C2SFPXS.LIB (?C?FPMUL)
         COMMENT TYPE 0: A251 V4.69.6.0
  C:\KEIL_V5\C251\LIB\C2SFPXS.LIB (?C?FPDIV)
         COMMENT TYPE 0: A251 V4.69.6.0
  C:\KEIL_V5\C251\LIB\C2SFPXS.LIB (?C?FPCMP)
         COMMENT TYPE 0: A251 V4.69.6.0
  C:\KEIL_V5\C251\LIB\C2SFPXS.LIB (?C?FPNEG)
         COMMENT TYPE 0: A251 V4.69.6.0
  C:\KEIL_V5\C251\LIB\C2SFPXS.LIB (?C?FCAST)
         COMMENT TYPE 0: A251 V4.69.6.0
  C:\KEIL_V5\C251\LIB\C2SFPXS.LIB (?C?CASTF)
         COMMENT TYPE 0: A251 V4.69.6.0
  C:\KEIL_V5\C251\LIB\C2SFPXS.LIB (PRINTF)
         COMMENT TYPE 0: A251 V4.69.6.0
  C:\KEIL_V5\C251\LIB\C2SFPXS.LIB (?C?FPGETOPN)
         COMMENT TYPE 0: A251 V4.69.6.0
  C:\KEIL_V5\C251\LIB\C2SFPXS.LIB (?C?PRNFMT)
         COMMENT TYPE 0: A251 V4.69.6.0
  C:\KEIL_V5\C251\LIB\C2SFPXS.LIB (?C?FPCONVERT)
         COMMENT TYPE 0: A251 V4.69.6.0
  C:\KEIL_V5\C251\LIB\C2SFPXS.LIB (?C?FTNPWR)
         COMMENT TYPE 0: A251 V4.69.6.0
  C:\KEIL_V5\C251\LIB\C2SXS.LIB (?C_START)
         COMMENT TYPE 0: A251 V4.69.6.0
  C:\KEIL_V5\C251\LIB\C2SXS.LIB (?C?INITEDATA)
         COMMENT TYPE 0: A251 V4.69.6.0
  C:\KEIL_V5\C251\LIB\C2SXS.LIB (?C?SIDIV)
         COMMENT TYPE 0: A251 V4.69.6.0
  C:\KEIL_V5\C251\LIB\C2SXS.LIB (?C?LMUL)
         COMMENT TYPE 0: A251 V4.69.6.0
L251 LINKER/LOCATER V4.66.93.0                                                        11/25/2023  21:38:42  PAGE 3


  C:\KEIL_V5\C251\LIB\C2SXS.LIB (?C?LIMUL)
         COMMENT TYPE 0: A251 V4.69.6.0
  C:\KEIL_V5\C251\LIB\C2SXS.LIB (?C?ULDIV)
         COMMENT TYPE 0: A251 V4.69.6.0
  C:\KEIL_V5\C251\LIB\C2SXS.LIB (?C?SLDIV)
         COMMENT TYPE 0: A251 V4.69.6.0
  C:\KEIL_V5\C251\LIB\C2SXS.LIB (memcpy)
         COMMENT TYPE 0: C251 V5.58.7
  C:\KEIL_V5\C251\LIB\C2SXS.LIB (memset)
         COMMENT TYPE 0: C251 V5.58.7
  C:\KEIL_V5\C251\LIB\C2SXS.LIB (?C?INITEDATA_END)
         COMMENT TYPE 0: A251 V4.69.6.0


ACTIVE MEMORY CLASSES OF MODULE:  .\Out_File\SEEKFREE (board)

BASE        START       END         USED      MEMORY CLASS
==========================================================
000000H     000000H     000FFFH     000FBEH   EDATA
000000H     000000H     000FFFH               HDATA
000000H     FE0000H     FFFFFFH     000217H   HCONST
000000H     FE0000H     FFFFFFH               ECODE
FF0000H     FF0000H     FFFFFFH     006BFAH   CODE
010000H     010000H     01FFFFH     00001DH   XDATA
FF0000H     FF0000H     FFFFFFH     000004H   CONST
000000H     000000H     00007FH     000008H   DATA


MEMORY MAP OF MODULE:  .\Out_File\SEEKFREE (board)


START     STOP      LENGTH    ALIGN  RELOC    MEMORY CLASS   SEGMENT NAME
=========================================================================
000000H   000007H   000008H   ---    AT..     DATA           "REG BANK 0"
000008H   000211H   00020AH   BYTE   UNIT     EDATA          ?ED?EXTERN_IAP_WRITE_BYTES?ZF_EEPROM
000212H   000312H   000101H   BYTE   UNIT     EDATA          ?ED?SEEKFREE_TSL1401
000313H   0003FCH   0000EAH   BYTE   UNIT     EDATA          ?ED?BAL
0003FDH   0004C9H   0000CDH   BYTE   UNIT     EDATA          ?ED?ZF_UART
0004CAH   000528H   00005FH   BYTE   UNIT     EDATA          ?ED?ZF_SPRINTF?SEEKFREE_PRINTF
000529H   000583H   00005BH   BYTE   UNIT     EDATA          ?ED?ELECTRONIC
000584H   0005D8H   000055H   BYTE   UNIT     EDATA          ?ED?SEEKFREE_BLUETOOTH_CH9141
0005D9H   00062DH   000055H   BYTE   UNIT     EDATA          ?ED?SEEKFREE_WIRELESS
00062EH   000682H   000055H   BYTE   UNIT     EDATA          ?ED?SEEKFREE_WIRELESS_CH573
000683H   0006B2H   000030H   BYTE   UNIT     EDATA          ?ED?LCD_SHOWFLOAT_SIMSPI?SEEKFREE_18TFT
0006B3H   0006E2H   000030H   BYTE   UNIT     EDATA          ?ED?LCD_SHOWFLOAT?SEEKFREE_18TFT
0006E3H   000712H   000030H   BYTE   UNIT     EDATA          ?ED?IPS114_SHOWFLOAT_SIMSPI?SEEKFREE_IPS114_SPI
000713H   000742H   000030H   BYTE   UNIT     EDATA          ?ED?IPS114_SHOWFLOAT?SEEKFREE_IPS114_SPI
000743H   000772H   000030H   BYTE   UNIT     EDATA          ?ED?OLED_PRINTF_FLOAT?SEEKFREE_OLED
000773H   0007A2H   000030H   BYTE   UNIT     EDATA          ?ED?OLED_PRINTF_FLOAT_SPI?SEEKFREE_OLED
0007A3H   0007D1H   00002FH   BYTE   UNIT     EDATA          ?ED?DL1A_SET_MEASUREMENT_TIMING_BUDGET?SEEKFREE_DL1A
0007D2H   0007FDH   00002CH   BYTE   UNIT     EDATA          ?ED?LCD_SHOWINT32_SIMSPI?SEEKFREE_18TFT
0007FEH   000829H   00002CH   BYTE   UNIT     EDATA          ?ED?LCD_SHOWINT32?SEEKFREE_18TFT
00082AH   000855H   00002CH   BYTE   UNIT     EDATA          ?ED?IPS114_SHOWINT32_SIMSPI?SEEKFREE_IPS114_SPI
000856H   000881H   00002CH   BYTE   UNIT     EDATA          ?ED?IPS114_SHOWINT32?SEEKFREE_IPS114_SPI
000882H   0008ADH   00002CH   BYTE   UNIT     EDATA          ?ED?OLED_PRINTF_INT32?SEEKFREE_OLED
0008AEH   0008D9H   00002CH   BYTE   UNIT     EDATA          ?ED?OLED_PRINTF_INT32_SPI?SEEKFREE_OLED
0008DAH   000901H   000028H   BYTE   UNIT     EDATA          _EDATA_GROUP_
000902H   000920H   00001FH   BYTE   UNIT     EDATA          ?ED?DL1A_GET_MEASUREMENT_TIMING_BUDGET?SEEKFREE_DL1A
000921H   000935H   000015H   BYTE   UNIT     EDATA          ?ED?DL1A_INIT?SEEKFREE_DL1A
000936H   000949H   000014H   BYTE   UNIT     EDATA          ?ED?PWM_INIT?ZF_PWM
00094AH   00095DH   000014H   BYTE   UNIT     EDATA          ?ED?PWM_FREQ?ZF_PWM
00095EH   000971H   000014H   BYTE   UNIT     EDATA          ?ED?NUMBER_CONVERSION_ASCII?SEEKFREE_PRINTF
000972H   000984H   000013H   BYTE   UNIT     EDATA          ?ED?FIFO_READ_BUFFER?ZF_FIFO
000985H   000996H   000012H   BYTE   UNIT     EDATA          ?ED?OLED_DIS_BMP?SEEKFREE_OLED
000997H   0009A8H   000012H   BYTE   UNIT     EDATA          ?ED?OLED_DIS_BMP_SPI?SEEKFREE_OLED
L251 LINKER/LOCATER V4.66.93.0                                                        11/25/2023  21:38:42  PAGE 4


0009A9H   0009B8H   000010H   BYTE   UNIT     EDATA          ?ED?FIFO_WRITE_BUFFER?ZF_FIFO
0009B9H   0009C6H   00000EH   BYTE   UNIT     EDATA          ?ED?PWM_DUTY?ZF_PWM
0009C7H   0009D4H   00000EH   BYTE   UNIT     EDATA          ?ED?UART_INIT?ZF_UART
0009D5H   0009E2H   00000EH   BYTE   UNIT     EDATA          ?ED?OLED_PRINT_CHINESE?SEEKFREE_OLED
0009E3H   0009F0H   00000EH   BYTE   UNIT     EDATA          ?ED?OLED_PRINT_CHINESE_SPI?SEEKFREE_OLED
0009F1H   0009FEH   00000EH   BYTE   UNIT     EDATA          ?ED?DATA_CONVERSION?SEEKFREE_VIRSCO
0009FFH   000A0BH   00000DH   BYTE   UNIT     EDATA          ?ED?ICM20602_SIMSPI_R_REG_BYTES?SEEKFREE_ICM20602
000A0CH   000A18H   00000DH   BYTE   UNIT     EDATA          ?ED?PRINTF_REVERSE_ORDER?SEEKFREE_PRINTF
000A19H   000A24H   00000CH   BYTE   UNIT     EDATA          ?ED?FIFO_INIT?ZF_FIFO
000A25H   000A30H   00000CH   BYTE   UNIT     EDATA          ?ED?LCD_SHOWINT16_SIMSPI?SEEKFREE_18TFT
000A31H   000A3CH   00000CH   BYTE   UNIT     EDATA          ?ED?LCD_SHOWUINT16_SIMSPI?SEEKFREE_18TFT
000A3DH   000A48H   00000CH   BYTE   UNIT     EDATA          ?ED?LCD_SHOWINT16?SEEKFREE_18TFT
000A49H   000A54H   00000CH   BYTE   UNIT     EDATA          ?ED?LCD_SHOWUINT16?SEEKFREE_18TFT
000A55H   000A60H   00000CH   BYTE   UNIT     EDATA          ?ED?SHOWIMAGE?SEEKFREE_18TFT
000A61H   000A6CH   00000CH   BYTE   UNIT     EDATA          ?ED?BLUETOOTH_CH9141_READ_BUFF?SEEKFREE_BLUETOOTH_CH9141
000A6DH   000A78H   00000CH   BYTE   UNIT     EDATA          ?ED?DL1A_GET_SPAD_INFO?SEEKFREE_DL1A
000A79H   000A84H   00000CH   BYTE   UNIT     EDATA          ?ED?DL1A_GET_SEQUENCE_STEP_TIMEOUTS?SEEKFREE_DL1A
000A85H   000A90H   00000CH   BYTE   UNIT     EDATA          ?ED?SEEKFREE_ICM20602
000A91H   000A9CH   00000CH   BYTE   UNIT     EDATA          ?ED?IPS114_SHOWINT16_SIMSPI?SEEKFREE_IPS114_SPI
000A9DH   000AA8H   00000CH   BYTE   UNIT     EDATA          ?ED?IPS114_SHOWUINT16_SIMSPI?SEEKFREE_IPS114_SPI
000AA9H   000AB4H   00000CH   BYTE   UNIT     EDATA          ?ED?IPS114_SHOWINT16?SEEKFREE_IPS114_SPI
000AB5H   000AC0H   00000CH   BYTE   UNIT     EDATA          ?ED?IPS114_SHOWUINT16?SEEKFREE_IPS114_SPI
000AC1H   000ACCH   00000CH   BYTE   UNIT     EDATA          ?ED?SEEKFREE_MPU6050
000ACDH   000AD8H   00000CH   BYTE   UNIT     EDATA          ?ED?WIRELESS_UART_READ_BUFF?SEEKFREE_WIRELESS
000AD9H   000AE4H   00000CH   BYTE   UNIT     EDATA          ?ED?WIRELESS_CH573_READ_BUFF?SEEKFREE_WIRELESS_CH573
000AE5H   000AF0H   00000CH   BYTE   UNIT     EDATA          ?ED?SEEKFREE_IMU660RA
000AF1H   000AFCH   00000CH   BYTE   UNIT     EDATA          ?ED?CONSTRAIN_FLOAT?LQ_PID
000AFDH   000B07H   00000BH   BYTE   UNIT     EDATA          ?ED?OLED_UINT16?SEEKFREE_OLED
000B08H   000B12H   00000BH   BYTE   UNIT     EDATA          ?ED?OLED_INT16?SEEKFREE_OLED
000B13H   000B1DH   00000BH   BYTE   UNIT     EDATA          ?ED?OLED_UINT16_SPI?SEEKFREE_OLED
000B1EH   000B28H   00000BH   BYTE   UNIT     EDATA          ?ED?OLED_INT16_SPI?SEEKFREE_OLED
000B29H   000B32H   00000AH   BYTE   UNIT     EDATA          ?ED?LCD_SHOWSTR_SIMSPI?SEEKFREE_18TFT
000B33H   000B3CH   00000AH   BYTE   UNIT     EDATA          ?ED?LCD_SHOWSTR?SEEKFREE_18TFT
000B3DH   000B46H   00000AH   BYTE   UNIT     EDATA          ?ED?BLUETOOTH_CH9141_SEND_BUFF?SEEKFREE_BLUETOOTH_CH9141
000B47H   000B50H   00000AH   BYTE   UNIT     EDATA          ?ED?DL1A_SIMIIC_READ_REGS?SEEKFREE_DL1A
000B51H   000B5AH   00000AH   BYTE   UNIT     EDATA          ?ED?DL1A_SIMIIC_READ_REGS_1?SEEKFREE_DL1A
000B5BH   000B64H   00000AH   BYTE   UNIT     EDATA          ?ED?DL1A_ENCODE_TIMEOUT?SEEKFREE_DL1A
000B65H   000B6EH   00000AH   BYTE   UNIT     EDATA          ?ED?IPS114_SHOWSTR_SIMSPI?SEEKFREE_IPS114_SPI
000B6FH   000B78H   00000AH   BYTE   UNIT     EDATA          ?ED?IPS114_SHOWSTR?SEEKFREE_IPS114_SPI
000B79H   000B82H   00000AH   BYTE   UNIT     EDATA          ?ED?SEEKFREE_VIRSCO
000B83H   000B8BH   000009H   BYTE   UNIT     EDATA          ?ED?LCD_SHOWINT8_SIMSPI?SEEKFREE_18TFT
000B8CH   000B94H   000009H   BYTE   UNIT     EDATA          ?ED?LCD_SHOWUINT8_SIMSPI?SEEKFREE_18TFT
000B95H   000B9DH   000009H   BYTE   UNIT     EDATA          ?ED?LCD_SHOWINT8?SEEKFREE_18TFT
000B9EH   000BA6H   000009H   BYTE   UNIT     EDATA          ?ED?LCD_SHOWUINT8?SEEKFREE_18TFT
000BA7H   000BAFH   000009H   BYTE   UNIT     EDATA          ?ED?DL1A_SIMIIC_WRITE_DATS?SEEKFREE_DL1A
000BB0H   000BB8H   000009H   BYTE   UNIT     EDATA          ?ED?DL1A_TIMEOUT_MICROSECONDS_TO_MCLKS?SEEKFREE_DL1A
000BB9H   000BC1H   000009H   BYTE   UNIT     EDATA          ?ED?DL1A_SET_SIGNAL_RATE_LIMIT?SEEKFREE_DL1A
000BC2H   000BCAH   000009H   BYTE   UNIT     EDATA          ?ED?ICM20602_READ_REGISTERS?SEEKFREE_ICM20602
000BCBH   000BD3H   000009H   BYTE   UNIT     EDATA          ?ED?IPS114_SHOWINT8_SIMSPI?SEEKFREE_IPS114_SPI
000BD4H   000BDCH   000009H   BYTE   UNIT     EDATA          ?ED?IPS114_SHOWUINT8_SIMSPI?SEEKFREE_IPS114_SPI
000BDDH   000BE5H   000009H   BYTE   UNIT     EDATA          ?ED?IPS114_SHOWINT8?SEEKFREE_IPS114_SPI
000BE6H   000BEEH   000009H   BYTE   UNIT     EDATA          ?ED?IPS114_SHOWUINT8?SEEKFREE_IPS114_SPI
000BEFH   000BF7H   000009H   BYTE   UNIT     EDATA          ?ED?OLED_P6X8STR?SEEKFREE_OLED
000BF8H   000C00H   000009H   BYTE   UNIT     EDATA          ?ED?OLED_P8X16STR?SEEKFREE_OLED
000C01H   000C09H   000009H   BYTE   UNIT     EDATA          ?ED?OLED_P6X8STR_SPI?SEEKFREE_OLED
000C0AH   000C12H   000009H   BYTE   UNIT     EDATA          ?ED?OLED_P8X16STR_SPI?SEEKFREE_OLED
000C13H   000C1BH   000009H   BYTE   UNIT     EDATA          ?ED?CRC_CHECK?SEEKFREE_VIRSCO
000C1CH   000C24H   000009H   BYTE   UNIT     EDATA          ?ED?IMU660RA_SIMSPI_W_REG_BYTES?SEEKFREE_IMU660RA
000C25H   000C2DH   000009H   BYTE   UNIT     EDATA          ?ED?IMU660RA_SIMSPI_R_REG_BYTES?SEEKFREE_IMU660RA
000C2EH   000C36H   000009H   BYTE   UNIT     EDATA          ?ED?IMU660RA_WRITE_REGISTERS?SEEKFREE_IMU660RA
000C37H   000C3FH   000009H   BYTE   UNIT     EDATA          ?ED?IMU660RA_READ_REGISTERS?SEEKFREE_IMU660RA
000C40H   000C47H   000008H   BYTE   UNIT     EDATA          ?ED?IAP_READ_BYTES?ZF_EEPROM
000C48H   000C4FH   000008H   BYTE   UNIT     EDATA          ?ED?IAP_WRITE_BYTES?ZF_EEPROM
000C50H   000C57H   000008H   BYTE   UNIT     EDATA          ?ED?UART_PUTBUFF?ZF_UART
000C58H   000C5FH   000008H   BYTE   UNIT     EDATA          ?ED?FIFO_HEAD_OFFSET?ZF_FIFO
L251 LINKER/LOCATER V4.66.93.0                                                        11/25/2023  21:38:42  PAGE 5


000C60H   000C67H   000008H   BYTE   UNIT     EDATA          ?ED?FIFO_END_OFFSET?ZF_FIFO
000C68H   000C6FH   000008H   BYTE   UNIT     EDATA          ?ED?LCD_SET_REGION_SIMSPI?SEEKFREE_18TFT
000C70H   000C77H   000008H   BYTE   UNIT     EDATA          ?ED?LCD_SHOWCHAR_SIMSPI?SEEKFREE_18TFT
000C78H   000C7FH   000008H   BYTE   UNIT     EDATA          ?ED?LCD_SET_REGION?SEEKFREE_18TFT
000C80H   000C87H   000008H   BYTE   UNIT     EDATA          ?ED?LCD_SHOWCHAR?SEEKFREE_18TFT
000C88H   000C8FH   000008H   BYTE   UNIT     EDATA          ?ED?IPS114_SET_REGION_SIMSPI?SEEKFREE_IPS114_SPI
000C90H   000C97H   000008H   BYTE   UNIT     EDATA          ?ED?IPS114_SHOWCHAR_SIMSPI?SEEKFREE_IPS114_SPI
000C98H   000C9FH   000008H   BYTE   UNIT     EDATA          ?ED?IPS114_SET_REGION?SEEKFREE_IPS114_SPI
000CA0H   000CA7H   000008H   BYTE   UNIT     EDATA          ?ED?IPS114_SHOWCHAR?SEEKFREE_IPS114_SPI
000CA8H   000CAFH   000008H   BYTE   UNIT     EDATA          ?ED?OLED_HEXASCII?SEEKFREE_OLED
000CB0H   000CB7H   000008H   BYTE   UNIT     EDATA          ?ED?OLED_HEXASCII_SPI?SEEKFREE_OLED
000CB8H   000CBFH   000008H   BYTE   UNIT     EDATA          ?ED?ADC_MEAN_FILTER_CONVERT?ELECTRONIC
000CC0H   000CC7H   000008H   BYTE   UNIT     EDATA          ?ED?PIDLOCCTRL?LQ_PID
000CC8H   000CCFH   000008H   BYTE   UNIT     EDATA          ?ED?PIDINCCTRL?LQ_PID
000CD0H   000CD6H   000007H   BYTE   UNIT     EDATA          ?ED?IIC_READ_REG_BYTES?ZF_IIC
000CD7H   000CDDH   000007H   BYTE   UNIT     EDATA          ?ED?SPI_INIT?ZF_SPI
000CDEH   000CE4H   000007H   BYTE   UNIT     EDATA          ?ED?DL1A_TIMEOUT_MCLKS_TO_MICROSECONDS?SEEKFREE_DL1A
000CE5H   000CEBH   000007H   BYTE   UNIT     EDATA          ?ED?MPU6050_SIMIIC_READ_REGS?SEEKFREE_MPU6050
000CECH   000CF2H   000007H   BYTE   UNIT     EDATA          ?ED?CCD_SEND_DATA?SEEKFREE_TSL1401
000CF3H   000CF9H   000007H   BYTE   UNIT     EDATA          ?ED?IMU660RA_GET_ACC?SEEKFREE_IMU660RA
000CFAH   000D00H   000007H   BYTE   UNIT     EDATA          ?ED?IMU660RA_GET_GYRO?SEEKFREE_IMU660RA
000D01H   000D06H   000006H   BYTE   UNIT     EDATA          ?ED?ADC_ONCE?ZF_ADC
000D07H   000D0CH   000006H   BYTE   UNIT     EDATA          ?ED?DELAY_US?ZF_DELAY
000D0DH   000D12H   000006H   BYTE   UNIT     EDATA          ?ED?IIC_INIT?ZF_IIC
000D13H   000D18H   000006H   BYTE   UNIT     EDATA          ?ED?IIC_READ_REG?ZF_IIC
000D19H   000D1EH   000006H   BYTE   UNIT     EDATA          ?ED?PIT_TIMER_MS?ZF_TIM
000D1FH   000D24H   000006H   BYTE   UNIT     EDATA          ?ED?UART_PUTSTR?ZF_UART
000D25H   000D2AH   000006H   BYTE   UNIT     EDATA          ?ED?LCD_DRAWPOINT_SIMSPI?SEEKFREE_18TFT
000D2BH   000D30H   000006H   BYTE   UNIT     EDATA          ?ED?LCD_DRAWPOINT?SEEKFREE_18TFT
000D31H   000D36H   000006H   BYTE   UNIT     EDATA          ?ED?AT24C02_WRITE_BYTES?SEEKFREE_AT24C02
000D37H   000D3CH   000006H   BYTE   UNIT     EDATA          ?ED?AT24C02_READ_BYTES?SEEKFREE_AT24C02
000D3DH   000D42H   000006H   BYTE   UNIT     EDATA          ?ED?ICM20602_GET_ACC?SEEKFREE_ICM20602
000D43H   000D48H   000006H   BYTE   UNIT     EDATA          ?ED?ICM20602_GET_GYRO?SEEKFREE_ICM20602
000D49H   000D4EH   000006H   BYTE   UNIT     EDATA          ?ED?ICM20602_ACC_TRANSITION?SEEKFREE_ICM20602
000D4FH   000D54H   000006H   BYTE   UNIT     EDATA          ?ED?ICM20602_GYRO_TRANSITION?SEEKFREE_ICM20602
000D55H   000D5AH   000006H   BYTE   UNIT     EDATA          ?ED?IPS114_CLEAR_SIMSPI?SEEKFREE_IPS114_SPI
000D5BH   000D60H   000006H   BYTE   UNIT     EDATA          ?ED?IPS114_DRAWPOINT_SIMSPI?SEEKFREE_IPS114_SPI
000D61H   000D66H   000006H   BYTE   UNIT     EDATA          ?ED?IPS114_CLEAR?SEEKFREE_IPS114_SPI
000D67H   000D6CH   000006H   BYTE   UNIT     EDATA          ?ED?IPS114_DRAWPOINT?SEEKFREE_IPS114_SPI
000D6DH   000D72H   000006H   BYTE   UNIT     EDATA          ?ED?MPU6050_GET_ACCDATA?SEEKFREE_MPU6050
000D73H   000D78H   000006H   BYTE   UNIT     EDATA          ?ED?MPU6050_GET_GYRO?SEEKFREE_MPU6050
000D79H   000D7EH   000006H   BYTE   UNIT     EDATA          ?ED?WIRELESS_UART_SEND_BUFF?SEEKFREE_WIRELESS
000D7FH   000D84H   000006H   BYTE   UNIT     EDATA          ?ED?WIRELESS_CH573_SEND_BUFF?SEEKFREE_WIRELESS_CH573
000D85H   000D8AH   000006H   BYTE   UNIT     EDATA          ?ED?IMU660RA_ACC_TRANSITION?SEEKFREE_IMU660RA
000D8BH   000D90H   000006H   BYTE   UNIT     EDATA          ?ED?IMU660RA_GYRO_TRANSITION?SEEKFREE_IMU660RA
000D91H   000D95H   000005H   BYTE   UNIT     EDATA          ?ED?SIMSPI_R_REG_BYTE?SEEKFREE_ABSOLUTE_ENCODER
000D96H   000D9AH   000005H   BYTE   UNIT     EDATA          ?ED?ENCODER_SIMSPI_R_REG_BYTE?SEEKFREE_ABSOLUTE_ENCODER
000D9BH   000D9FH   000005H   BYTE   UNIT     EDATA          ?ED?SPI_R_REG_BYTE?SEEKFREE_ABSOLUTE_ENCODER
000DA0H   000DA4H   000005H   BYTE   UNIT     EDATA          ?ED?ENCODER_SPI_R_REG_BYTE?SEEKFREE_ABSOLUTE_ENCODER
000DA5H   000DA9H   000005H   BYTE   UNIT     EDATA          ?ED?DL1A_GET_SEQUENCE_STEP_ENABLES?SEEKFREE_DL1A
000DAAH   000DAEH   000005H   BYTE   UNIT     EDATA          ?ED?DL1A_PERFORM_SINGLE_REF_CALIBRATION?SEEKFREE_DL1A
000DAFH   000DB3H   000005H   BYTE   UNIT     EDATA          ?ED?ICM20602_SIMSPI_R_REG_BYTE?SEEKFREE_ICM20602
000DB4H   000DB7H   000004H   BYTE   UNIT     EDATA          ?ED?BOARD
000DB8H   000DBBH   000004H   BYTE   UNIT     EDATA          ?ED?ADC_INIT?ZF_ADC
000DBCH   000DBFH   000004H   BYTE   UNIT     EDATA          ?ED?ZF_DELAY
000DC0H   000DC3H   000004H   BYTE   UNIT     EDATA          ?ED?DELAY_MS?ZF_DELAY
000DC4H   000DC7H   000004H   BYTE   UNIT     EDATA          ?ED?EXIT_INIT?ZF_EXTI
000DC8H   000DCBH   000004H   BYTE   UNIT     EDATA          ?ED?GPIO_PULL_SET?ZF_GPIO
000DCCH   000DCFH   000004H   BYTE   UNIT     EDATA          ?ED?GPIO_MODE?ZF_GPIO
000DD0H   000DD3H   000004H   BYTE   UNIT     EDATA          ?ED?CTIMER_COUNT_READ?ZF_TIM
000DD4H   000DD7H   000004H   BYTE   UNIT     EDATA          ?ED?FIFO_CLEAR?ZF_FIFO
000DD8H   000DDBH   000004H   BYTE   UNIT     EDATA          ?ED?FIFO_USED?ZF_FIFO
000DDCH   000DDFH   000004H   BYTE   UNIT     EDATA          ?ED?LCD_CLEAR_SIMSPI?SEEKFREE_18TFT
000DE0H   000DE3H   000004H   BYTE   UNIT     EDATA          ?ED?LCD_WRITEDATA_16BIT?SEEKFREE_18TFT
000DE4H   000DE7H   000004H   BYTE   UNIT     EDATA          ?ED?LCD_CLEAR?SEEKFREE_18TFT
L251 LINKER/LOCATER V4.66.93.0                                                        11/25/2023  21:38:42  PAGE 6


000DE8H   000DEBH   000004H   BYTE   UNIT     EDATA          ?ED?ICM20602_SELF_CHECK?SEEKFREE_ICM20602
000DECH   000DEFH   000004H   BYTE   UNIT     EDATA          ?ED?ICM20602_INIT?SEEKFREE_ICM20602
000DF0H   000DF3H   000004H   BYTE   UNIT     EDATA          ?ED?IPS114_WRITEDATA_16BIT?SEEKFREE_IPS114_SPI
000DF4H   000DF7H   000004H   BYTE   UNIT     EDATA          ?ED?IMU660RA_SELF_CHECK?SEEKFREE_IMU660RA
000DF8H   000DFBH   000004H   BYTE   UNIT     EDATA          ?ED?ISR
000DFCH   000DFFH   000004H   BYTE   UNIT     EDATA          ?ED?ADC_FILTER?ELECTRONIC
000E00H   000E03H   000004H   BYTE   UNIT     EDATA          ?ED?PIDINIT?LQ_PID
000E04H   000E07H   000004H   BYTE   UNIT     EDATA          ?ED?ENCODER_GET?MOTOR
000E08H   000E0BH   000004H   BYTE   UNIT     EDATA          ?ED?MOTOR_SPEEDSET?MOTOR
000E0CH   000E0EH   000003H   BYTE   UNIT     EDATA          ?ED?IIC_DELAY_US?ZF_IIC
000E0FH   000E11H   000003H   BYTE   UNIT     EDATA          ?ED?WAIT?ZF_IIC
000E12H   000E14H   000003H   BYTE   UNIT     EDATA          ?ED?IIC_WRITE_REG?ZF_IIC
000E15H   000E17H   000003H   BYTE   UNIT     EDATA          ?ED?NVIC_SETPRIORITY?ZF_NVIC
000E18H   000E1AH   000003H   BYTE   UNIT     EDATA          ?ED?UART_PUTCHAR?ZF_UART
000E1BH   000E1DH   000003H   BYTE   UNIT     EDATA          ?ED?LCD_WRITEDATA_16BIT_SIMSPI?SEEKFREE_18TFT
000E1EH   000E20H   000003H   BYTE   UNIT     EDATA          ?ED?ENCODER_SIMSPI_W_REG_BYTE?SEEKFREE_ABSOLUTE_ENCODER
000E21H   000E23H   000003H   BYTE   UNIT     EDATA          ?ED?ENCODER_SPI_W_REG_BYTE?SEEKFREE_ABSOLUTE_ENCODER
000E24H   000E26H   000003H   BYTE   UNIT     EDATA          ?ED?AT24C02_READ_CH?SEEKFREE_AT24C02
000E27H   000E29H   000003H   BYTE   UNIT     EDATA          ?ED?AT24C02_SIMIIC_WRITE_REG?SEEKFREE_AT24C02
000E2AH   000E2CH   000003H   BYTE   UNIT     EDATA          ?ED?AT24C02_SIMIIC_READ_REG?SEEKFREE_AT24C02
000E2DH   000E2FH   000003H   BYTE   UNIT     EDATA          ?ED?SEEKFREE_DL1A
000E30H   000E32H   000003H   BYTE   UNIT     EDATA          ?ED?DL1A_READ_CH?SEEKFREE_DL1A
000E33H   000E35H   000003H   BYTE   UNIT     EDATA          ?ED?DL1A_SIMIIC_WRITE_REG?SEEKFREE_DL1A
000E36H   000E38H   000003H   BYTE   UNIT     EDATA          ?ED?DL1A_SIMIIC_READ_REG?SEEKFREE_DL1A
000E39H   000E3BH   000003H   BYTE   UNIT     EDATA          ?ED?DL1A_GET_VCSEL_PULSE_PERIOD?SEEKFREE_DL1A
000E3CH   000E3EH   000003H   BYTE   UNIT     EDATA          ?ED?DL1A_GET_DISTANCE?SEEKFREE_DL1A
000E3FH   000E41H   000003H   BYTE   UNIT     EDATA          ?ED?IPS114_WRITEDATAI_16BIT_SIMSPI?SEEKFREE_IPS114_SPI
000E42H   000E44H   000003H   BYTE   UNIT     EDATA          ?ED?MPU6050_READ_CH?SEEKFREE_MPU6050
000E45H   000E47H   000003H   BYTE   UNIT     EDATA          ?ED?MPU6050_SIMIIC_WRITE_REG?SEEKFREE_MPU6050
000E48H   000E4AH   000003H   BYTE   UNIT     EDATA          ?ED?MPU6050_SIMIIC_READ_REG?SEEKFREE_MPU6050
000E4BH   000E4DH   000003H   BYTE   UNIT     EDATA          ?ED?OLED_FILL?SEEKFREE_OLED
000E4EH   000E50H   000003H   BYTE   UNIT     EDATA          ?ED?OLED_PUTPIXEL?SEEKFREE_OLED
000E51H   000E53H   000003H   BYTE   UNIT     EDATA          ?ED?OLED_FILL_SPI?SEEKFREE_OLED
000E54H   000E56H   000003H   BYTE   UNIT     EDATA          ?ED?OLED_PUTPIXEL_SPI?SEEKFREE_OLED
000E57H   000E59H   000003H   BYTE   UNIT     EDATA          ?ED?IMU660RA_READ_REGISTER?SEEKFREE_IMU660RA
000E5AH   000E5BH   000002H   BYTE   UNIT     EDATA          ?ED?COMMON
000E5CH   000E5DH   000002H   BYTE   UNIT     EDATA          ?ED?IAP_ERASE_PAGE?ZF_EEPROM
000E5EH   000E5FH   000002H   BYTE   UNIT     EDATA          ?ED?SEND_DATA?ZF_IIC
000E60H   000E61H   000002H   BYTE   UNIT     EDATA          ?ED?IIC_CHANGE_PIN?ZF_IIC
000E62H   000E63H   000002H   BYTE   UNIT     EDATA          ?ED?PWM_SET_GPIO?ZF_PWM
000E64H   000E65H   000002H   BYTE   UNIT     EDATA          ?ED?SPI_CHANGE_PIN?ZF_SPI
000E66H   000E67H   000002H   BYTE   UNIT     EDATA          ?ED?CTIMER_COUNT_INIT?ZF_TIM
000E68H   000E69H   000002H   BYTE   UNIT     EDATA          ?ED?CTIMER_COUNT_CLEAN?ZF_TIM
000E6AH   000E6BH   000002H   BYTE   UNIT     EDATA          ?ED?LCD_WRITEINDEX_SIMSPI?SEEKFREE_18TFT
000E6CH   000E6DH   000002H   BYTE   UNIT     EDATA          ?ED?LCD_WRITEDATA_SIMSPI?SEEKFREE_18TFT
000E6EH   000E6FH   000002H   BYTE   UNIT     EDATA          ?ED?ENCODER_DELAY_US?SEEKFREE_ABSOLUTE_ENCODER
000E70H   000E71H   000002H   BYTE   UNIT     EDATA          ?ED?SIMSPI_WR_BYTE?SEEKFREE_ABSOLUTE_ENCODER
000E72H   000E73H   000002H   BYTE   UNIT     EDATA          ?ED?SIMSPI_W_REG_BYTE?SEEKFREE_ABSOLUTE_ENCODER
000E74H   000E75H   000002H   BYTE   UNIT     EDATA          ?ED?SET_ZERO_POSITION_SIMSPI?SEEKFREE_ABSOLUTE_ENCODER
000E76H   000E77H   000002H   BYTE   UNIT     EDATA          ?ED?ENCODER_ANGLE_SIMSPI?SEEKFREE_ABSOLUTE_ENCODER
000E78H   000E79H   000002H   BYTE   UNIT     EDATA          ?ED?SPI_W_REG_BYTE?SEEKFREE_ABSOLUTE_ENCODER
000E7AH   000E7BH   000002H   BYTE   UNIT     EDATA          ?ED?SET_ZERO_POSITION_SPI?SEEKFREE_ABSOLUTE_ENCODER
000E7CH   000E7DH   000002H   BYTE   UNIT     EDATA          ?ED?ENCODER_ANGLE_SPI?SEEKFREE_ABSOLUTE_ENCODER
000E7EH   000E7FH   000002H   BYTE   UNIT     EDATA          ?ED?AT24C02_SIMIIC_DELAY?SEEKFREE_AT24C02
000E80H   000E81H   000002H   BYTE   UNIT     EDATA          ?ED?AT24C02_SEND_CH?SEEKFREE_AT24C02
000E82H   000E83H   000002H   BYTE   UNIT     EDATA          ?ED?AT24C02_WRITE_BYTE?SEEKFREE_AT24C02
000E84H   000E85H   000002H   BYTE   UNIT     EDATA          ?ED?DL1A_SIMIIC_DELAY?SEEKFREE_DL1A
000E86H   000E87H   000002H   BYTE   UNIT     EDATA          ?ED?DL1A_SEND_CH?SEEKFREE_DL1A
000E88H   000E89H   000002H   BYTE   UNIT     EDATA          ?ED?DL1A_DECODE_TIMEOUT?SEEKFREE_DL1A
000E8AH   000E8BH   000002H   BYTE   UNIT     EDATA          ?ED?ICM20602_SIMSPI_WR_BYTE?SEEKFREE_ICM20602
000E8CH   000E8DH   000002H   BYTE   UNIT     EDATA          ?ED?ICM20602_SIMSPI_W_REG_BYTE?SEEKFREE_ICM20602
000E8EH   000E8FH   000002H   BYTE   UNIT     EDATA          ?ED?ICM20602_WRITE_REGISTER?SEEKFREE_ICM20602
000E90H   000E91H   000002H   BYTE   UNIT     EDATA          ?ED?ICM20602_READ_REGISTER?SEEKFREE_ICM20602
000E92H   000E93H   000002H   BYTE   UNIT     EDATA          ?ED?IPS114_WRITEINDEX_SIMSPI?SEEKFREE_IPS114_SPI
000E94H   000E95H   000002H   BYTE   UNIT     EDATA          ?ED?IPS114_WRITEDATA_SIMSPI?SEEKFREE_IPS114_SPI
L251 LINKER/LOCATER V4.66.93.0                                                        11/25/2023  21:38:42  PAGE 7


000E96H   000E97H   000002H   BYTE   UNIT     EDATA          ?ED?MPU6050_SIMIIC_DELAY?SEEKFREE_MPU6050
000E98H   000E99H   000002H   BYTE   UNIT     EDATA          ?ED?MPU6050_SEND_CH?SEEKFREE_MPU6050
000E9AH   000E9BH   000002H   BYTE   UNIT     EDATA          ?ED?OLED_WRDAT?SEEKFREE_OLED
000E9CH   000E9DH   000002H   BYTE   UNIT     EDATA          ?ED?OLED_WRCMD?SEEKFREE_OLED
000E9EH   000E9FH   000002H   BYTE   UNIT     EDATA          ?ED?OLED_SET_POS?SEEKFREE_OLED
000EA0H   000EA1H   000002H   BYTE   UNIT     EDATA          ?ED?OLED_CLRPIXEL?SEEKFREE_OLED
000EA2H   000EA3H   000002H   BYTE   UNIT     EDATA          ?ED?OLED_SET_POS_SPI?SEEKFREE_OLED
000EA4H   000EA5H   000002H   BYTE   UNIT     EDATA          ?ED?OLED_CLRPIXEL_SPI?SEEKFREE_OLED
000EA6H   000EA7H   000002H   BYTE   UNIT     EDATA          ?ED?IMU660RA_SIMSPI_WR_BYTE?SEEKFREE_IMU660RA
000EA8H   000EA9H   000002H   BYTE   UNIT     EDATA          ?ED?IMU660RA_SIMSPI_W_REG_BYTE?SEEKFREE_IMU660RA
000EAAH   000EABH   000002H   BYTE   UNIT     EDATA          ?ED?IMU660RA_WRITE_REGISTER?SEEKFREE_IMU660RA
000EACH   000EADH   000002H   BYTE   UNIT     EDATA          ?ED?DUTY_LIMIT?MOTOR
000EAEH   000EAEH   000001H   BYTE   UNIT     EDATA          ?ED?PUTCHAR?BOARD
000EAFH   000EAFH   000001H   BYTE   UNIT     EDATA          ?ED?IAP_SET_TPS?ZF_EEPROM
000EB0H   000EB0H   000001H   BYTE   UNIT     EDATA          ?ED?START?ZF_IIC
000EB1H   000EB1H   000001H   BYTE   UNIT     EDATA          ?ED?RECV_ACK?ZF_IIC
000EB2H   000EB2H   000001H   BYTE   UNIT     EDATA          ?ED?SEND_ACK?ZF_IIC
000EB3H   000EB3H   000001H   BYTE   UNIT     EDATA          ?ED?STOP?ZF_IIC
000EB4H   000EB4H   000001H   BYTE   UNIT     EDATA          ?ED?SPI_MOSI?ZF_SPI
000EB5H   000EB5H   000001H   BYTE   UNIT     EDATA          ?ED?SPI_CHANGE_MODE?ZF_SPI
000EB6H   000EB6H   000001H   BYTE   UNIT     EDATA          ?ED?LCD_WRITEINDEX?SEEKFREE_18TFT
000EB7H   000EB7H   000001H   BYTE   UNIT     EDATA          ?ED?LCD_WRITEDATA?SEEKFREE_18TFT
000EB8H   000EB8H   000001H   BYTE   UNIT     EDATA          ?ED?ENCODER_SELF4_CHECK?SEEKFREE_ABSOLUTE_ENCODER
000EB9H   000EB9H   000001H   BYTE   UNIT     EDATA          ?ED?SPI_WR_BYTE?SEEKFREE_ABSOLUTE_ENCODER
000EBAH   000EBAH   000001H   BYTE   UNIT     EDATA          ?ED?ENCODER_SELF5_CHECK?SEEKFREE_ABSOLUTE_ENCODER
000EBBH   000EBBH   000001H   BYTE   UNIT     EDATA          ?ED?AT24C02_SIMIIC_SENDACK?SEEKFREE_AT24C02
000EBCH   000EBCH   000001H   BYTE   UNIT     EDATA          ?ED?AT24C02_READ_BYTE?SEEKFREE_AT24C02
000EBDH   000EBDH   000001H   BYTE   UNIT     EDATA          ?ED?DL1A_SIMIIC_SENDACK?SEEKFREE_DL1A
000EBEH   000EBEH   000001H   BYTE   UNIT     EDATA          ?ED?IPS114_WRITEINDEX?SEEKFREE_IPS114_SPI
000EBFH   000EBFH   000001H   BYTE   UNIT     EDATA          ?ED?IPS114_WRITEDATA?SEEKFREE_IPS114_SPI
000EC0H   000EC0H   000001H   BYTE   UNIT     EDATA          ?ED?MPU6050_SIMIIC_SENDACK?SEEKFREE_MPU6050
000EC1H   000EC1H   000001H   BYTE   UNIT     EDATA          ?ED?OLED_WRDAT_SPI?SEEKFREE_OLED
000EC2H   000EC2H   000001H   BYTE   UNIT     EDATA          ?ED?OLED_WRCMD_SPI?SEEKFREE_OLED
000EC3H   000EC3H   000001H   BYTE   UNIT     EDATA          ?ED?CCD_COLLECT?SEEKFREE_TSL1401
000EC4H   000EC4H   000001H   BYTE   UNIT     EDATA          ?ED?IMU660RA_INIT?SEEKFREE_IMU660RA
000EC5H   000EC5H   000001H   BYTE   UNIT     EDATA          ?ED?UART1_ISR?ISR
000EC6H   000FC5H   000100H   BYTE   UNIT     EDATA          ?STACK
000FC6H   00FFFFH   00F03AH   ---    ---      **GAP**
010000H   010018H   000019H   BYTE   UNIT     XDATA          ?XD?ADC_MEAN_FILTER_CONVERT?ELECTRONIC
010019H   01001BH   000003H   BYTE   UNIT     XDATA          ?XD?ADC_FILTER?ELECTRONIC
01001CH   01001CH   000001H   BYTE   UNIT     XDATA          ?XD?ADC_DATA_CONVERT?ELECTRONIC
01001DH   FDFFFFH   FCFFE3H   ---    ---      **GAP**
FE0000H   FE00EAH   0000EBH   BYTE   UNIT     HCONST         ?C_INITEDATA
FE00EBH   FE0142H   000058H   BYTE   UNIT     HCONST         ?HC?ZF_PWM
FE0143H   FE0176H   000034H   BYTE   UNIT     HCONST         ?HC?SEEKFREE_IMU660RA
FE0177H   FE01A9H   000033H   BYTE   UNIT     HCONST         ?HC?SEEKFREE_ICM20602
FE01AAH   FE01D7H   00002EH   BYTE   UNIT     HCONST         ?HC?ALL_INIT
FE01D8H   FE01EDH   000016H   BYTE   UNIT     HCONST         ?HC?SEEKFREE_MPU6050
FE01EEH   FE0200H   000013H   BYTE   UNIT     HCONST         ?HC?SEEKFREE_DL1A
FE0201H   FE020AH   00000AH   BYTE   UNIT     HCONST         ?HC?SEEKFREE_OLED
FE020BH   FE0210H   000006H   BYTE   UNIT     HCONST         ?HC?SEEKFREE_18TFT
FE0211H   FE0216H   000006H   BYTE   UNIT     HCONST         ?HC?SEEKFREE_IPS114_SPI
FE0217H   FEFFFFH   00FDE9H   ---    ---      **GAP**
FF0000H   FF0002H   000003H   ---    OFFS..   CODE           ?CO?start251?4
FF0003H   FF0005H   000003H   ---    OFFS..   CODE           ?PR?IV?0
FF0006H   FF0009H   000004H   BYTE   INSEG    CODE           ?PR?ENABLEGLOBALIRQ?BOARD
FF000AH   FF000AH   000001H   BYTE   INSEG    CODE           ?PR?INT1_ISR?ISR
FF000BH   FF000DH   000003H   ---    OFFS..   CODE           ?PR?IV?1
FF000EH   FF000EH   000001H   BYTE   INSEG    CODE           ?PR?TM0_ISR?ISR
FF000FH   FF0012H   000004H   BYTE   UNIT     CONST          ?CO?PRINTF
FF0013H   FF0015H   000003H   ---    OFFS..   CODE           ?PR?IV?2
FF0016H   FF001AH   000005H   ---    ---      **GAP**
FF001BH   FF001DH   000003H   ---    OFFS..   CODE           ?PR?IV?3
FF001EH   FF0022H   000005H   ---    ---      **GAP**
FF0023H   FF0025H   000003H   ---    OFFS..   CODE           ?PR?IV?4
L251 LINKER/LOCATER V4.66.93.0                                                        11/25/2023  21:38:42  PAGE 8


FF0026H   FF0040H   00001BH   BYTE   INSEG    CODE           ?PR?IMU660RA_SIMSPI_W_REG_BYTE?SEEKFREE_IMU660RA
FF0041H   FF0042H   000002H   ---    ---      **GAP**
FF0043H   FF0045H   000003H   ---    OFFS..   CODE           ?PR?IV?8
FF0046H   FF004DH   000008H   BYTE   INSEG    CODE           ?PR?INT0_ISR?ISR
FF004EH   FF0052H   000005H   ---    ---      **GAP**
FF0053H   FF0055H   000003H   ---    OFFS..   CODE           ?PR?IV?10
FF0056H   FF005AH   000005H   ---    ---      **GAP**
FF005BH   FF005DH   000003H   ---    OFFS..   CODE           ?PR?IV?11
FF005EH   FF0062H   000005H   ---    ---      **GAP**
FF0063H   FF0065H   000003H   ---    OFFS..   CODE           ?PR?IV?12
FF0066H   FF007FH   00001AH   BYTE   INSEG    CODE           ?PR?BLUETOOTH_CH9141_UART_CALLBACK?SEEKFREE_BLUETOOTH_CH91
                                                             -41
FF0080H   FF0082H   000003H   ---    ---      **GAP**
FF0083H   FF0085H   000003H   ---    OFFS..   CODE           ?PR?IV?16
FF0086H   FF008AH   000005H   ---    ---      **GAP**
FF008BH   FF008DH   000003H   ---    OFFS..   CODE           ?PR?IV?17
FF008EH   FF0092H   000005H   ---    ---      **GAP**
FF0093H   FF0095H   000003H   ---    OFFS..   CODE           ?PR?IV?18
FF0096H   FF009AH   000005H   ---    ---      **GAP**
FF009BH   FF009DH   000003H   ---    OFFS..   CODE           ?PR?IV?19
FF009EH   FF00A2H   000005H   ---    ---      **GAP**
FF00A3H   FF00A5H   000003H   ---    OFFS..   CODE           ?PR?IV?20
FF00A6H   FF20A5H   002000H   BYTE   UNIT     CODE           ?CO?SEEKFREE_CONFIG
FF20A6H   FF2EADH   000E08H   BYTE   UNIT     CODE           ?CO?SEEKFREE_FONT
FF2EAEH   FF3856H   0009A9H   BYTE   UNIT     CODE           ?C?LIB_CODE
FF3857H   FF4163H   00090DH   BYTE   INSEG    CODE           ?PR?GPIO_MODE?ZF_GPIO
FF4164H   FF453DH   0003DAH   BYTE   INSEG    CODE           ?PR?PWM_INIT?ZF_PWM
FF453EH   FF48F5H   0003B8H   BYTE   INSEG    CODE           ?PR?PWM_SET_GPIO?ZF_PWM
FF48F6H   FF4BA7H   0002B2H   BYTE   INSEG    CODE           ?PR?UART_INIT?ZF_UART
FF4BA8H   FF4DADH   000206H   BYTE   INSEG    CODE           ?PR?SET_CLK?BOARD
FF4DAEH   FF4FA8H   0001FBH   BYTE   INSEG    CODE           ?PR?LCD_INIT_SIMSPI?SEEKFREE_18TFT
FF4FA9H   FF5105H   00015DH   BYTE   INSEG    CODE           ?PR?MOTOR_SPEEDSET?MOTOR
FF5106H   FF525CH   000157H   BYTE   INSEG    CODE           ?PR?PIDLOCCTRL?LQ_PID
FF525DH   FF53A5H   000149H   BYTE   INSEG    CODE           ?PR?PIDINCCTRL?LQ_PID
FF53A6H   FF54DDH   000138H   BYTE   INSEG    CODE           ?PR?FIFO_WRITE_BUFFER?ZF_FIFO
FF54DEH   FF55F6H   000119H   BYTE   INSEG    CODE           ?PR?LCD_SHOWINT16_SIMSPI?SEEKFREE_18TFT
FF55F7H   FF570EH   000118H   BYTE   INSEG    CODE           ?PR?PWM_DUTY?ZF_PWM
FF570FH   FF57F3H   0000E5H   BYTE   INSEG    CODE           ?PR?PIT_TIMER_MS?ZF_TIM
FF57F4H   FF58BEH   0000CBH   BYTE   INSEG    CODE           ?PR?VELOCITY_CONTROL?BAL
FF58BFH   FF5989H   0000CBH   BYTE   INSEG    CODE           ?PR?PIDINIT?LQ_PID
FF598AH   FF5A4CH   0000C3H   BYTE   INSEG    CODE           ?PR?ADC_DATA_CONVERT?ELECTRONIC
FF5A4DH   FF5B0BH   0000BFH   BYTE   INSEG    CODE           ?PR?LCD_SHOWCHAR_SIMSPI?SEEKFREE_18TFT
FF5B0CH   FF5BC0H   0000B5H   BYTE   INSEG    CODE           ?PR?ADC_INIT?ZF_ADC
FF5BC1H   FF5C74H   0000B4H   BYTE   INSEG    CODE           ?PR?CTIMER_COUNT_READ?ZF_TIM
FF5C75H   FF5D21H   0000ADH   BYTE   INSEG    CODE           ?PR?INDUCTORNORMAL?ELECTRONIC
FF5D22H   FF5DCBH   0000AAH   BYTE   INSEG    CODE           ?PR?IMU660RA_INIT?SEEKFREE_IMU660RA
FF5DCCH   FF5E73H   0000A8H   BYTE   INSEG    CODE           ?PR?IMU660RA_GYRO_TRANSITION?SEEKFREE_IMU660RA
FF5E74H   FF5F14H   0000A1H   BYTE   INSEG    CODE           ?PR?TM1_ISR?ISR
FF5F15H   FF5FADH   000099H   BYTE   INSEG    CODE           ?PR?ALL_PID_INIT?BAL
FF5FAEH   FF6044H   000097H   BYTE   INSEG    CODE           ?PR?BOARD_INIT?BOARD
FF6045H   FF60C4H   000080H   BYTE   INSEG    CODE           ?PR?TFT_SHOW?ALL_INIT
FF60C5H   FF6139H   000075H   BYTE   INSEG    CODE           ?PR?UART_PUTCHAR?ZF_UART
FF613AH   FF61ACH   000073H   BYTE   INSEG    CODE           ?PR?UART4_ISR?ISR
FF61ADH   FF621CH   000070H   BYTE   INSEG    CODE           ?PR?ADC_FILTER?ELECTRONIC
FF621DH   FF628AH   00006EH   BYTE   INSEG    CODE           ?PR?FIFO_INIT?ZF_FIFO
FF628BH   FF62F4H   00006AH   BYTE   INSEG    CODE           ?PR?FIFO_HEAD_OFFSET?ZF_FIFO
FF62F5H   FF6358H   000064H   BYTE   INSEG    CODE           ?PR?LCD_SET_REGION_SIMSPI?SEEKFREE_18TFT
FF6359H   FF63B5H   00005DH   BYTE   INSEG    CODE           ?PR?CTIMER_COUNT_CLEAN?ZF_TIM
FF63B6H   FF6412H   00005DH   BYTE   INSEG    CODE           ?PR?LCD_SHOWSTR_SIMSPI?SEEKFREE_18TFT
FF6413H   FF646CH   00005AH   BYTE   INSEG    CODE           ?PR?BAL_CONTROL?BAL
FF646DH   FF64C5H   000059H   BYTE   INSEG    CODE           ?PR?IMU660RA_SIMSPI_WR_BYTE?SEEKFREE_IMU660RA
FF64C6H   FF651CH   000057H   BYTE   INSEG    CODE           ?PR?LCD_CLEAR_SIMSPI?SEEKFREE_18TFT
FF651DH   FF6572H   000056H   BYTE   INSEG    CODE           ?PR?ADC_ONCE?ZF_ADC
FF6573H   FF65C7H   000055H   BYTE   INSEG    CODE           ?PR?LCD_WRITEDATA_16BIT_SIMSPI?SEEKFREE_18TFT
FF65C8H   FF661BH   000054H   BYTE   INSEG    CODE           ?PR?CTIMER_COUNT_INIT?ZF_TIM
L251 LINKER/LOCATER V4.66.93.0                                                        11/25/2023  21:38:42  PAGE 9


FF661CH   FF666BH   000050H   BYTE   INSEG    CODE           ?PR?IMU660RA_GET_GYRO?SEEKFREE_IMU660RA
FF666CH   FF66B7H   00004CH   BYTE   INSEG    CODE           ?PR?LCD_WRITEINDEX_SIMSPI?SEEKFREE_18TFT
FF66B8H   FF6703H   00004CH   BYTE   INSEG    CODE           ?PR?LCD_WRITEDATA_SIMSPI?SEEKFREE_18TFT
FF6704H   FF674EH   00004BH   BYTE   INSEG    CODE           ?PR?IMU660RA_SELF_CHECK?SEEKFREE_IMU660RA
FF674FH   FF6799H   00004BH   BYTE   INSEG    CODE           ?PR?IMU660RA_SIMSPI_R_REG_BYTES?SEEKFREE_IMU660RA
FF679AH   FF67E2H   000049H   BYTE   INSEG    CODE           ?PR?ENCODER_CAL?BAL
FF67E3H   FF6828H   000046H   BYTE   INSEG    CODE           ?PR?UART1_ISR?ISR
FF6829H   FF686DH   000045H   BYTE   INSEG    CODE           ?PR?MOTOR_INIT?MOTOR
FF686EH   FF68B1H   000044H   BYTE   INSEG    CODE           ?PR?TFT_PRINTF?ALL_INIT
FF68B2H   FF68F2H   000041H   BYTE   INSEG    CODE           ?PR?DELAY_INIT?ZF_DELAY
FF68F3H   FF6905H   000013H   BYTE   UNIT     CODE           ?C_C51STARTUP
FF6906H   FF692EH   000029H   BYTE   UNIT     CODE           ?C_C51STARTUP?2
FF692FH   FF6931H   000003H   BYTE   UNIT     CODE           ?C_C51STARTUP?3
FF6932H   FF696FH   00003EH   BYTE   INSEG    CODE           ?PR?WIRELESS_UART_INIT?SEEKFREE_WIRELESS
FF6970H   FF69ADH   00003EH   BYTE   INSEG    CODE           ?PR?IMU660RA_SIMSPI_W_REG_BYTES?SEEKFREE_IMU660RA
FF69AEH   FF69E4H   000037H   BYTE   INSEG    CODE           ?PR?ADC_6_ROAD_INIT?ELECTRONIC
FF69E5H   FF6A19H   000035H   BYTE   INSEG    CODE           ?PR?DELAY_MS?ZF_DELAY
FF6A1AH   FF6A4CH   000033H   BYTE   INSEG    CODE           ?PR?CONSTRAIN_FLOAT?LQ_PID
FF6A4DH   FF6A72H   000026H   BYTE   INSEG    CODE           ?PR?IMU660RA_READ_REGISTERS?SEEKFREE_IMU660RA
FF6A73H   FF6A97H   000025H   BYTE   INSEG    CODE           ?PR?MEMCPY?_?MEMCPY
FF6A98H   FF6AB9H   000022H   BYTE   INSEG    CODE           ?PR?IMU660RA_READ_REGISTER?SEEKFREE_IMU660RA
FF6ABAH   FF6ADBH   000022H   BYTE   INSEG    CODE           ?PR?IMU660RA_WRITE_REGISTERS?SEEKFREE_IMU660RA
FF6ADCH   FF6AFAH   00001FH   BYTE   INSEG    CODE           ?PR?ALL_INIT?ALL_INIT
FF6AFBH   FF6B19H   00001FH   BYTE   INSEG    CODE           ?PR?ENCODER_INIT?MOTOR
FF6B1AH   FF6B37H   00001EH   BYTE   INSEG    CODE           ?PR?UART2_ISR?ISR
FF6B38H   FF6B55H   00001EH   BYTE   INSEG    CODE           ?PR?UART3_ISR?ISR
FF6B56H   FF6B6FH   00001AH   BYTE   INSEG    CODE           ?PR?WIRELESS_UART_CALLBACK?SEEKFREE_WIRELESS
FF6B70H   FF6B89H   00001AH   BYTE   INSEG    CODE           ?PR?WIRELESS_CH573_CALLBACK?SEEKFREE_WIRELESS_CH573
FF6B8AH   FF6BA3H   00001AH   BYTE   INSEG    CODE           ?PR?IMU660RA_WRITE_REGISTER?SEEKFREE_IMU660RA
FF6BA4H   FF6BBDH   00001AH   BYTE   INSEG    CODE           ?PR?MAIN?MAIN
FF6BBEH   FF6BD6H   000019H   BYTE   INSEG    CODE           ?PR?DUTY_LIMIT?MOTOR
FF6BD7H   FF6BEDH   000017H   BYTE   INSEG    CODE           ?PR?ENCODER_GET?MOTOR
FF6BEEH   FF6BFFH   000012H   BYTE   INSEG    CODE           ?PR?PUTCHAR?BOARD
FF6C00H   FF6C07H   000008H   BYTE   INSEG    CODE           ?PR?INT2_ISR?ISR
FF6C08H   FF6C0FH   000008H   BYTE   INSEG    CODE           ?PR?INT3_ISR?ISR
FF6C10H   FF6C17H   000008H   BYTE   INSEG    CODE           ?PR?INT4_ISR?ISR
FF6C18H   FF6C1FH   000008H   BYTE   INSEG    CODE           ?PR?TM2_ISR?ISR
FF6C20H   FF6C27H   000008H   BYTE   INSEG    CODE           ?PR?TM3_ISR?ISR
FF6C28H   FF6C2FH   000008H   BYTE   INSEG    CODE           ?PR?TM4_ISR?ISR

* * * * * * * * *   R E M O V E D     S E G M E N T S   * * * * * * * *
   *DEL*:           000004H   BYTE   INSEG    CODE           ?PR?DISABLEGLOBALIRQ?BOARD
   *DEL*:           000033H   BYTE   INSEG    CODE           ?PR?DELAY_US?ZF_DELAY
   *DEL*:           000020H   BYTE   INSEG    CODE           ?PR?IAP_SET_TPS?ZF_EEPROM
   *DEL*:           000018H   BYTE   INSEG    CODE           ?PR?EEPROM_TRIG?ZF_EEPROM
   *DEL*:           00001CH   BYTE   INSEG    CODE           ?PR?IAP_ERASE_PAGE?ZF_EEPROM
   *DEL*:           000004H   BYTE   INSEG    CODE           ?PR?IAP_IDLE?ZF_EEPROM
   *DEL*:           000060H   BYTE   INSEG    CODE           ?PR?IAP_READ_BYTES?ZF_EEPROM
   *DEL*:           0000B4H   BYTE   INSEG    CODE           ?PR?EXTERN_IAP_WRITE_BYTES?ZF_EEPROM
   *DEL*:           000007H   BYTE   INSEG    CODE           ?PR?IAP_INIT?ZF_EEPROM
   *DEL*:           00005CH   BYTE   INSEG    CODE           ?PR?IAP_WRITE_BYTES?ZF_EEPROM
   *DEL*:           000012H   BYTE   INSEG    CODE           ?PR?IAP_GET_CMD_STATE?ZF_EEPROM
   *DEL*:           000066H   BYTE   INSEG    CODE           ?PR?EXIT_INIT?ZF_EXTI
   *DEL*:           000095H   BYTE   INSEG    CODE           ?PR?GPIO_PULL_SET?ZF_GPIO
   *DEL*:           000028H   BYTE   INSEG    CODE           ?PR?SEND_DATA?ZF_IIC
   *DEL*:           000037H   BYTE   INSEG    CODE           ?PR?IIC_CHANGE_PIN?ZF_IIC
   *DEL*:           00001CH   BYTE   INSEG    CODE           ?PR?RECV_DATA?ZF_IIC
   *DEL*:           000015H   BYTE   INSEG    CODE           ?PR?START?ZF_IIC
   *DEL*:           000057H   BYTE   INSEG    CODE           ?PR?WAIT?ZF_IIC
   *DEL*:           000021H   BYTE   INSEG    CODE           ?PR?SEND_ACK?ZF_IIC
   *DEL*:           000015H   BYTE   INSEG    CODE           ?PR?RECV_ACK?ZF_IIC
   *DEL*:           000015H   BYTE   INSEG    CODE           ?PR?STOP?ZF_IIC
   *DEL*:           00001EH   BYTE   INSEG    CODE           ?PR?SEND_NAK?ZF_IIC
   *DEL*:           00007AH   BYTE   INSEG    CODE           ?PR?IIC_INIT?ZF_IIC
   *DEL*:           000099H   BYTE   INSEG    CODE           ?PR?IIC_READ_REG?ZF_IIC
L251 LINKER/LOCATER V4.66.93.0                                                        11/25/2023  21:38:42  PAGE 10


   *DEL*:           0000D4H   BYTE   INSEG    CODE           ?PR?IIC_READ_REG_BYTES?ZF_IIC
   *DEL*:           00007CH   BYTE   INSEG    CODE           ?PR?IIC_WRITE_REG?ZF_IIC
   *DEL*:           000035H   BYTE   INSEG    CODE           ?PR?IIC_DELAY_US?ZF_IIC
   *DEL*:           0000B9H   BYTE   INSEG    CODE           ?PR?NVIC_SETPRIORITY?ZF_NVIC
   *DEL*:           0001ABH   BYTE   INSEG    CODE           ?PR?PWM_FREQ?ZF_PWM
   *DEL*:           000026H   BYTE   INSEG    CODE           ?PR?SPI_CHANGE_MODE?ZF_SPI
   *DEL*:           0000CCH   BYTE   INSEG    CODE           ?PR?SPI_CHANGE_PIN?ZF_SPI
   *DEL*:           0000F5H   BYTE   INSEG    CODE           ?PR?SPI_INIT?ZF_SPI
   *DEL*:           000012H   BYTE   INSEG    CODE           ?PR?SPI_MOSI?ZF_SPI
   *DEL*:           000039H   BYTE   INSEG    CODE           ?PR?UART_PUTBUFF?ZF_UART
   *DEL*:           00002BH   BYTE   INSEG    CODE           ?PR?UART_PUTSTR?ZF_UART
   *DEL*:           000183H   BYTE   INSEG    CODE           ?PR?FIFO_READ_BUFFER?ZF_FIFO
   *DEL*:           000043H   BYTE   INSEG    CODE           ?PR?FIFO_CLEAR?ZF_FIFO
   *DEL*:           000070H   BYTE   INSEG    CODE           ?PR?FIFO_END_OFFSET?ZF_FIFO
   *DEL*:           000025H   BYTE   INSEG    CODE           ?PR?FIFO_USED?ZF_FIFO
   *DEL*:           0000CDH   BYTE   INSEG    CODE           ?PR?LCD_SHOWUINT16?SEEKFREE_18TFT
   *DEL*:           0000CEH   BYTE   INSEG    CODE           ?PR?LCD_SHOWINT32_SIMSPI?SEEKFREE_18TFT
   *DEL*:           0000CEH   BYTE   INSEG    CODE           ?PR?LCD_SHOWINT32?SEEKFREE_18TFT
   *DEL*:           000119H   BYTE   INSEG    CODE           ?PR?LCD_SHOWINT16?SEEKFREE_18TFT
   *DEL*:           000057H   BYTE   INSEG    CODE           ?PR?LCD_CLEAR?SEEKFREE_18TFT
   *DEL*:           00005DH   BYTE   INSEG    CODE           ?PR?LCD_SHOWSTR?SEEKFREE_18TFT
   *DEL*:           000015H   BYTE   INSEG    CODE           ?PR?LCD_WRITEINDEX?SEEKFREE_18TFT
   *DEL*:           000015H   BYTE   INSEG    CODE           ?PR?LCD_WRITEDATA?SEEKFREE_18TFT
   *DEL*:           0000ECH   BYTE   INSEG    CODE           ?PR?SHOWIMAGE?SEEKFREE_18TFT
   *DEL*:           000064H   BYTE   INSEG    CODE           ?PR?LCD_SET_REGION?SEEKFREE_18TFT
   *DEL*:           0001F3H   BYTE   INSEG    CODE           ?PR?LCD_INIT?SEEKFREE_18TFT
   *DEL*:           0000A9H   BYTE   INSEG    CODE           ?PR?LCD_SHOWUINT8_SIMSPI?SEEKFREE_18TFT
   *DEL*:           0000A9H   BYTE   INSEG    CODE           ?PR?LCD_SHOWUINT8?SEEKFREE_18TFT
   *DEL*:           0000EBH   BYTE   INSEG    CODE           ?PR?LCD_SHOWINT8_SIMSPI?SEEKFREE_18TFT
   *DEL*:           0000EBH   BYTE   INSEG    CODE           ?PR?LCD_SHOWINT8?SEEKFREE_18TFT
   *DEL*:           00002AH   BYTE   INSEG    CODE           ?PR?LCD_WRITEDATA_16BIT?SEEKFREE_18TFT
   *DEL*:           000145H   BYTE   INSEG    CODE           ?PR?LCD_SHOWFLOAT_SIMSPI?SEEKFREE_18TFT
   *DEL*:           000023H   BYTE   INSEG    CODE           ?PR?LCD_DRAWPOINT_SIMSPI?SEEKFREE_18TFT
   *DEL*:           000145H   BYTE   INSEG    CODE           ?PR?LCD_SHOWFLOAT?SEEKFREE_18TFT
   *DEL*:           000023H   BYTE   INSEG    CODE           ?PR?LCD_DRAWPOINT?SEEKFREE_18TFT
   *DEL*:           0000BFH   BYTE   INSEG    CODE           ?PR?LCD_SHOWCHAR?SEEKFREE_18TFT
   *DEL*:           0000CDH   BYTE   INSEG    CODE           ?PR?LCD_SHOWUINT16_SIMSPI?SEEKFREE_18TFT
   *DEL*:           000013H   BYTE   INSEG    CODE           ?PR?ENCODER_SELF4_CHECK?SEEKFREE_ABSOLUTE_ENCODER
   *DEL*:           000013H   BYTE   INSEG    CODE           ?PR?ENCODER_SELF5_CHECK?SEEKFREE_ABSOLUTE_ENCODER
   *DEL*:           000042H   BYTE   INSEG    CODE           ?PR?ENCODER_SPI_R_REG_BYTE?SEEKFREE_ABSOLUTE_ENCODER
   *DEL*:           00000AH   BYTE   INSEG    CODE           ?PR?ENCODER_DELAY_US?SEEKFREE_ABSOLUTE_ENCODER
   *DEL*:           000053H   BYTE   INSEG    CODE           ?PR?ENCODER_SPI_W_REG_BYTE?SEEKFREE_ABSOLUTE_ENCODER
   *DEL*:           00002DH   BYTE   INSEG    CODE           ?PR?SIMSPI_R_REG_BYTE?SEEKFREE_ABSOLUTE_ENCODER
   *DEL*:           000029H   BYTE   INSEG    CODE           ?PR?SIMSPI_W_REG_BYTE?SEEKFREE_ABSOLUTE_ENCODER
   *DEL*:           000030H   BYTE   INSEG    CODE           ?PR?ENCODER_INIT_SPI?SEEKFREE_ABSOLUTE_ENCODER
   *DEL*:           00000CH   BYTE   INSEG    CODE           ?PR?SPI_WR_BYTE?SEEKFREE_ABSOLUTE_ENCODER
   *DEL*:           000032H   BYTE   INSEG    CODE           ?PR?SET_ZERO_POSITION_SIMSPI?SEEKFREE_ABSOLUTE_ENCODER
   *DEL*:           000035H   BYTE   INSEG    CODE           ?PR?ENCODER_ANGLE_SIMSPI?SEEKFREE_ABSOLUTE_ENCODER
   *DEL*:           00002DH   BYTE   INSEG    CODE           ?PR?SPI_R_REG_BYTE?SEEKFREE_ABSOLUTE_ENCODER
   *DEL*:           000029H   BYTE   INSEG    CODE           ?PR?SPI_W_REG_BYTE?SEEKFREE_ABSOLUTE_ENCODER
   *DEL*:           000042H   BYTE   INSEG    CODE           ?PR?ENCODER_SIMSPI_R_REG_BYTE?SEEKFREE_ABSOLUTE_ENCODER
   *DEL*:           000053H   BYTE   INSEG    CODE           ?PR?ENCODER_SIMSPI_W_REG_BYTE?SEEKFREE_ABSOLUTE_ENCODER
   *DEL*:           000010H   BYTE   INSEG    CODE           ?PR?ENCODER_INIT_SIMSPI?SEEKFREE_ABSOLUTE_ENCODER
   *DEL*:           000032H   BYTE   INSEG    CODE           ?PR?SET_ZERO_POSITION_SPI?SEEKFREE_ABSOLUTE_ENCODER
   *DEL*:           000053H   BYTE   INSEG    CODE           ?PR?SIMSPI_WR_BYTE?SEEKFREE_ABSOLUTE_ENCODER
   *DEL*:           000035H   BYTE   INSEG    CODE           ?PR?ENCODER_ANGLE_SPI?SEEKFREE_ABSOLUTE_ENCODER
   *DEL*:           00003BH   BYTE   INSEG    CODE           ?PR?AT24C02_SIMIIC_READ_REG?SEEKFREE_AT24C02
   *DEL*:           000081H   BYTE   INSEG    CODE           ?PR?AT24C02_READ_BYTES?SEEKFREE_AT24C02
   *DEL*:           000016H   BYTE   INSEG    CODE           ?PR?AT24C02_SIMIIC_STOP?SEEKFREE_AT24C02
   *DEL*:           00002AH   BYTE   INSEG    CODE           ?PR?AT24C02_SIMIIC_WRITE_REG?SEEKFREE_AT24C02
   *DEL*:           000015H   BYTE   INSEG    CODE           ?PR?AT24C02_READ_BYTE?SEEKFREE_AT24C02
   *DEL*:           000092H   BYTE   INSEG    CODE           ?PR?AT24C02_WRITE_BYTES?SEEKFREE_AT24C02
   *DEL*:           000028H   BYTE   INSEG    CODE           ?PR?AT24C02_SIMIIC_SENDACK?SEEKFREE_AT24C02
   *DEL*:           00001DH   BYTE   INSEG    CODE           ?PR?AT24C02_WRITE_BYTE?SEEKFREE_AT24C02
   *DEL*:           00006AH   BYTE   INSEG    CODE           ?PR?AT24C02_READ_CH?SEEKFREE_AT24C02
L251 LINKER/LOCATER V4.66.93.0                                                        11/25/2023  21:38:42  PAGE 11


   *DEL*:           000049H   BYTE   INSEG    CODE           ?PR?AT24C02_SEND_CH?SEEKFREE_AT24C02
   *DEL*:           000021H   BYTE   INSEG    CODE           ?PR?AT24C02_SCCB_WAITACK?SEEKFREE_AT24C02
   *DEL*:           00001FH   BYTE   INSEG    CODE           ?PR?AT24C02_SIMIIC_DELAY?SEEKFREE_AT24C02
   *DEL*:           000013H   BYTE   INSEG    CODE           ?PR?AT24C02_SIMIIC_START?SEEKFREE_AT24C02
   *DEL*:           00002EH   BYTE   INSEG    CODE           ?PR?BLUETOOTH_CH9141_READ_BUFF?SEEKFREE_BLUETOOTH_CH9141
   *DEL*:           0000CCH   BYTE   INSEG    CODE           ?PR?BLUETOOTH_CH9141_SEND_BUFF?SEEKFREE_BLUETOOTH_CH9141
   *DEL*:           00003CH   BYTE   INSEG    CODE           ?PR?BLUETOOTH_CH9141_INIT?SEEKFREE_BLUETOOTH_CH9141
   *DEL*:           000028H   BYTE   INSEG    CODE           ?PR?DL1A_SIMIIC_SENDACK?SEEKFREE_DL1A
   *DEL*:           000051H   BYTE   INSEG    CODE           ?PR?DL1A_TIMEOUT_MICROSECONDS_TO_MCLKS?SEEKFREE_DL1A
   *DEL*:           000053H   BYTE   INSEG    CODE           ?PR?DL1A_TIMEOUT_MCLKS_TO_MICROSECONDS?SEEKFREE_DL1A
   *DEL*:           00003EH   BYTE   INSEG    CODE           ?PR?DL1A_SET_SIGNAL_RATE_LIMIT?SEEKFREE_DL1A
   *DEL*:           00006AH   BYTE   INSEG    CODE           ?PR?DL1A_READ_CH?SEEKFREE_DL1A
   *DEL*:           00002AH   BYTE   INSEG    CODE           ?PR?DL1A_DECODE_TIMEOUT?SEEKFREE_DL1A
   *DEL*:           000049H   BYTE   INSEG    CODE           ?PR?DL1A_SEND_CH?SEEKFREE_DL1A
   *DEL*:           000195H   BYTE   INSEG    CODE           ?PR?DL1A_GET_SPAD_INFO?SEEKFREE_DL1A
   *DEL*:           00007FH   BYTE   INSEG    CODE           ?PR?DL1A_ENCODE_TIMEOUT?SEEKFREE_DL1A
   *DEL*:           00008EH   BYTE   INSEG    CODE           ?PR?DL1A_GET_SEQUENCE_STEP_ENABLES?SEEKFREE_DL1A
   *DEL*:           000021H   BYTE   INSEG    CODE           ?PR?DL1A_SCCB_WAITACK?SEEKFREE_DL1A
   *DEL*:           00006CH   BYTE   INSEG    CODE           ?PR?DL1A_GET_DISTANCE?SEEKFREE_DL1A
   *DEL*:           00001FH   BYTE   INSEG    CODE           ?PR?DL1A_SIMIIC_DELAY?SEEKFREE_DL1A
   *DEL*:           0000ABH   BYTE   INSEG    CODE           ?PR?DL1A_PERFORM_SINGLE_REF_CALIBRATION?SEEKFREE_DL1A
   *DEL*:           000169H   BYTE   INSEG    CODE           ?PR?DL1A_GET_SEQUENCE_STEP_TIMEOUTS?SEEKFREE_DL1A
   *DEL*:           000013H   BYTE   INSEG    CODE           ?PR?DL1A_SIMIIC_START?SEEKFREE_DL1A
   *DEL*:           000068H   BYTE   INSEG    CODE           ?PR?DL1A_SIMIIC_READ_REGS?SEEKFREE_DL1A
   *DEL*:           0000B6H   BYTE   INSEG    CODE           ?PR?DL1A_GET_MEASUREMENT_TIMING_BUDGET?SEEKFREE_DL1A
   *DEL*:           000042H   BYTE   INSEG    CODE           ?PR?DL1A_SIMIIC_WRITE_DATS?SEEKFREE_DL1A
   *DEL*:           00003BH   BYTE   INSEG    CODE           ?PR?DL1A_SIMIIC_READ_REG?SEEKFREE_DL1A
   *DEL*:           000068H   BYTE   INSEG    CODE           ?PR?DL1A_SIMIIC_READ_REGS_1?SEEKFREE_DL1A
   *DEL*:           000149H   BYTE   INSEG    CODE           ?PR?DL1A_SET_MEASUREMENT_TIMING_BUDGET?SEEKFREE_DL1A
   *DEL*:           000016H   BYTE   INSEG    CODE           ?PR?DL1A_SIMIIC_STOP?SEEKFREE_DL1A
   *DEL*:           00002AH   BYTE   INSEG    CODE           ?PR?DL1A_SIMIIC_WRITE_REG?SEEKFREE_DL1A
   *DEL*:           0006AEH   BYTE   INSEG    CODE           ?PR?DL1A_INIT?SEEKFREE_DL1A
   *DEL*:           00007AH   BYTE   INSEG    CODE           ?PR?DL1A_GET_VCSEL_PULSE_PERIOD?SEEKFREE_DL1A
   *DEL*:           00001EH   BYTE   INSEG    CODE           ?PR?ICM20602_READ_REGISTER?SEEKFREE_ICM20602
   *DEL*:           00008DH   BYTE   INSEG    CODE           ?PR?ICM20602_GYRO_TRANSITION?SEEKFREE_ICM20602
   *DEL*:           00001AH   BYTE   INSEG    CODE           ?PR?ICM20602_WRITE_REGISTER?SEEKFREE_ICM20602
   *DEL*:           000059H   BYTE   INSEG    CODE           ?PR?ICM20602_SIMSPI_WR_BYTE?SEEKFREE_ICM20602
   *DEL*:           00004EH   BYTE   INSEG    CODE           ?PR?ICM20602_SELF_CHECK?SEEKFREE_ICM20602
   *DEL*:           000051H   BYTE   INSEG    CODE           ?PR?ICM20602_SIMSPI_R_REG_BYTES?SEEKFREE_ICM20602
   *DEL*:           000027H   BYTE   INSEG    CODE           ?PR?ICM20602_SIMSPI_R_REG_BYTE?SEEKFREE_ICM20602
   *DEL*:           00001BH   BYTE   INSEG    CODE           ?PR?ICM20602_SIMSPI_W_REG_BYTE?SEEKFREE_ICM20602
   *DEL*:           0000C2H   BYTE   INSEG    CODE           ?PR?ICM20602_INIT?SEEKFREE_ICM20602
   *DEL*:           000050H   BYTE   INSEG    CODE           ?PR?ICM20602_GET_ACC?SEEKFREE_ICM20602
   *DEL*:           000089H   BYTE   INSEG    CODE           ?PR?ICM20602_ACC_TRANSITION?SEEKFREE_ICM20602
   *DEL*:           000026H   BYTE   INSEG    CODE           ?PR?ICM20602_READ_REGISTERS?SEEKFREE_ICM20602
   *DEL*:           000050H   BYTE   INSEG    CODE           ?PR?ICM20602_GET_GYRO?SEEKFREE_ICM20602
   *DEL*:           0000A9H   BYTE   INSEG    CODE           ?PR?IPS114_SHOWUINT8_SIMSPI?SEEKFREE_IPS114_SPI
   *DEL*:           0000A5H   BYTE   INSEG    CODE           ?PR?IPS114_SHOWUINT8?SEEKFREE_IPS114_SPI
   *DEL*:           0000EBH   BYTE   INSEG    CODE           ?PR?IPS114_SHOWINT8_SIMSPI?SEEKFREE_IPS114_SPI
   *DEL*:           0000E7H   BYTE   INSEG    CODE           ?PR?IPS114_SHOWINT8?SEEKFREE_IPS114_SPI
   *DEL*:           00002AH   BYTE   INSEG    CODE           ?PR?IPS114_WRITEDATA_16BIT?SEEKFREE_IPS114_SPI
   *DEL*:           000145H   BYTE   INSEG    CODE           ?PR?IPS114_SHOWFLOAT_SIMSPI?SEEKFREE_IPS114_SPI
   *DEL*:           000023H   BYTE   INSEG    CODE           ?PR?IPS114_DRAWPOINT_SIMSPI?SEEKFREE_IPS114_SPI
   *DEL*:           000145H   BYTE   INSEG    CODE           ?PR?IPS114_SHOWFLOAT?SEEKFREE_IPS114_SPI
   *DEL*:           000023H   BYTE   INSEG    CODE           ?PR?IPS114_DRAWPOINT?SEEKFREE_IPS114_SPI
   *DEL*:           0000BFH   BYTE   INSEG    CODE           ?PR?IPS114_SHOWCHAR_SIMSPI?SEEKFREE_IPS114_SPI
   *DEL*:           0000BFH   BYTE   INSEG    CODE           ?PR?IPS114_SHOWCHAR?SEEKFREE_IPS114_SPI
   *DEL*:           0000CDH   BYTE   INSEG    CODE           ?PR?IPS114_SHOWUINT16_SIMSPI?SEEKFREE_IPS114_SPI
   *DEL*:           0000CDH   BYTE   INSEG    CODE           ?PR?IPS114_SHOWUINT16?SEEKFREE_IPS114_SPI
   *DEL*:           0000CEH   BYTE   INSEG    CODE           ?PR?IPS114_SHOWINT32_SIMSPI?SEEKFREE_IPS114_SPI
   *DEL*:           000119H   BYTE   INSEG    CODE           ?PR?IPS114_SHOWINT16_SIMSPI?SEEKFREE_IPS114_SPI
   *DEL*:           0000CEH   BYTE   INSEG    CODE           ?PR?IPS114_SHOWINT32?SEEKFREE_IPS114_SPI
   *DEL*:           000115H   BYTE   INSEG    CODE           ?PR?IPS114_SHOWINT16?SEEKFREE_IPS114_SPI
   *DEL*:           00005FH   BYTE   INSEG    CODE           ?PR?IPS114_CLEAR_SIMSPI?SEEKFREE_IPS114_SPI
   *DEL*:           00005FH   BYTE   INSEG    CODE           ?PR?IPS114_CLEAR?SEEKFREE_IPS114_SPI
L251 LINKER/LOCATER V4.66.93.0                                                        11/25/2023  21:38:42  PAGE 12


   *DEL*:           000055H   BYTE   INSEG    CODE           ?PR?IPS114_WRITEDATAI_16BIT_SIMSPI?SEEKFREE_IPS114_SPI
   *DEL*:           00005DH   BYTE   INSEG    CODE           ?PR?IPS114_SHOWSTR_SIMSPI?SEEKFREE_IPS114_SPI
   *DEL*:           00005DH   BYTE   INSEG    CODE           ?PR?IPS114_SHOWSTR?SEEKFREE_IPS114_SPI
   *DEL*:           00004CH   BYTE   INSEG    CODE           ?PR?IPS114_WRITEINDEX_SIMSPI?SEEKFREE_IPS114_SPI
   *DEL*:           00004CH   BYTE   INSEG    CODE           ?PR?IPS114_WRITEDATA_SIMSPI?SEEKFREE_IPS114_SPI
   *DEL*:           000015H   BYTE   INSEG    CODE           ?PR?IPS114_WRITEINDEX?SEEKFREE_IPS114_SPI
   *DEL*:           000015H   BYTE   INSEG    CODE           ?PR?IPS114_WRITEDATA?SEEKFREE_IPS114_SPI
   *DEL*:           000054H   BYTE   INSEG    CODE           ?PR?IPS114_SET_REGION_SIMSPI?SEEKFREE_IPS114_SPI
   *DEL*:           000154H   BYTE   INSEG    CODE           ?PR?IPS114_INIT_SIMSPI?SEEKFREE_IPS114_SPI
   *DEL*:           000054H   BYTE   INSEG    CODE           ?PR?IPS114_SET_REGION?SEEKFREE_IPS114_SPI
   *DEL*:           000174H   BYTE   INSEG    CODE           ?PR?IPS114_INIT?SEEKFREE_IPS114_SPI
   *DEL*:           000013H   BYTE   INSEG    CODE           ?PR?MPU6050_SIMIIC_START?SEEKFREE_MPU6050
   *DEL*:           00006CH   BYTE   INSEG    CODE           ?PR?MPU6050_SIMIIC_READ_REGS?SEEKFREE_MPU6050
   *DEL*:           00003BH   BYTE   INSEG    CODE           ?PR?MPU6050_SIMIIC_READ_REG?SEEKFREE_MPU6050
   *DEL*:           000016H   BYTE   INSEG    CODE           ?PR?MPU6050_SIMIIC_STOP?SEEKFREE_MPU6050
   *DEL*:           00002AH   BYTE   INSEG    CODE           ?PR?MPU6050_SIMIIC_WRITE_REG?SEEKFREE_MPU6050
   *DEL*:           000060H   BYTE   INSEG    CODE           ?PR?MPU6050_INIT?SEEKFREE_MPU6050
   *DEL*:           000033H   BYTE   INSEG    CODE           ?PR?MPU6050_SELF1_CHECK?SEEKFREE_MPU6050
   *DEL*:           000028H   BYTE   INSEG    CODE           ?PR?MPU6050_SIMIIC_SENDACK?SEEKFREE_MPU6050
   *DEL*:           00006AH   BYTE   INSEG    CODE           ?PR?MPU6050_READ_CH?SEEKFREE_MPU6050
   *DEL*:           000049H   BYTE   INSEG    CODE           ?PR?MPU6050_SEND_CH?SEEKFREE_MPU6050
   *DEL*:           000052H   BYTE   INSEG    CODE           ?PR?MPU6050_GET_GYRO?SEEKFREE_MPU6050
   *DEL*:           000021H   BYTE   INSEG    CODE           ?PR?MPU6050_SCCB_WAITACK?SEEKFREE_MPU6050
   *DEL*:           000052H   BYTE   INSEG    CODE           ?PR?MPU6050_GET_ACCDATA?SEEKFREE_MPU6050
   *DEL*:           00001DH   BYTE   INSEG    CODE           ?PR?MPU6050_SIMIIC_DELAY?SEEKFREE_MPU6050
   *DEL*:           000047H   BYTE   INSEG    CODE           ?PR?OLED_PUTPIXEL?SEEKFREE_OLED
   *DEL*:           00006FH   BYTE   INSEG    CODE           ?PR?OLED_HEXASCII_SPI?SEEKFREE_OLED
   *DEL*:           000035H   BYTE   INSEG    CODE           ?PR?OLED_SET_POS?SEEKFREE_OLED
   *DEL*:           00044DH   BYTE   INSEG    CODE           ?PR?OLED_DIS_BMP_SPI?SEEKFREE_OLED
   *DEL*:           000145H   BYTE   INSEG    CODE           ?PR?OLED_PRINTF_FLOAT?SEEKFREE_OLED
   *DEL*:           000121H   BYTE   INSEG    CODE           ?PR?OLED_P8X16STR_SPI?SEEKFREE_OLED
   *DEL*:           000041H   BYTE   INSEG    CODE           ?PR?OLED_CLRPIXEL_SPI?SEEKFREE_OLED
   *DEL*:           00004CH   BYTE   INSEG    CODE           ?PR?OLED_WRCMD?SEEKFREE_OLED
   *DEL*:           0000C0H   BYTE   INSEG    CODE           ?PR?OLED_PRINT_CHINESE_SPI?SEEKFREE_OLED
   *DEL*:           00004CH   BYTE   INSEG    CODE           ?PR?OLED_WRDAT?SEEKFREE_OLED
   *DEL*:           00005DH   BYTE   INSEG    CODE           ?PR?OLED_FILL?SEEKFREE_OLED
   *DEL*:           0000CEH   BYTE   INSEG    CODE           ?PR?OLED_PRINTF_INT32?SEEKFREE_OLED
   *DEL*:           000027H   BYTE   INSEG    CODE           ?PR?OLED_UINT16?SEEKFREE_OLED
   *DEL*:           000048H   BYTE   INSEG    CODE           ?PR?OLED_PUTPIXEL_SPI?SEEKFREE_OLED
   *DEL*:           000036H   BYTE   INSEG    CODE           ?PR?OLED_SET_POS_SPI?SEEKFREE_OLED
   *DEL*:           0000D1H   BYTE   INSEG    CODE           ?PR?OLED_P6X8STR?SEEKFREE_OLED
   *DEL*:           000073H   BYTE   INSEG    CODE           ?PR?OLED_INT16?SEEKFREE_OLED
   *DEL*:           0000A8H   BYTE   INSEG    CODE           ?PR?OLED_INIT?SEEKFREE_OLED
   *DEL*:           000145H   BYTE   INSEG    CODE           ?PR?OLED_PRINTF_FLOAT_SPI?SEEKFREE_OLED
   *DEL*:           000015H   BYTE   INSEG    CODE           ?PR?OLED_WRCMD_SPI?SEEKFREE_OLED
   *DEL*:           000015H   BYTE   INSEG    CODE           ?PR?OLED_WRDAT_SPI?SEEKFREE_OLED
   *DEL*:           00006FH   BYTE   INSEG    CODE           ?PR?OLED_HEXASCII?SEEKFREE_OLED
   *DEL*:           00005DH   BYTE   INSEG    CODE           ?PR?OLED_FILL_SPI?SEEKFREE_OLED
   *DEL*:           0000CEH   BYTE   INSEG    CODE           ?PR?OLED_PRINTF_INT32_SPI?SEEKFREE_OLED
   *DEL*:           000027H   BYTE   INSEG    CODE           ?PR?OLED_UINT16_SPI?SEEKFREE_OLED
   *DEL*:           0000D1H   BYTE   INSEG    CODE           ?PR?OLED_P6X8STR_SPI?SEEKFREE_OLED
   *DEL*:           000073H   BYTE   INSEG    CODE           ?PR?OLED_INT16_SPI?SEEKFREE_OLED
   *DEL*:           00046AH   BYTE   INSEG    CODE           ?PR?OLED_DIS_BMP?SEEKFREE_OLED
   *DEL*:           0000C5H   BYTE   INSEG    CODE           ?PR?OLED_INIT_SPI?SEEKFREE_OLED
   *DEL*:           000121H   BYTE   INSEG    CODE           ?PR?OLED_P8X16STR?SEEKFREE_OLED
   *DEL*:           000040H   BYTE   INSEG    CODE           ?PR?OLED_CLRPIXEL?SEEKFREE_OLED
   *DEL*:           0000C0H   BYTE   INSEG    CODE           ?PR?OLED_PRINT_CHINESE?SEEKFREE_OLED
   *DEL*:           000117H   BYTE   INSEG    CODE           ?PR?NUMBER_CONVERSION_ASCII?SEEKFREE_PRINTF
   *DEL*:           000651H   BYTE   INSEG    CODE           ?PR?ZF_SPRINTF?SEEKFREE_PRINTF
   *DEL*:           000095H   BYTE   INSEG    CODE           ?PR?PRINTF_REVERSE_ORDER?SEEKFREE_PRINTF
   *DEL*:           00008AH   BYTE   INSEG    CODE           ?PR?CCD_SEND_DATA?SEEKFREE_TSL1401
   *DEL*:           000017H   BYTE   INSEG    CODE           ?PR?CCD_INIT?SEEKFREE_TSL1401
   *DEL*:           00005FH   BYTE   INSEG    CODE           ?PR?CCD_COLLECT?SEEKFREE_TSL1401
   *DEL*:           00009AH   BYTE   INSEG    CODE           ?PR?CRC_CHECK?SEEKFREE_VIRSCO
   *DEL*:           0000DCH   BYTE   INSEG    CODE           ?PR?DATA_CONVERSION?SEEKFREE_VIRSCO
L251 LINKER/LOCATER V4.66.93.0                                                        11/25/2023  21:38:42  PAGE 13


   *DEL*:           00002EH   BYTE   INSEG    CODE           ?PR?WIRELESS_UART_READ_BUFF?SEEKFREE_WIRELESS
   *DEL*:           000073H   BYTE   INSEG    CODE           ?PR?WIRELESS_UART_SEND_BUFF?SEEKFREE_WIRELESS
   *DEL*:           00002EH   BYTE   INSEG    CODE           ?PR?WIRELESS_CH573_READ_BUFF?SEEKFREE_WIRELESS_CH573
   *DEL*:           000073H   BYTE   INSEG    CODE           ?PR?WIRELESS_CH573_SEND_BUFF?SEEKFREE_WIRELESS_CH573
   *DEL*:           00003EH   BYTE   INSEG    CODE           ?PR?WIRELESS_CH573_INIT?SEEKFREE_WIRELESS_CH573
   *DEL*:           000050H   BYTE   INSEG    CODE           ?PR?IMU660RA_GET_ACC?SEEKFREE_IMU660RA
   *DEL*:           00007CH   BYTE   INSEG    CODE           ?PR?IMU660RA_ACC_TRANSITION?SEEKFREE_IMU660RA
   *DEL*:           000192H   BYTE   INSEG    CODE           ?PR?ADC_MEAN_FILTER_CONVERT?ELECTRONIC
   *DEL*:           00001AH   BYTE   INSEG    CODE           ?PR?MEMSET?_?MEMSET



OVERLAY MAP OF MODULE:   .\Out_File\SEEKFREE (board)


FUNCTION/MODULE                               EDATA_GROUP
--> CALLED FUNCTION/MODULE                    START  STOP
=========================================================
UART1_Isr/isr                                 ----- -----

*** NEW ROOT ********************************

UART2_Isr/isr                                 ----- -----

*** NEW ROOT ********************************

UART3_Isr/isr                                 ----- -----

*** NEW ROOT ********************************

UART4_Isr/isr                                 ----- -----
  +--> wireless_uart_callback/SEEKFREE_WIRELESS
  +--> bluetooth_ch9141_uart_callback/SEEKFREE_BLUETOOTH_CH9141
  +--> wireless_ch573_callback/SEEKFREE_WIRELESS_CH573

wireless_uart_callback/SEEKFREE_WIRELESS      ----- -----
  +--> fifo_write_buffer/zf_fifo

fifo_write_buffer/zf_fifo                     ----- -----
  +--> memcpy?_/memcpy
  +--> fifo_head_offset/zf_fifo

memcpy?_/memcpy                               ----- -----

fifo_head_offset/zf_fifo                      ----- -----

bluetooth_ch9141_uart_callback/SEEKFREE_+     ----- -----
... BLUETOOTH_CH9141
  +--> fifo_write_buffer/zf_fifo

wireless_ch573_callback/SEEKFREE_WIRELES+     ----- -----
... S_CH573
  +--> fifo_write_buffer/zf_fifo

*** NEW ROOT ********************************

INT0_Isr/isr                                  ----- -----

*** NEW ROOT ********************************

INT1_Isr/isr                                  ----- -----

*** NEW ROOT ********************************

INT2_Isr/isr                                  ----- -----
L251 LINKER/LOCATER V4.66.93.0                                                        11/25/2023  21:38:42  PAGE 14



*** NEW ROOT ********************************

INT3_Isr/isr                                  ----- -----

*** NEW ROOT ********************************

INT4_Isr/isr                                  ----- -----

*** NEW ROOT ********************************

TM0_Isr/isr                                   ----- -----

*** NEW ROOT ********************************

TM1_Isr/isr                                   ----- -----
  +--> Encoder_cal/bal
  +--> InductorNormal/electronic
  +--> Bal_control/bal
  +--> Motor_SpeedSet/motor

Encoder_cal/bal                               ----- -----
  +--> encoder_get/motor

encoder_get/motor                             ----- -----
  +--> ctimer_count_read/zf_tim
  +--> ctimer_count_clean/zf_tim

ctimer_count_read/zf_tim                      ----- -----

ctimer_count_clean/zf_tim                     ----- -----

InductorNormal/electronic                     ----- -----
  +--> adc_data_convert/electronic
  +--> adc_filter/electronic

adc_data_convert/electronic                   ----- -----
  +--> adc_once/zf_adc

adc_once/zf_adc                               ----- -----

adc_filter/electronic                         ----- -----

Bal_control/bal                               ----- -----
  +--> imu660ra_get_gyro/SEEKFREE_IMU660RA
  +--> imu660ra_gyro_transition/SEEKFREE_IMU660RA
  +--> PidIncCtrl/LQ_PID
  +--> PidLocCtrl/LQ_PID
  +--> velocity_control/bal

imu660ra_get_gyro/SEEKFREE_IMU660RA           ----- -----
  +--> imu660ra_read_registers/SEEKFREE_IMU660RA

imu660ra_read_registers/SEEKFREE_IMU660R+     ----- -----
... A
  +--> imu660ra_simspi_r_reg_bytes/SEEKFREE_IMU660RA

imu660ra_simspi_r_reg_bytes/SEEKFREE_IMU+     ----- -----
... 660RA
  +--> imu660ra_simspi_wr_byte/SEEKFREE_IMU660RA

imu660ra_simspi_wr_byte/SEEKFREE_IMU660R+     ----- -----
... A

imu660ra_gyro_transition/SEEKFREE_IMU660+     ----- -----
L251 LINKER/LOCATER V4.66.93.0                                                        11/25/2023  21:38:42  PAGE 15


... RA

PidIncCtrl/LQ_PID                             ----- -----

PidLocCtrl/LQ_PID                             ----- -----
  +--> constrain_float/LQ_PID

constrain_float/LQ_PID                        ----- -----

velocity_control/bal                          ----- -----
  +--> PidIncCtrl/LQ_PID
  +--> ctimer_count_clean/zf_tim

Motor_SpeedSet/motor                          ----- -----
  +--> Duty_Limit/motor
  +--> pwm_duty/zf_pwm

Duty_Limit/motor                              ----- -----

pwm_duty/zf_pwm                               ----- -----

*** NEW ROOT ********************************

TM2_Isr/isr                                   ----- -----

*** NEW ROOT ********************************

TM3_Isr/isr                                   ----- -----

*** NEW ROOT ********************************

TM4_Isr/isr                                   ----- -----

*** NEW ROOT ********************************

?C_C51STARTUP                                 ----- -----

*** NEW ROOT ********************************

?C_C51STARTUP?3                               ----- -----
  +--> main/main

main/main                                     ----- -----
  +--> board_init/board
  +--> All_init/all_init
  +--> pit_timer_ms/zf_tim
  +--> Tft_show/all_init
  +--> Tft_Printf/all_init

board_init/board                              ----- -----
  +--> set_clk/board
  +--> delay_init/zf_delay
  +--> uart_init/zf_uart
  +--> EnableGlobalIRQ/board

set_clk/board                                 ----- -----

delay_init/zf_delay                           ----- -----
  +--> ?C?SLDIV/?C?SLDIV

?C?SLDIV/?C?SLDIV                             ----- -----
  +--> ?C?ULIDIV/?C?ULDIV

?C?ULIDIV/?C?ULDIV                            ----- -----

L251 LINKER/LOCATER V4.66.93.0                                                        11/25/2023  21:38:42  PAGE 16


uart_init/zf_uart                             ----- -----
  +--> ?C?ULIDIV/?C?ULDIV

EnableGlobalIRQ/board                         ----- -----

All_init/all_init                             ----- -----
  +--> Motor_Init/motor
  +--> Encoder_init/motor
  +--> All_PID_Init/bal
  +--> ADC_6_road_init/electronic
  +--> lcd_init_simspi/SEEKFREE_18TFT
  +--> imu660ra_init/SEEKFREE_IMU660RA
  +--> wireless_uart_init/SEEKFREE_WIRELESS

Motor_Init/motor                              ----- -----
  +--> pwm_init/zf_pwm

pwm_init/zf_pwm                               ----- -----
  +--> pwm_set_gpio/zf_pwm
  +--> ?C?ULIDIV/?C?ULDIV

pwm_set_gpio/zf_pwm                           ----- -----
  +--> gpio_mode/zf_gpio

gpio_mode/zf_gpio                             ----- -----

Encoder_init/motor                            ----- -----
  +--> ctimer_count_clean/zf_tim
  +--> ctimer_count_init/zf_tim

ctimer_count_init/zf_tim                      ----- -----

All_PID_Init/bal                              ----- -----
  +--> PidInit/LQ_PID

PidInit/LQ_PID                                ----- -----

ADC_6_road_init/electronic                    ----- -----
  +--> adc_init/zf_adc

adc_init/zf_adc                               ----- -----

lcd_init_simspi/SEEKFREE_18TFT                ----- -----
  +--> delay_ms/zf_delay
  +--> lcd_writeIndex_simspi/SEEKFREE_18TFT
  +--> lcd_writeData_simspi/SEEKFREE_18TFT
  +--> lcd_clear_simspi/SEEKFREE_18TFT

delay_ms/zf_delay                             ----- -----

lcd_writeIndex_simspi/SEEKFREE_18TFT          ----- -----

lcd_writeData_simspi/SEEKFREE_18TFT           ----- -----

lcd_clear_simspi/SEEKFREE_18TFT               ----- -----
  +--> lcd_set_region_simspi/SEEKFREE_18TFT
  +--> lcd_writeData_16bit_simspi/SEEKFREE_18TFT

lcd_set_region_simspi/SEEKFREE_18TFT          ----- -----
  +--> lcd_writeIndex_simspi/SEEKFREE_18TFT
  +--> lcd_writeData_simspi/SEEKFREE_18TFT

lcd_writeData_16bit_simspi/SEEKFREE_18TF+     ----- -----
... T

L251 LINKER/LOCATER V4.66.93.0                                                        11/25/2023  21:38:42  PAGE 17


imu660ra_init/SEEKFREE_IMU660RA               ----- -----
  +--> delay_ms/zf_delay
  +--> imu660ra_self_check/SEEKFREE_IMU660RA
  +--> PRINTF/PRINTF
  +--> imu660ra_write_register/SEEKFREE_IMU660RA
  +--> imu660ra_write_registers/SEEKFREE_IMU660RA
  +--> imu660ra_read_register/SEEKFREE_IMU660RA

imu660ra_self_check/SEEKFREE_IMU660RA         ----- -----
  +--> imu660ra_read_register/SEEKFREE_IMU660RA
  +--> delay_ms/zf_delay

imu660ra_read_register/SEEKFREE_IMU660RA      ----- -----
  +--> imu660ra_simspi_r_reg_bytes/SEEKFREE_IMU660RA

PRINTF/PRINTF                                 08DAH 0901H
  +--> OUT/PRINTF

OUT/PRINTF                                    ----- -----
  +--> PUTCH/PRINTF

PUTCH/PRINTF                                  ----- -----
  +--> putchar/board
  +--> OUT/PRINTF

putchar/board                                 ----- -----
  +--> uart_putchar/zf_uart

uart_putchar/zf_uart                          ----- -----

imu660ra_write_register/SEEKFREE_IMU660R+     ----- -----
... A
  +--> imu660ra_simspi_w_reg_byte/SEEKFREE_IMU660RA

imu660ra_simspi_w_reg_byte/SEEKFREE_IMU6+     ----- -----
... 60RA
  +--> imu660ra_simspi_wr_byte/SEEKFREE_IMU660RA

imu660ra_write_registers/SEEKFREE_IMU660+     ----- -----
... RA
  +--> imu660ra_simspi_w_reg_bytes/SEEKFREE_IMU660RA

imu660ra_simspi_w_reg_bytes/SEEKFREE_IMU+     ----- -----
... 660RA
  +--> imu660ra_simspi_wr_byte/SEEKFREE_IMU660RA

wireless_uart_init/SEEKFREE_WIRELESS          ----- -----
  +--> fifo_init/zf_fifo
  +--> uart_init/zf_uart

fifo_init/zf_fifo                             ----- -----

pit_timer_ms/zf_tim                           ----- -----
  +--> ?C?SLDIV/?C?SLDIV

Tft_show/all_init                             ----- -----
  +--> lcd_showstr_simspi/SEEKFREE_18TFT
  +--> lcd_showint16_simspi/SEEKFREE_18TFT

lcd_showstr_simspi/SEEKFREE_18TFT             ----- -----
  +--> lcd_showchar_simspi/SEEKFREE_18TFT

lcd_showchar_simspi/SEEKFREE_18TFT            ----- -----
  +--> lcd_set_region_simspi/SEEKFREE_18TFT
  +--> lcd_writeData_16bit_simspi/SEEKFREE_18TFT
L251 LINKER/LOCATER V4.66.93.0                                                        11/25/2023  21:38:42  PAGE 18



lcd_showint16_simspi/SEEKFREE_18TFT           ----- -----
  +--> lcd_showchar_simspi/SEEKFREE_18TFT

Tft_Printf/all_init                           ----- -----
  +--> PRINTF/PRINTF

*** NEW ROOT ********************************

?C_C51STARTUP?2                               ----- -----



PUBLIC SYMBOLS OF MODULE:  .\Out_File\SEEKFREE (board)


      VALUE       CLASS    TYPE      PUBLIC SYMBOL NAME
      =================================================
      00FF311EH   CODE     NEAR LAB  ?C?CASTF
      000000FFH   NUMBER   ---       ?C?CODESEG
      00FF30EBH   CODE     NEAR LAB  ?C?FCASTC
      00FF30E6H   CODE     NEAR LAB  ?C?FCASTI
      00FF30E1H   CODE     NEAR LAB  ?C?FCASTL
      00FF2EB4H   CODE     ---       ?C?FPADD
      00FF308FH   CODE     ---       ?C?FPCMP
      00FF308DH   CODE     ---       ?C?FPCMP3
      00FF3622H   CODE     ---       ?C?FPCONVERT
      00FF300CH   CODE     ---       ?C?FPDIV
      00FF3187H   CODE     ---       ?C?FPGETOPN2
      00FF2F6CH   CODE     ---       ?C?FPMUL
      00FF31C4H   CODE     ---       ?C?FPNANRESULT
      00FF30D3H   CODE     ---       ?C?FPNEG
      00FF31CCH   CODE     ---       ?C?FPOVERFLOW
      00FF31A0H   CODE     ---       ?C?FPRESULT
      00FF31B6H   CODE     ---       ?C?FPRESULT2
      00FF36DAH   CODE     ---       ?C?FPROUND
      00FF2EB1H   CODE     ---       ?C?FPSUB
      00FF31C9H   CODE     ---       ?C?FPUNDERFLOW
      00FF374DH   CODE     ---       ?C?FTNPWR
      00FF6906H   CODE     ---       ?C?INITEDATA
      00FE00E9H   HCONST   WORD      ?C?INITEDATA_END
      00FF37C7H   CODE     ---       ?C?LIMUL
      00FF37B6H   CODE     ---       ?C?LMUL
      00FF3205H   CODE     ---       ?C?PRNFMT
      00FF3784H   CODE     ---       ?C?SIDIV
      00FF3823H   CODE     NEAR LAB  ?C?SLDIV
      00FF0000H   CODE     ---       ?C?STARTUP
      00FF37D2H   CODE     NEAR LAB  ?C?ULDIV
      00FF37D0H   CODE     NEAR LAB  ?C?ULIDIV
      00000001H   NUMBER   ---       ?C?XDATASEG
      00FF0000H   CODE     ---       ?C_STARTUP
      00000AF1H   EDATA    BYTE      ?constrain_float?BYTE
      000009F1H   EDATA    BYTE      ?data_conversion?BYTE
      00000A19H   EDATA    BYTE      ?fifo_init?BYTE
      00000972H   EDATA    BYTE      ?fifo_read_buffer?BYTE
      000009A9H   EDATA    BYTE      ?fifo_write_buffer?BYTE
      00000D09H   EDATA    BYTE      ?iic_init?BYTE
      00000713H   EDATA    BYTE      ?ips114_showfloat?BYTE
      000006E3H   EDATA    BYTE      ?ips114_showfloat_simspi?BYTE
      000006B3H   EDATA    BYTE      ?lcd_showfloat?BYTE
      00000683H   EDATA    BYTE      ?lcd_showfloat_simspi?BYTE
      0000095EH   EDATA    BYTE      ?number_conversion_ascii?BYTE
      00000743H   EDATA    BYTE      ?oled_printf_float?BYTE
      00000773H   EDATA    BYTE      ?oled_printf_float_spi?BYTE
      00000902H   EDATA    ---       ?printf?BYTE
L251 LINKER/LOCATER V4.66.93.0                                                        11/25/2023  21:38:42  PAGE 19


      0000094AH   EDATA    BYTE      ?pwm_freq?BYTE
      00000936H   EDATA    BYTE      ?pwm_init?BYTE
      00000CD1H   EDATA    BYTE      ?spi_init?BYTE
      000009C7H   EDATA    BYTE      ?uart_init?BYTE
      000004F2H   EDATA    BYTE      ?zf_sprintf?BYTE
      00FF69AEH   CODE     ---       ADC_6_road_init
*SFR* 000000BCH   DATA     BYTE      ADC_CONTR
      0000053CH   EDATA    ---       ADC_DATA_CH0
      00000548H   EDATA    ---       ADC_DATA_CH1
      00000554H   EDATA    ---       ADC_DATA_CH2
      00000560H   EDATA    ---       ADC_DATA_CH4
      0000056CH   EDATA    ---       ADC_DATA_CH5
      00FF598AH   CODE     ---       adc_data_convert
      00FF61ADH   CODE     ---       adc_filter
      00FF5B0CH   CODE     ---       adc_init
*DEL*:00000000H   CODE     ---       adc_mean_filter_convert
      00FF651DH   CODE     ---       adc_once
*SFR* 000000BDH   DATA     BYTE      ADC_RES
*SFR* 000000BEH   DATA     BYTE      ADC_RESL
*SFR* 000000DEH   DATA     BYTE      ADCCFG
      00FF6ADCH   CODE     ---       All_init
      00FF5F15H   CODE     ---       All_PID_Init
      0000031BH   EDATA    FLOAT     angle
      00000323H   EDATA    ---       Angle_PID
      000003FBH   EDATA    INT       Angle_Turn
*DEL*:00000000H   CODE     ---       at24c02_read_byte
*DEL*:00000000H   CODE     ---       at24c02_read_bytes
*DEL*:00000000H   CODE     ---       at24c02_write_byte
*DEL*:00000000H   CODE     ---       at24c02_write_bytes
*SFR* 000000EFH   DATA     BYTE      AUXINTIF
*SFR* 0000008EH   DATA     BYTE      AUXR
*SFR* 00000097H   DATA     BYTE      AUXR2
      00FF6413H   CODE     ---       Bal_control
*DEL*:00000000H   CODE     ---       bluetooth_ch9141_init
*DEL*:00000000H   CODE     ---       bluetooth_ch9141_read_buff
*DEL*:00000000H   CODE     ---       bluetooth_ch9141_send_buff
      00FF0066H   CODE     ---       bluetooth_ch9141_uart_callback
      00FF5FAEH   CODE     ---       board_init
      000004C5H   EDATA    ---       busy
*SFR* 000000F1H   DATA     BYTE      CANICR
*DEL*:00000000H   CODE     ---       ccd_collect
      00000213H   EDATA    ---       ccd_data
*DEL*:00000000H   CODE     ---       ccd_init
*DEL*:00000000H   CODE     ---       ccd_send_data
*SFR* 000000EAH   DATA     BYTE      CKCON
*SFR* 000000E6H   DATA     BYTE      CMPCR1
*SFR* 000000E7H   DATA     BYTE      CMPCR2
      00000DF8H   EDATA    CHAR      cnt
      00000DFAH   EDATA    CHAR      cnt2
      00FF6A1AH   CODE     ---       constrain_float
*DEL*:00000000H   CODE     ---       CRC_CHECK
      00FF6359H   CODE     ---       ctimer_count_clean
      00FF65C8H   CODE     ---       ctimer_count_init
      00FF5BC1H   CODE     ---       ctimer_count_read
*DEL*:00000000H   CODE     ---       data_conversion
      00FF68B2H   CODE     ---       delay_init
      00FF69E5H   CODE     ---       delay_ms
*DEL*:00000000H   CODE     ---       delay_us
*DEL*:00000000H   CODE     ---       DisableGlobalIRQ
      00000E2DH   EDATA    WORD      dl1a_distance_mm
      00000E2FH   EDATA    BYTE      dl1a_finsh_flag
*DEL*:00000000H   CODE     ---       dl1a_get_distance
*DEL*:00000000H   CODE     ---       dl1a_init
      00FF6BBEH   CODE     ---       Duty_Limit
*SFR* 000000A8H.7 DATA     BIT       EA
L251 LINKER/LOCATER V4.66.93.0                                                        11/25/2023  21:38:42  PAGE 20


*SFR* 000000BAH.7 DATA     BIT       EAXFR
*DEL*:00000000H   CODE     ---       eeprom_trig
      00000529H   EDATA    FLOAT     electro_error
      00FF0006H   CODE     ---       EnableGlobalIRQ
*DEL*:00000000H   CODE     ---       encoder_angle_simspi
*DEL*:00000000H   CODE     ---       encoder_angle_spi
      00FF679AH   CODE     ---       Encoder_cal
*DEL*:00000000H   CODE     ---       encoder_delay_us
      00FF6BD7H   CODE     ---       encoder_get
      00FF6AFBH   CODE     ---       Encoder_init
*DEL*:00000000H   CODE     ---       encoder_init_simspi
*DEL*:00000000H   CODE     ---       encoder_init_spi
*DEL*:00000000H   CODE     ---       encoder_self4_check
*DEL*:00000000H   CODE     ---       encoder_self5_check
*DEL*:00000000H   CODE     ---       encoder_simspi_r_reg_byte
*DEL*:00000000H   CODE     ---       encoder_simspi_w_reg_byte
*DEL*:00000000H   CODE     ---       encoder_spi_r_reg_byte
*DEL*:00000000H   CODE     ---       encoder_spi_w_reg_byte
*SFR* 000000A8H.4 DATA     BIT       ES
*SFR* 000000A8H.1 DATA     BIT       ET0
*SFR* 000000A8H.3 DATA     BIT       ET1
*SFR* 000000A8H.0 DATA     BIT       EX0
*SFR* 000000A8H.2 DATA     BIT       EX1
*DEL*:00000000H   CODE     ---       exit_init
*DEL*:00000000H   CODE     ---       extern_iap_write_bytes
*SFR* 000000D0H.5 DATA     BIT       F0
*DEL*:00000000H   CODE     ---       fifo_clear
*DEL*:00000000H   CODE     ---       fifo_end_offset
      00FF628BH   CODE     ---       fifo_head_offset
      00FF621DH   CODE     ---       fifo_init
*DEL*:00000000H   CODE     ---       fifo_read_buffer
*DEL*:00000000H   CODE     ---       fifo_used
      00FF53A6H   CODE     ---       fifo_write_buffer
      00FF3857H   CODE     ---       gpio_mode
*DEL*:00000000H   CODE     ---       gpio_pull_set
      00000DF9H   EDATA    CHAR      gyroflag
*SFR* 000000F6H   DATA     BYTE      IAP_ADDRE
*SFR* 000000C3H   DATA     BYTE      IAP_ADDRH
*SFR* 000000C4H   DATA     BYTE      IAP_ADDRL
*SFR* 000000C5H   DATA     BYTE      IAP_CMD
*SFR* 000000C7H   DATA     BYTE      IAP_CONTR
*SFR* 000000C2H   DATA     BYTE      IAP_DATA
*DEL*:00000000H   CODE     ---       iap_erase_page
*DEL*:00000000H   CODE     ---       iap_get_cmd_state
*DEL*:00000000H   CODE     ---       iap_idle
*DEL*:00000000H   CODE     ---       iap_init
*DEL*:00000000H   CODE     ---       iap_read_bytes
*DEL*:00000000H   CODE     ---       iap_set_tps
*SFR* 000000F5H   DATA     BYTE      IAP_TPS
*SFR* 000000C6H   DATA     BYTE      IAP_TRIG
*DEL*:00000000H   CODE     ---       iap_write_bytes
*DEL*:00000000H   CODE     ---       icm20602_acc_transition
      00000A85H   EDATA    INT       icm20602_acc_x
      00000A87H   EDATA    INT       icm20602_acc_y
      00000A89H   EDATA    INT       icm20602_acc_z
*DEL*:00000000H   CODE     ---       icm20602_get_acc
*DEL*:00000000H   CODE     ---       icm20602_get_gyro
*DEL*:00000000H   CODE     ---       icm20602_gyro_transition
      00000A8BH   EDATA    INT       icm20602_gyro_x
      00000A8DH   EDATA    INT       icm20602_gyro_y
      00000A8FH   EDATA    INT       icm20602_gyro_z
*DEL*:00000000H   CODE     ---       icm20602_init
*SFR* 000000A8H   DATA     BYTE      IE
*SFR* 000000AFH   DATA     BYTE      IE2
*DEL*:00000000H   CODE     ---       iic_change_pin
L251 LINKER/LOCATER V4.66.93.0                                                        11/25/2023  21:38:42  PAGE 21


*DEL*:00000000H   CODE     ---       iic_delay_us
*DEL*:00000000H   CODE     ---       iic_init
*DEL*:00000000H   CODE     ---       iic_read_reg
*DEL*:00000000H   CODE     ---       iic_read_reg_bytes
*DEL*:00000000H   CODE     ---       iic_write_reg
*DEL*:00000000H   CODE     ---       imu660ra_acc_transition
      00000AE5H   EDATA    INT       imu660ra_acc_x
      00000AE7H   EDATA    INT       imu660ra_acc_y
      00000AE9H   EDATA    INT       imu660ra_acc_z
      00FF00A6H   CODE     ---       imu660ra_config_file
*DEL*:00000000H   CODE     ---       imu660ra_get_acc
      00FF661CH   CODE     ---       imu660ra_get_gyro
      00FF5DCCH   CODE     ---       imu660ra_gyro_transition
      00000AEBH   EDATA    INT       imu660ra_gyro_x
      00000AEDH   EDATA    INT       imu660ra_gyro_y
      00000AEFH   EDATA    INT       imu660ra_gyro_z
      00FF5D22H   CODE     ---       imu660ra_init
      00FF5C75H   CODE     ---       InductorNormal
      00FF0046H   CODE     ---       INT0_Isr
      00FF000AH   CODE     ---       INT1_Isr
      00FF6C00H   CODE     ---       INT2_Isr
      00FF6C08H   CODE     ---       INT3_Isr
      00FF6C10H   CODE     ---       INT4_Isr
*SFR* 0000008FH   DATA     BYTE      INTCLKO
*SFR* 000000B8H   DATA     BYTE      IP
*SFR* 000000B5H   DATA     BYTE      IP2
*SFR* 000000B6H   DATA     BYTE      IP2H
*SFR* 000000DFH   DATA     BYTE      IP3
*SFR* 000000EEH   DATA     BYTE      IP3H
*SFR* 000000B7H   DATA     BYTE      IPH
*DEL*:00000000H   CODE     ---       ips114_clear
*DEL*:00000000H   CODE     ---       ips114_clear_simspi
*DEL*:00000000H   CODE     ---       ips114_drawpoint
*DEL*:00000000H   CODE     ---       ips114_drawpoint_simspi
*DEL*:00000000H   CODE     ---       ips114_init
*DEL*:00000000H   CODE     ---       ips114_init_simspi
*DEL*:00000000H   CODE     ---       ips114_set_region
*DEL*:00000000H   CODE     ---       ips114_set_region_simspi
*DEL*:00000000H   CODE     ---       ips114_showchar
*DEL*:00000000H   CODE     ---       ips114_showchar_simspi
*DEL*:00000000H   CODE     ---       ips114_showfloat
*DEL*:00000000H   CODE     ---       ips114_showfloat_simspi
*DEL*:00000000H   CODE     ---       ips114_showint16
*DEL*:00000000H   CODE     ---       ips114_showint16_simspi
*DEL*:00000000H   CODE     ---       ips114_showint32
*DEL*:00000000H   CODE     ---       ips114_showint32_simspi
*DEL*:00000000H   CODE     ---       ips114_showint8
*DEL*:00000000H   CODE     ---       ips114_showint8_simspi
*DEL*:00000000H   CODE     ---       ips114_showstr
*DEL*:00000000H   CODE     ---       ips114_showstr_simspi
*DEL*:00000000H   CODE     ---       ips114_showuint16
*DEL*:00000000H   CODE     ---       ips114_showuint16_simspi
*DEL*:00000000H   CODE     ---       ips114_showuint8
*DEL*:00000000H   CODE     ---       ips114_showuint8_simspi
*DEL*:00000000H   CODE     ---       ips114_writeData
*DEL*:00000000H   CODE     ---       ips114_writedata_16bit
*DEL*:00000000H   CODE     ---       ips114_writeData_simspi
*DEL*:00000000H   CODE     ---       ips114_writeDatai_16bit_simspi
*DEL*:00000000H   CODE     ---       ips114_writeIndex
*DEL*:00000000H   CODE     ---       ips114_writeIndex_simspi
*SFR* 0000009DH   DATA     BYTE      IRCBAND
*SFR* 0000009FH   DATA     BYTE      IRTRIM
*SFR* 00000088H.0 DATA     BIT       IT0
*SFR* 00000088H.2 DATA     BIT       IT1
      00000319H   EDATA    INT       L_Speed_Last_Error
L251 LINKER/LOCATER V4.66.93.0                                                        11/25/2023  21:38:42  PAGE 22


      00000365H   EDATA    INT       L_Speed_Now_car
      00000321H   EDATA    INT       L_Speed_Now_Error
      0000036BH   EDATA    ---       L_Speed_PID
      00000355H   EDATA    INT       L_target
*DEL*:00000000H   CODE     ---       lcd_clear
      00FF64C6H   CODE     ---       lcd_clear_simspi
*DEL*:00000000H   CODE     ---       lcd_drawpoint
*DEL*:00000000H   CODE     ---       lcd_drawpoint_simspi
*DEL*:00000000H   CODE     ---       lcd_init
      00FF4DAEH   CODE     ---       lcd_init_simspi
*DEL*:00000000H   CODE     ---       lcd_set_region
      00FF62F5H   CODE     ---       lcd_set_region_simspi
*DEL*:00000000H   CODE     ---       lcd_showchar
      00FF5A4DH   CODE     ---       lcd_showchar_simspi
*DEL*:00000000H   CODE     ---       lcd_showfloat
*DEL*:00000000H   CODE     ---       lcd_showfloat_simspi
*DEL*:00000000H   CODE     ---       lcd_showint16
      00FF54DEH   CODE     ---       lcd_showint16_simspi
*DEL*:00000000H   CODE     ---       lcd_showint32
*DEL*:00000000H   CODE     ---       lcd_showint32_simspi
*DEL*:00000000H   CODE     ---       lcd_showint8
*DEL*:00000000H   CODE     ---       lcd_showint8_simspi
*DEL*:00000000H   CODE     ---       lcd_showstr
      00FF63B6H   CODE     ---       lcd_showstr_simspi
*DEL*:00000000H   CODE     ---       lcd_showuint16
*DEL*:00000000H   CODE     ---       lcd_showuint16_simspi
*DEL*:00000000H   CODE     ---       lcd_showuint8
*DEL*:00000000H   CODE     ---       lcd_showuint8_simspi
*DEL*:00000000H   CODE     ---       lcd_writeData
*DEL*:00000000H   CODE     ---       lcd_writedata_16bit
      00FF6573H   CODE     ---       lcd_writeData_16bit_simspi
      00FF66B8H   CODE     ---       lcd_writeData_simspi
*DEL*:00000000H   CODE     ---       lcd_writeIndex
      00FF666CH   CODE     ---       lcd_writeIndex_simspi
      0000052DH   EDATA    FLOAT     Limit
*SFR* 000000F9H   DATA     BYTE      LINICR
      00000578H   EDATA    ---       LnowADC
      00000531H   EDATA    INT       MagneticField
      00FF6BA4H   CODE     ---       main
      00FF6A73H   CODE     ---       memcpy?_
*DEL*:00000000H   CODE     ---       memset?_
      00FF6829H   CODE     ---       Motor_Init
      00FF4FA9H   CODE     ---       Motor_SpeedSet
      00000AC1H   EDATA    INT       mpu6050_acc_x
      00000AC3H   EDATA    INT       mpu6050_acc_y
      00000AC5H   EDATA    INT       mpu6050_acc_z
*DEL*:00000000H   CODE     ---       mpu6050_get_accdata
*DEL*:00000000H   CODE     ---       mpu6050_get_gyro
      00000AC7H   EDATA    INT       mpu6050_gyro_x
      00000AC9H   EDATA    INT       mpu6050_gyro_y
      00000ACBH   EDATA    INT       mpu6050_gyro_z
*DEL*:00000000H   CODE     ---       mpu6050_init
*DEL*:00000000H   CODE     ---       mpu6050_simiic_read_reg
*DEL*:00000000H   CODE     ---       mpu6050_simiic_read_regs
*DEL*:00000000H   CODE     ---       number_conversion_ascii
*DEL*:00000000H   CODE     ---       NVIC_SetPriority
      00FF2C86H   CODE     ---       oled_6x8
      00FF20A6H   CODE     ---       oled_8x16
*DEL*:00000000H   CODE     ---       oled_clrpixel
*DEL*:00000000H   CODE     ---       oled_clrpixel_spi
*DEL*:00000000H   CODE     ---       oled_dis_bmp
*DEL*:00000000H   CODE     ---       oled_dis_bmp_spi
*DEL*:00000000H   CODE     ---       oled_fill
*DEL*:00000000H   CODE     ---       oled_fill_spi
*DEL*:00000000H   CODE     ---       oled_hexascii
L251 LINKER/LOCATER V4.66.93.0                                                        11/25/2023  21:38:42  PAGE 23


*DEL*:00000000H   CODE     ---       oled_hexascii_spi
*DEL*:00000000H   CODE     ---       oled_init
*DEL*:00000000H   CODE     ---       oled_init_spi
*DEL*:00000000H   CODE     ---       oled_int16
*DEL*:00000000H   CODE     ---       oled_int16_spi
*DEL*:00000000H   CODE     ---       oled_p6x8str
*DEL*:00000000H   CODE     ---       oled_p6x8str_spi
*DEL*:00000000H   CODE     ---       oled_p8x16str
*DEL*:00000000H   CODE     ---       oled_p8x16str_spi
*DEL*:00000000H   CODE     ---       oled_print_chinese
*DEL*:00000000H   CODE     ---       oled_print_chinese_spi
*DEL*:00000000H   CODE     ---       oled_printf_float
*DEL*:00000000H   CODE     ---       oled_printf_float_spi
*DEL*:00000000H   CODE     ---       oled_printf_int32
*DEL*:00000000H   CODE     ---       oled_printf_int32_spi
*DEL*:00000000H   CODE     ---       oled_putpixel
*DEL*:00000000H   CODE     ---       oled_putpixel_spi
*DEL*:00000000H   CODE     ---       oled_set_pos
*DEL*:00000000H   CODE     ---       oled_set_pos_spi
*DEL*:00000000H   CODE     ---       oled_uint16
*DEL*:00000000H   CODE     ---       oled_uint16_spi
*DEL*:00000000H   CODE     ---       oled_wrcmd
*DEL*:00000000H   CODE     ---       oled_wrcmd_spi
*DEL*:00000000H   CODE     ---       oled_wrdat
*DEL*:00000000H   CODE     ---       oled_wrdat_spi
*SFR* 00000080H   DATA     BYTE      P0
*SFR* 00000080H.7 DATA     BIT       P07
*SFR* 00000094H   DATA     BYTE      P0M0
*SFR* 00000093H   DATA     BYTE      P0M1
*SFR* 00000090H   DATA     BYTE      P1
*SFR* 00000090H.6 DATA     BIT       P16
*SFR* 00000092H   DATA     BYTE      P1M0
*SFR* 00000091H   DATA     BYTE      P1M1
*SFR* 000000A0H   DATA     BYTE      P2
*SFR* 000000A0H.0 DATA     BIT       P20
*SFR* 000000A0H.1 DATA     BIT       P21
*SFR* 000000A0H.2 DATA     BIT       P22
*SFR* 000000A0H.3 DATA     BIT       P23
*SFR* 000000A0H.4 DATA     BIT       P24
*SFR* 000000A0H.5 DATA     BIT       P25
*SFR* 000000A0H.6 DATA     BIT       P26
*SFR* 000000A0H.7 DATA     BIT       P27
*SFR* 00000096H   DATA     BYTE      P2M0
*SFR* 00000095H   DATA     BYTE      P2M1
*SFR* 000000B0H   DATA     BYTE      P3
*SFR* 000000B0H.2 DATA     BIT       P32
*SFR* 000000B0H.3 DATA     BIT       P33
*SFR* 000000B0H.5 DATA     BIT       P35
*SFR* 000000B0H.6 DATA     BIT       P36
*SFR* 000000B2H   DATA     BYTE      P3M0
*SFR* 000000B1H   DATA     BYTE      P3M1
*SFR* 000000C0H   DATA     BYTE      P4
*SFR* 000000C0H.0 DATA     BIT       P40
*SFR* 000000C0H.1 DATA     BIT       P41
*SFR* 000000C0H.2 DATA     BIT       P42
*SFR* 000000C0H.3 DATA     BIT       P43
*SFR* 000000C0H.7 DATA     BIT       P47
*SFR* 000000B4H   DATA     BYTE      P4M0
*SFR* 000000B3H   DATA     BYTE      P4M1
*SFR* 000000C8H   DATA     BYTE      P5
*SFR* 000000C8H.2 DATA     BIT       P52
*SFR* 000000C8H.3 DATA     BIT       P53
*SFR* 000000CAH   DATA     BYTE      P5M0
*SFR* 000000C9H   DATA     BYTE      P5M1
*SFR* 000000E8H   DATA     BYTE      P6
L251 LINKER/LOCATER V4.66.93.0                                                        11/25/2023  21:38:42  PAGE 24


*SFR* 000000E8H.3 DATA     BIT       P63
*SFR* 000000E8H.5 DATA     BIT       P65
*SFR* 000000CCH   DATA     BYTE      P6M0
*SFR* 000000CBH   DATA     BYTE      P6M1
*SFR* 000000F8H   DATA     BYTE      P7
*SFR* 000000E2H   DATA     BYTE      P7M0
*SFR* 000000E1H   DATA     BYTE      P7M1
*SFR* 000000A2H   DATA     BYTE      P_SW1
*SFR* 000000BAH   DATA     BYTE      P_SW2
*SFR* 000000BBH   DATA     BYTE      P_SW3
*SFR* 00000087H   DATA     BYTE      PCON
      00FF525DH   CODE     ---       PidIncCtrl
      00FF58BFH   CODE     ---       PidInit
      00FF5106H   CODE     ---       PidLocCtrl
      00FF570FH   CODE     ---       pit_timer_ms
      00FF315BH   CODE     NEAR LAB  printf
*DEL*:00000000H   CODE     ---       printf_reverse_order
*SFR* 000000D0H   DATA     BYTE      PSW
      00000357H   EDATA    INT       Pulse_L
      0000035FH   EDATA    INT       Pulse_R
      00FF6BEEH   CODE     ---       putchar
      00FE010BH   HCONST   ---       PWM_ARR_ADDR
      00FE0113H   HCONST   ---       PWM_CCER_ADDR
      00FE0123H   HCONST   ---       PWM_CCMR_ADDR
      00FE00EBH   HCONST   ---       PWM_CCR_ADDR
      00FF55F7H   CODE     ---       pwm_duty
*DEL*:00000000H   CODE     ---       pwm_freq
      00FF4164H   CODE     ---       pwm_init
      00FF453EH   CODE     ---       pwm_set_gpio
      0000031FH   EDATA    INT       R_Speed_Last_Error
      00000367H   EDATA    INT       R_Speed_Now_car
      00000353H   EDATA    INT       R_Speed_Now_Error
      0000039BH   EDATA    ---       R_Speed_PID
      0000035DH   EDATA    INT       R_target
*DEL*:00000000H   CODE     ---       recv_ack
*DEL*:00000000H   CODE     ---       recv_data
*SFR* 000000FFH   DATA     BYTE      RSTCFG
*SFR* 0000009BH   DATA     BYTE      S2BUF
*SFR* 0000009AH   DATA     BYTE      S2CON
*SFR* 000000ADH   DATA     BYTE      S3BUF
*SFR* 000000ACH   DATA     BYTE      S3CON
*SFR* 000000FEH   DATA     BYTE      S4BUF
*SFR* 000000FDH   DATA     BYTE      S4CON
*SFR* 00000099H   DATA     BYTE      SBUF
*SFR* 00000098H   DATA     BYTE      SCON
*DEL*:00000000H   CODE     ---       send_ack
*DEL*:00000000H   CODE     ---       send_data
*DEL*:00000000H   CODE     ---       send_nak
      00FF4BA8H   CODE     ---       set_clk
*DEL*:00000000H   CODE     ---       set_zero_position_simspi
*DEL*:00000000H   CODE     ---       set_zero_position_spi
*DEL*:00000000H   CODE     ---       showimage
*DEL*:00000000H   CODE     ---       simspi_r_reg_byte
*DEL*:00000000H   CODE     ---       simspi_w_reg_byte
*DEL*:00000000H   CODE     ---       simspi_wr_byte
*SFR* 000000CEH   DATA     BYTE      SPCTL
*SFR* 000000CFH   DATA     BYTE      SPDAT
      00000359H   EDATA    FLOAT     Speed_L_Out
      00000361H   EDATA    FLOAT     Speed_R_Out
      00000369H   EDATA    INT       Speed_Target_car
      00000313H   EDATA    INT       Speed_Turn
*DEL*:00000000H   CODE     ---       spi_change_mode
*DEL*:00000000H   CODE     ---       spi_change_pin
*DEL*:00000000H   CODE     ---       spi_init
*DEL*:00000000H   CODE     ---       spi_mosi
L251 LINKER/LOCATER V4.66.93.0                                                        11/25/2023  21:38:42  PAGE 25


*DEL*:00000000H   CODE     ---       spi_r_reg_byte
*DEL*:00000000H   CODE     ---       spi_w_reg_byte
*DEL*:00000000H   CODE     ---       spi_wr_byte
*SFR* 000000CDH   DATA     BYTE      SPSTAT
*DEL*:00000000H   CODE     ---       start
*DEL*:00000000H   CODE     ---       stop
      00000DB4H   EDATA    LONG      sys_clk
*SFR* 000000D6H   DATA     BYTE      T2H
*SFR* 000000D7H   DATA     BYTE      T2L
*SFR* 000000D4H   DATA     BYTE      T3H
*SFR* 000000D5H   DATA     BYTE      T3L
*SFR* 000000D2H   DATA     BYTE      T4H
*SFR* 000000D3H   DATA     BYTE      T4L
*SFR* 000000DDH   DATA     BYTE      T4T3M
*SFR* 00000088H   DATA     BYTE      TCON
      00FF2696H   CODE     ---       tft_ascii
      00FF686EH   CODE     ---       Tft_Printf
      00FF6045H   CODE     ---       Tft_show
*SFR* 0000008CH   DATA     BYTE      TH0
*SFR* 0000008DH   DATA     BYTE      TH1
*SFR* 0000008AH   DATA     BYTE      TL0
*SFR* 0000008BH   DATA     BYTE      TL1
      00FF000EH   CODE     ---       TM0_Isr
      00FF5E74H   CODE     ---       TM1_Isr
      00FF6C18H   CODE     ---       TM2_Isr
      00FF6C20H   CODE     ---       TM3_Isr
      00FF6C28H   CODE     ---       TM4_Isr
*SFR* 00000089H   DATA     BYTE      TMOD
*SFR* 00000088H.4 DATA     BIT       TR0
*SFR* 00000088H.6 DATA     BIT       TR1
      00000212H   EDATA    BYTE      tsl1401_finish_flag
      00000533H   EDATA    CHAR      Turn_flag
      00000315H   EDATA    FLOAT     Turn_OUT
      000003CBH   EDATA    ---       Turn_PID
      00FF67E3H   CODE     ---       UART1_Isr
      000003FDH   EDATA    ---       uart1_rx_buff
      00000461H   EDATA    ---       uart1_tx_buff
      00FF6B1AH   CODE     ---       UART2_Isr
      00FF6B38H   CODE     ---       UART3_Isr
      00FF613AH   CODE     ---       UART4_Isr
      00FF48F6H   CODE     ---       uart_init
*DEL*:00000000H   CODE     ---       uart_putbuff
      00FF60C5H   CODE     ---       uart_putchar
*DEL*:00000000H   CODE     ---       uart_putstr
*SFR* 000000F4H   DATA     BYTE      USBCON
      00FF57F4H   CODE     ---       velocity_control
      00000B79H   EDATA    ---       virtual_scope_data
*SFR* 000000A6H   DATA     BYTE      VRTRIM
*DEL*:00000000H   CODE     ---       wait
*SFR* 000000C1H   DATA     BYTE      WDT_CONTR
      00000534H   EDATA    FLOAT     weightA
      00000538H   EDATA    FLOAT     weightB
      00FF6B70H   CODE     ---       wireless_ch573_callback
*DEL*:00000000H   CODE     ---       wireless_ch573_init
*DEL*:00000000H   CODE     ---       wireless_ch573_read_buff
*DEL*:00000000H   CODE     ---       wireless_ch573_send_buff
      00000E5AH   EDATA    INT       wireless_type
      00FF6B56H   CODE     ---       wireless_uart_callback
      00FF6932H   CODE     ---       wireless_uart_init
*DEL*:00000000H   CODE     ---       wireless_uart_read_buff
*DEL*:00000000H   CODE     ---       wireless_uart_send_buff
*SFR* 000000E9H   DATA     BYTE      WTST
      00000DBCH   EDATA    WORD      zf_delay_ms
      00000DBEH   EDATA    WORD      zf_delay_us
*DEL*:00000000H   CODE     ---       zf_sprintf
L251 LINKER/LOCATER V4.66.93.0                                                        11/25/2023  21:38:42  PAGE 26





SYMBOL TABLE OF MODULE:  .\Out_File\SEEKFREE (board)

      VALUE       REP       CLASS    TYPE      SYMBOL NAME
      ====================================================
      ---         MODULE    ---      ---       board
      00FF0006H   PUBLIC    CODE     ---       EnableGlobalIRQ
      00FF5FAEH   PUBLIC    CODE     ---       board_init
      00FF4BA8H   PUBLIC    CODE     ---       set_clk
      00FF6BEEH   PUBLIC    CODE     ---       putchar
      00000DB4H   PUBLIC    EDATA    LONG      sys_clk
      00000094H   SFRSYM    DATA     BYTE      P0M0
      000000D0H   SFRSYM    DATA     BYTE      PSW
      000000BAH.7 SFRSYM    DATA     BIT       EAXFR
      0000009DH   SFRSYM    DATA     BYTE      IRCBAND
      00000097H   SFRSYM    DATA     BYTE      AUXR2
      000000EAH   SFRSYM    DATA     BYTE      CKCON
      000000EFH   SFRSYM    DATA     BYTE      AUXINTIF
      000000FDH   SFRSYM    DATA     BYTE      S4CON
      000000ACH   SFRSYM    DATA     BYTE      S3CON
      0000009AH   SFRSYM    DATA     BYTE      S2CON
      000000A6H   SFRSYM    DATA     BYTE      VRTRIM
      000000B7H   SFRSYM    DATA     BYTE      IPH
      000000CDH   SFRSYM    DATA     BYTE      SPSTAT
      000000DDH   SFRSYM    DATA     BYTE      T4T3M
      0000009FH   SFRSYM    DATA     BYTE      IRTRIM
      000000C1H   SFRSYM    DATA     BYTE      WDT_CONTR
      000000E9H   SFRSYM    DATA     BYTE      WTST
      000000DFH   SFRSYM    DATA     BYTE      IP3
      000000F4H   SFRSYM    DATA     BYTE      USBCON
      000000B5H   SFRSYM    DATA     BYTE      IP2
      000000FFH   SFRSYM    DATA     BYTE      RSTCFG
      000000F9H   SFRSYM    DATA     BYTE      LINICR
      0000008EH   SFRSYM    DATA     BYTE      AUXR
      000000AFH   SFRSYM    DATA     BYTE      IE2
      00000088H   SFRSYM    DATA     BYTE      TCON
      00000089H   SFRSYM    DATA     BYTE      TMOD
      00000098H   SFRSYM    DATA     BYTE      SCON
      000000F1H   SFRSYM    DATA     BYTE      CANICR
      00000087H   SFRSYM    DATA     BYTE      PCON
      000000BCH   SFRSYM    DATA     BYTE      ADC_CONTR
      000000E7H   SFRSYM    DATA     BYTE      CMPCR2
      000000E6H   SFRSYM    DATA     BYTE      CMPCR1
      000000DEH   SFRSYM    DATA     BYTE      ADCCFG
      000000B8H   SFRSYM    DATA     BYTE      IP
      0000008FH   SFRSYM    DATA     BYTE      INTCLKO
      000000EEH   SFRSYM    DATA     BYTE      IP3H
      000000B6H   SFRSYM    DATA     BYTE      IP2H
      000000A8H   SFRSYM    DATA     BYTE      IE
      000000BBH   SFRSYM    DATA     BYTE      P_SW3
      000000BAH   SFRSYM    DATA     BYTE      P_SW2
      000000A2H   SFRSYM    DATA     BYTE      P_SW1
      000000CEH   SFRSYM    DATA     BYTE      SPCTL
      000000F8H   SFRSYM    DATA     BYTE      P7
      000000A8H.7 SFRSYM    DATA     BIT       EA
      000000E1H   SFRSYM    DATA     BYTE      P7M1
      000000E8H   SFRSYM    DATA     BYTE      P6
      000000C8H   SFRSYM    DATA     BYTE      P5
      000000CBH   SFRSYM    DATA     BYTE      P6M1
      000000E2H   SFRSYM    DATA     BYTE      P7M0
      000000C0H   SFRSYM    DATA     BYTE      P4
      000000C9H   SFRSYM    DATA     BYTE      P5M1
      000000CCH   SFRSYM    DATA     BYTE      P6M0
L251 LINKER/LOCATER V4.66.93.0                                                        11/25/2023  21:38:42  PAGE 27


      000000B0H   SFRSYM    DATA     BYTE      P3
      000000B3H   SFRSYM    DATA     BYTE      P4M1
      000000CAH   SFRSYM    DATA     BYTE      P5M0
      000000A0H   SFRSYM    DATA     BYTE      P2
      000000B1H   SFRSYM    DATA     BYTE      P3M1
      000000B4H   SFRSYM    DATA     BYTE      P4M0
      00000090H   SFRSYM    DATA     BYTE      P1
      00000095H   SFRSYM    DATA     BYTE      P2M1
      000000B2H   SFRSYM    DATA     BYTE      P3M0
      00000080H   SFRSYM    DATA     BYTE      P0
      00000091H   SFRSYM    DATA     BYTE      P1M1
      00000096H   SFRSYM    DATA     BYTE      P2M0
      00000092H   SFRSYM    DATA     BYTE      P1M0
      00000093H   SFRSYM    DATA     BYTE      P0M1

      00FF4BA8H   BLOCK     CODE     ---       LVL=0
      00FF4BA8H   LINE      CODE     ---       #43
      00FF4BA8H   LINE      CODE     ---       #46
      00FF4BABH   LINE      CODE     ---       #48
      00FF4BBBH   LINE      CODE     ---       #51
      00FF4BC8H   LINE      CODE     ---       #52
      00FF4BD5H   LINE      CODE     ---       #53
      00FF4BE2H   LINE      CODE     ---       #54
      00FF4BE6H   LINE      CODE     ---       #55
      00FF4BF2H   LINE      CODE     ---       #56
      00FF4BF5H   LINE      CODE     ---       #57
      00FF4C05H   LINE      CODE     ---       #60
      00FF4C12H   LINE      CODE     ---       #61
      00FF4C1FH   LINE      CODE     ---       #62
      00FF4C2CH   LINE      CODE     ---       #63
      00FF4C30H   LINE      CODE     ---       #64
      00FF4C3CH   LINE      CODE     ---       #65
      00FF4C3FH   LINE      CODE     ---       #66
      00FF4C4FH   LINE      CODE     ---       #69
      00FF4C5CH   LINE      CODE     ---       #70
      00FF4C69H   LINE      CODE     ---       #71
      00FF4C76H   LINE      CODE     ---       #72
      00FF4C7AH   LINE      CODE     ---       #73
      00FF4C86H   LINE      CODE     ---       #74
      00FF4C89H   LINE      CODE     ---       #75
      00FF4C99H   LINE      CODE     ---       #79
      00FF4CA6H   LINE      CODE     ---       #80
      00FF4CB3H   LINE      CODE     ---       #81
      00FF4CC0H   LINE      CODE     ---       #82
      00FF4CC4H   LINE      CODE     ---       #83
      00FF4CD0H   LINE      CODE     ---       #84
      00FF4CD3H   LINE      CODE     ---       #85
      00FF4CE3H   LINE      CODE     ---       #88
      00FF4CF0H   LINE      CODE     ---       #89
      00FF4CFDH   LINE      CODE     ---       #90
      00FF4D0AH   LINE      CODE     ---       #91
      00FF4D0EH   LINE      CODE     ---       #92
      00FF4D1AH   LINE      CODE     ---       #93
      00FF4D1DH   LINE      CODE     ---       #94
      00FF4D2DH   LINE      CODE     ---       #97
      00FF4D3AH   LINE      CODE     ---       #98
      00FF4D47H   LINE      CODE     ---       #99
      00FF4D54H   LINE      CODE     ---       #100
      00FF4D58H   LINE      CODE     ---       #101
      00FF4D64H   LINE      CODE     ---       #102
      00FF4D66H   LINE      CODE     ---       #105
      00FF4D72H   LINE      CODE     ---       #107
      00FF4D7FH   LINE      CODE     ---       #108
      00FF4D8CH   LINE      CODE     ---       #109
      00FF4D99H   LINE      CODE     ---       #110
L251 LINKER/LOCATER V4.66.93.0                                                        11/25/2023  21:38:42  PAGE 28


      00FF4D9DH   LINE      CODE     ---       #111
      00FF4DA9H   LINE      CODE     ---       #112
      00FF4DA9H   LINE      CODE     ---       #114
      00FF4DADH   LINE      CODE     ---       #115
      ---         BLOCKEND  ---      ---       LVL=0

      00FF5FAEH   BLOCK     CODE     ---       LVL=0
      00FF5FAEH   LINE      CODE     ---       #121
      00FF5FAEH   LINE      CODE     ---       #123
      00FF5FB2H   LINE      CODE     ---       #124
      00FF5FB5H   LINE      CODE     ---       #125
      00FF5FB8H   LINE      CODE     ---       #126
      00FF5FBBH   LINE      CODE     ---       #127
      00FF5FBFH   LINE      CODE     ---       #137
      00FF5FC6H   LINE      CODE     ---       #143
      00FF5FC9H   LINE      CODE     ---       #145
      00FF5FCCH   LINE      CODE     ---       #146
      00FF5FCFH   LINE      CODE     ---       #147
      00FF5FDBH   LINE      CODE     ---       #149
      00FF5FDEH   LINE      CODE     ---       #150
      00FF5FE1H   LINE      CODE     ---       #151
      00FF5FE4H   LINE      CODE     ---       #152
      00FF5FE7H   LINE      CODE     ---       #153
      00FF5FEAH   LINE      CODE     ---       #154
      00FF5FEDH   LINE      CODE     ---       #155
      00FF5FF0H   LINE      CODE     ---       #156
      00FF5FF3H   LINE      CODE     ---       #157
      00FF5FF6H   LINE      CODE     ---       #158
      00FF5FF9H   LINE      CODE     ---       #159
      00FF5FFCH   LINE      CODE     ---       #160
      00FF5FFFH   LINE      CODE     ---       #161
      00FF6002H   LINE      CODE     ---       #162
      00FF6005H   LINE      CODE     ---       #163
      00FF6008H   LINE      CODE     ---       #164
      00FF600BH   LINE      CODE     ---       #166
      00FF600EH   LINE      CODE     ---       #167
      00FF6011H   LINE      CODE     ---       #168
      00FF6014H   LINE      CODE     ---       #169
      00FF6017H   LINE      CODE     ---       #170
      00FF601AH   LINE      CODE     ---       #171
      00FF601DH   LINE      CODE     ---       #172
      00FF6020H   LINE      CODE     ---       #173
      00FF6023H   LINE      CODE     ---       #174
      00FF6026H   LINE      CODE     ---       #176
      00FF6041H   LINE      CODE     ---       #177
      00FF6044H   LINE      CODE     ---       #178
      ---         BLOCKEND  ---      ---       LVL=0

      00FF6BEEH   BLOCK     CODE     ---       LVL=0
      00000EAEH   SYMBOL    EDATA    CHAR      c
      00FF6BEEH   LINE      CODE     ---       #183
      00FF6BF2H   LINE      CODE     ---       #185
      00FF6BFBH   LINE      CODE     ---       #187
      00FF6BFFH   LINE      CODE     ---       #188
      ---         BLOCKEND  ---      ---       LVL=0

      00FF0006H   BLOCK     CODE     ---       LVL=0
      00FF0006H   LINE      CODE     ---       #197
      00FF0006H   LINE      CODE     ---       #199
      00FF0009H   LINE      CODE     ---       #200
      ---         BLOCKEND  ---      ---       LVL=0

      ---         MODULE    ---      ---       common
      00000E5AH   PUBLIC    EDATA    INT       wireless_type
      000000D0H   SFRSYM    DATA     BYTE      PSW
L251 LINKER/LOCATER V4.66.93.0                                                        11/25/2023  21:38:42  PAGE 29


      0000009DH   SFRSYM    DATA     BYTE      IRCBAND
      00000097H   SFRSYM    DATA     BYTE      AUXR2
      000000EFH   SFRSYM    DATA     BYTE      AUXINTIF
      000000FDH   SFRSYM    DATA     BYTE      S4CON
      000000ACH   SFRSYM    DATA     BYTE      S3CON
      0000009AH   SFRSYM    DATA     BYTE      S2CON
      000000B7H   SFRSYM    DATA     BYTE      IPH
      000000CDH   SFRSYM    DATA     BYTE      SPSTAT
      000000DDH   SFRSYM    DATA     BYTE      T4T3M
      000000C1H   SFRSYM    DATA     BYTE      WDT_CONTR
      000000DFH   SFRSYM    DATA     BYTE      IP3
      000000F4H   SFRSYM    DATA     BYTE      USBCON
      000000B5H   SFRSYM    DATA     BYTE      IP2
      000000FFH   SFRSYM    DATA     BYTE      RSTCFG
      000000F9H   SFRSYM    DATA     BYTE      LINICR
      0000008EH   SFRSYM    DATA     BYTE      AUXR
      000000AFH   SFRSYM    DATA     BYTE      IE2
      00000088H   SFRSYM    DATA     BYTE      TCON
      00000098H   SFRSYM    DATA     BYTE      SCON
      000000F1H   SFRSYM    DATA     BYTE      CANICR
      00000087H   SFRSYM    DATA     BYTE      PCON
      000000BCH   SFRSYM    DATA     BYTE      ADC_CONTR
      000000E7H   SFRSYM    DATA     BYTE      CMPCR2
      000000E6H   SFRSYM    DATA     BYTE      CMPCR1
      000000B8H   SFRSYM    DATA     BYTE      IP
      0000008FH   SFRSYM    DATA     BYTE      INTCLKO
      000000EEH   SFRSYM    DATA     BYTE      IP3H
      000000B6H   SFRSYM    DATA     BYTE      IP2H
      000000A8H   SFRSYM    DATA     BYTE      IE
      000000BBH   SFRSYM    DATA     BYTE      P_SW3
      000000BAH   SFRSYM    DATA     BYTE      P_SW2
      000000A2H   SFRSYM    DATA     BYTE      P_SW1
      000000CEH   SFRSYM    DATA     BYTE      SPCTL
      000000F8H   SFRSYM    DATA     BYTE      P7
      000000E8H   SFRSYM    DATA     BYTE      P6
      000000C8H   SFRSYM    DATA     BYTE      P5
      000000C0H   SFRSYM    DATA     BYTE      P4
      000000B0H   SFRSYM    DATA     BYTE      P3
      000000A0H   SFRSYM    DATA     BYTE      P2
      00000090H   SFRSYM    DATA     BYTE      P1
      00000080H   SFRSYM    DATA     BYTE      P0

      ---         MODULE    ---      ---       zf_adc
      00FF651DH   PUBLIC    CODE     ---       adc_once
      00FF5B0CH   PUBLIC    CODE     ---       adc_init
      00000094H   SFRSYM    DATA     BYTE      P0M0
      000000D0H   SFRSYM    DATA     BYTE      PSW
      0000009DH   SFRSYM    DATA     BYTE      IRCBAND
      00000097H   SFRSYM    DATA     BYTE      AUXR2
      000000EFH   SFRSYM    DATA     BYTE      AUXINTIF
      000000FDH   SFRSYM    DATA     BYTE      S4CON
      000000ACH   SFRSYM    DATA     BYTE      S3CON
      0000009AH   SFRSYM    DATA     BYTE      S2CON
      000000B7H   SFRSYM    DATA     BYTE      IPH
      000000CDH   SFRSYM    DATA     BYTE      SPSTAT
      000000BEH   SFRSYM    DATA     BYTE      ADC_RESL
      000000DDH   SFRSYM    DATA     BYTE      T4T3M
      000000C1H   SFRSYM    DATA     BYTE      WDT_CONTR
      000000DFH   SFRSYM    DATA     BYTE      IP3
      000000F4H   SFRSYM    DATA     BYTE      USBCON
      000000B5H   SFRSYM    DATA     BYTE      IP2
      000000FFH   SFRSYM    DATA     BYTE      RSTCFG
      000000F9H   SFRSYM    DATA     BYTE      LINICR
      0000008EH   SFRSYM    DATA     BYTE      AUXR
      000000AFH   SFRSYM    DATA     BYTE      IE2
L251 LINKER/LOCATER V4.66.93.0                                                        11/25/2023  21:38:42  PAGE 30


      00000088H   SFRSYM    DATA     BYTE      TCON
      00000098H   SFRSYM    DATA     BYTE      SCON
      000000F1H   SFRSYM    DATA     BYTE      CANICR
      00000087H   SFRSYM    DATA     BYTE      PCON
      000000BCH   SFRSYM    DATA     BYTE      ADC_CONTR
      000000E7H   SFRSYM    DATA     BYTE      CMPCR2
      000000E6H   SFRSYM    DATA     BYTE      CMPCR1
      000000DEH   SFRSYM    DATA     BYTE      ADCCFG
      000000B8H   SFRSYM    DATA     BYTE      IP
      0000008FH   SFRSYM    DATA     BYTE      INTCLKO
      000000EEH   SFRSYM    DATA     BYTE      IP3H
      000000B6H   SFRSYM    DATA     BYTE      IP2H
      000000BDH   SFRSYM    DATA     BYTE      ADC_RES
      000000A8H   SFRSYM    DATA     BYTE      IE
      000000BBH   SFRSYM    DATA     BYTE      P_SW3
      000000BAH   SFRSYM    DATA     BYTE      P_SW2
      000000A2H   SFRSYM    DATA     BYTE      P_SW1
      000000CEH   SFRSYM    DATA     BYTE      SPCTL
      000000F8H   SFRSYM    DATA     BYTE      P7
      000000E8H   SFRSYM    DATA     BYTE      P6
      000000C8H   SFRSYM    DATA     BYTE      P5
      000000C0H   SFRSYM    DATA     BYTE      P4
      000000B0H   SFRSYM    DATA     BYTE      P3
      000000A0H   SFRSYM    DATA     BYTE      P2
      00000090H   SFRSYM    DATA     BYTE      P1
      00000080H   SFRSYM    DATA     BYTE      P0
      00000091H   SFRSYM    DATA     BYTE      P1M1
      00000092H   SFRSYM    DATA     BYTE      P1M0
      00000093H   SFRSYM    DATA     BYTE      P0M1

      00FF5B0CH   BLOCK     CODE     ---       LVL=0
      00000DB8H   SYMBOL    EDATA    INT       adcn
      00000DBAH   SYMBOL    EDATA    INT       speed
      00FF5B0CH   LINE      CODE     ---       #32
      00FF5B14H   LINE      CODE     ---       #34
      00FF5B17H   LINE      CODE     ---       #36
      00FF5B1AH   LINE      CODE     ---       #37
      00FF5B22H   LINE      CODE     ---       #39
      00FF5B34H   LINE      CODE     ---       #42
      00FF5B4FH   LINE      CODE     ---       #43
      00FF5B68H   LINE      CODE     ---       #44
      00FF5B6AH   LINE      CODE     ---       #45
      00FF5B7AH   LINE      CODE     ---       #48
      00FF5B95H   LINE      CODE     ---       #49
      00FF5BAEH   LINE      CODE     ---       #50
      00FF5BAEH   LINE      CODE     ---       #52
      00FF5BBDH   LINE      CODE     ---       #54
      00FF5BC0H   LINE      CODE     ---       #55
      ---         BLOCKEND  ---      ---       LVL=0

      00FF651DH   BLOCK     CODE     ---       LVL=0
      00000D01H   SYMBOL    EDATA    INT       adcn
      00000D03H   SYMBOL    EDATA    INT       resolution
      00FF6525H   BLOCK     CODE     NEAR LAB  LVL=1
      00000D05H   SYMBOL    EDATA    WORD      adc_value
      ---         BLOCKEND  ---      ---       LVL=1
      00FF651DH   LINE      CODE     ---       #66
      00FF6525H   LINE      CODE     ---       #67
      00FF6525H   LINE      CODE     ---       #70
      00FF6528H   LINE      CODE     ---       #71
      00FF6530H   LINE      CODE     ---       #73
      00FF6533H   LINE      CODE     ---       #74
      00FF6538H   LINE      CODE     ---       #75
      00FF653BH   LINE      CODE     ---       #77
      00FF6543H   LINE      CODE     ---       #78
L251 LINKER/LOCATER V4.66.93.0                                                        11/25/2023  21:38:42  PAGE 31


      00FF654BH   LINE      CODE     ---       #79
      00FF6559H   LINE      CODE     ---       #81
      00FF655CH   LINE      CODE     ---       #82
      00FF655FH   LINE      CODE     ---       #84
      00FF6572H   LINE      CODE     ---       #87
      00FF6572H   LINE      CODE     ---       #88
      ---         BLOCKEND  ---      ---       LVL=0

      ---         MODULE    ---      ---       zf_delay
      00FF68B2H   PUBLIC    CODE     ---       delay_init
      00FF69E5H   PUBLIC    CODE     ---       delay_ms
      00000DBCH   PUBLIC    EDATA    WORD      zf_delay_ms
      00000DBEH   PUBLIC    EDATA    WORD      zf_delay_us
      000000D0H   SFRSYM    DATA     BYTE      PSW
      0000009DH   SFRSYM    DATA     BYTE      IRCBAND
      00000097H   SFRSYM    DATA     BYTE      AUXR2
      000000EFH   SFRSYM    DATA     BYTE      AUXINTIF
      000000FDH   SFRSYM    DATA     BYTE      S4CON
      000000ACH   SFRSYM    DATA     BYTE      S3CON
      0000009AH   SFRSYM    DATA     BYTE      S2CON
      000000B7H   SFRSYM    DATA     BYTE      IPH
      000000CDH   SFRSYM    DATA     BYTE      SPSTAT
      000000DDH   SFRSYM    DATA     BYTE      T4T3M
      000000C1H   SFRSYM    DATA     BYTE      WDT_CONTR
      000000DFH   SFRSYM    DATA     BYTE      IP3
      000000F4H   SFRSYM    DATA     BYTE      USBCON
      000000B5H   SFRSYM    DATA     BYTE      IP2
      000000FFH   SFRSYM    DATA     BYTE      RSTCFG
      000000F9H   SFRSYM    DATA     BYTE      LINICR
      0000008EH   SFRSYM    DATA     BYTE      AUXR
      000000AFH   SFRSYM    DATA     BYTE      IE2
      00000088H   SFRSYM    DATA     BYTE      TCON
      00000098H   SFRSYM    DATA     BYTE      SCON
      000000F1H   SFRSYM    DATA     BYTE      CANICR
      00000087H   SFRSYM    DATA     BYTE      PCON
      000000BCH   SFRSYM    DATA     BYTE      ADC_CONTR
      000000E7H   SFRSYM    DATA     BYTE      CMPCR2
      000000E6H   SFRSYM    DATA     BYTE      CMPCR1
      000000B8H   SFRSYM    DATA     BYTE      IP
      0000008FH   SFRSYM    DATA     BYTE      INTCLKO
      000000EEH   SFRSYM    DATA     BYTE      IP3H
      000000B6H   SFRSYM    DATA     BYTE      IP2H
      000000A8H   SFRSYM    DATA     BYTE      IE
      000000BBH   SFRSYM    DATA     BYTE      P_SW3
      000000BAH   SFRSYM    DATA     BYTE      P_SW2
      000000A2H   SFRSYM    DATA     BYTE      P_SW1
      000000CEH   SFRSYM    DATA     BYTE      SPCTL
      000000F8H   SFRSYM    DATA     BYTE      P7
      000000E8H   SFRSYM    DATA     BYTE      P6
      000000C8H   SFRSYM    DATA     BYTE      P5
      000000C0H   SFRSYM    DATA     BYTE      P4
      000000B0H   SFRSYM    DATA     BYTE      P3
      000000A0H   SFRSYM    DATA     BYTE      P2
      00000090H   SFRSYM    DATA     BYTE      P1
      00000080H   SFRSYM    DATA     BYTE      P0

      00FF68B2H   BLOCK     CODE     ---       LVL=0
      00FF68B2H   LINE      CODE     ---       #34
      00FF68B2H   LINE      CODE     ---       #36
      00FF68C1H   LINE      CODE     ---       #37
      00FF68D4H   LINE      CODE     ---       #38
      00FF68F2H   LINE      CODE     ---       #40
      ---         BLOCKEND  ---      ---       LVL=0

      00FF69E5H   BLOCK     CODE     ---       LVL=0
L251 LINKER/LOCATER V4.66.93.0                                                        11/25/2023  21:38:42  PAGE 32


      00000DC0H   SYMBOL    EDATA    WORD      ms
      00FF69E9H   BLOCK     CODE     NEAR LAB  LVL=1
      00000DC2H   SYMBOL    EDATA    WORD      i
      ---         BLOCKEND  ---      ---       LVL=1
      00FF69E5H   LINE      CODE     ---       #48
      00FF69E9H   LINE      CODE     ---       #49
      00FF69E9H   LINE      CODE     ---       #51
      00FF69E9H   LINE      CODE     ---       #52
      00FF69F1H   LINE      CODE     ---       #54
      00FF6A05H   LINE      CODE     ---       #55
      00FF6A19H   LINE      CODE     ---       #56
      ---         BLOCKEND  ---      ---       LVL=0
      00000D07H   SYMBOL    EDATA    DWORD     us
      00000D0BH   SYMBOL    EDATA    WORD      i

      ---         MODULE    ---      ---       zf_eeprom
      000000D0H   SFRSYM    DATA     BYTE      PSW
      0000009DH   SFRSYM    DATA     BYTE      IRCBAND
      000000D0H.5 SFRSYM    DATA     BIT       F0
      00000097H   SFRSYM    DATA     BYTE      AUXR2
      000000C6H   SFRSYM    DATA     BYTE      IAP_TRIG
      000000EFH   SFRSYM    DATA     BYTE      AUXINTIF
      000000FDH   SFRSYM    DATA     BYTE      S4CON
      000000ACH   SFRSYM    DATA     BYTE      S3CON
      0000009AH   SFRSYM    DATA     BYTE      S2CON
      000000B7H   SFRSYM    DATA     BYTE      IPH
      000000CDH   SFRSYM    DATA     BYTE      SPSTAT
      000000DDH   SFRSYM    DATA     BYTE      T4T3M
      000000C1H   SFRSYM    DATA     BYTE      WDT_CONTR
      000000C2H   SFRSYM    DATA     BYTE      IAP_DATA
      000000DFH   SFRSYM    DATA     BYTE      IP3
      000000F4H   SFRSYM    DATA     BYTE      USBCON
      000000B5H   SFRSYM    DATA     BYTE      IP2
      000000FFH   SFRSYM    DATA     BYTE      RSTCFG
      000000C7H   SFRSYM    DATA     BYTE      IAP_CONTR
      000000F9H   SFRSYM    DATA     BYTE      LINICR
      0000008EH   SFRSYM    DATA     BYTE      AUXR
      000000AFH   SFRSYM    DATA     BYTE      IE2
      00000088H   SFRSYM    DATA     BYTE      TCON
      00000098H   SFRSYM    DATA     BYTE      SCON
      000000F5H   SFRSYM    DATA     BYTE      IAP_TPS
      000000F1H   SFRSYM    DATA     BYTE      CANICR
      00000087H   SFRSYM    DATA     BYTE      PCON
      000000BCH   SFRSYM    DATA     BYTE      ADC_CONTR
      000000E7H   SFRSYM    DATA     BYTE      CMPCR2
      000000E6H   SFRSYM    DATA     BYTE      CMPCR1
      000000C4H   SFRSYM    DATA     BYTE      IAP_ADDRL
      000000C3H   SFRSYM    DATA     BYTE      IAP_ADDRH
      000000F6H   SFRSYM    DATA     BYTE      IAP_ADDRE
      000000B8H   SFRSYM    DATA     BYTE      IP
      0000008FH   SFRSYM    DATA     BYTE      INTCLKO
      000000EEH   SFRSYM    DATA     BYTE      IP3H
      000000B6H   SFRSYM    DATA     BYTE      IP2H
      000000C5H   SFRSYM    DATA     BYTE      IAP_CMD
      000000A8H   SFRSYM    DATA     BYTE      IE
      000000BBH   SFRSYM    DATA     BYTE      P_SW3
      000000BAH   SFRSYM    DATA     BYTE      P_SW2
      000000A2H   SFRSYM    DATA     BYTE      P_SW1
      000000CEH   SFRSYM    DATA     BYTE      SPCTL
      000000F8H   SFRSYM    DATA     BYTE      P7
      000000A8H.7 SFRSYM    DATA     BIT       EA
      000000E8H   SFRSYM    DATA     BYTE      P6
      000000C8H   SFRSYM    DATA     BYTE      P5
      000000C0H   SFRSYM    DATA     BYTE      P4
      000000B0H   SFRSYM    DATA     BYTE      P3
L251 LINKER/LOCATER V4.66.93.0                                                        11/25/2023  21:38:42  PAGE 33


      000000A0H   SFRSYM    DATA     BYTE      P2
      00000090H   SFRSYM    DATA     BYTE      P1
      00000080H   SFRSYM    DATA     BYTE      P0
      00000EAFH   SYMBOL    EDATA    BYTE      write_time
      00000C40H   SYMBOL    EDATA    WORD      addr
      00000C42H   SYMBOL    EDATA    ---       buf
      00000C46H   SYMBOL    EDATA    WORD      len
      00000C48H   SYMBOL    EDATA    WORD      addr
      00000C4AH   SYMBOL    EDATA    ---       buf
      00000C4EH   SYMBOL    EDATA    WORD      len
      00000E5CH   SYMBOL    EDATA    WORD      addr
      00000008H   SYMBOL    EDATA    WORD      addr
      0000000AH   SYMBOL    EDATA    ---       buf
      0000000EH   SYMBOL    EDATA    WORD      len
      00000010H   SYMBOL    EDATA    ---       temp
      00000210H   SYMBOL    EDATA    WORD      i

      ---         MODULE    ---      ---       zf_exti
      000000D0H   SFRSYM    DATA     BYTE      PSW
      0000009DH   SFRSYM    DATA     BYTE      IRCBAND
      00000097H   SFRSYM    DATA     BYTE      AUXR2
      000000EFH   SFRSYM    DATA     BYTE      AUXINTIF
      000000FDH   SFRSYM    DATA     BYTE      S4CON
      000000ACH   SFRSYM    DATA     BYTE      S3CON
      0000009AH   SFRSYM    DATA     BYTE      S2CON
      000000B7H   SFRSYM    DATA     BYTE      IPH
      000000CDH   SFRSYM    DATA     BYTE      SPSTAT
      000000DDH   SFRSYM    DATA     BYTE      T4T3M
      000000C1H   SFRSYM    DATA     BYTE      WDT_CONTR
      00000088H.2 SFRSYM    DATA     BIT       IT1
      000000A8H.2 SFRSYM    DATA     BIT       EX1
      00000088H.0 SFRSYM    DATA     BIT       IT0
      000000A8H.0 SFRSYM    DATA     BIT       EX0
      000000DFH   SFRSYM    DATA     BYTE      IP3
      000000F4H   SFRSYM    DATA     BYTE      USBCON
      000000B5H   SFRSYM    DATA     BYTE      IP2
      000000FFH   SFRSYM    DATA     BYTE      RSTCFG
      000000F9H   SFRSYM    DATA     BYTE      LINICR
      0000008EH   SFRSYM    DATA     BYTE      AUXR
      000000AFH   SFRSYM    DATA     BYTE      IE2
      00000088H   SFRSYM    DATA     BYTE      TCON
      00000098H   SFRSYM    DATA     BYTE      SCON
      000000F1H   SFRSYM    DATA     BYTE      CANICR
      00000087H   SFRSYM    DATA     BYTE      PCON
      000000BCH   SFRSYM    DATA     BYTE      ADC_CONTR
      000000E7H   SFRSYM    DATA     BYTE      CMPCR2
      000000E6H   SFRSYM    DATA     BYTE      CMPCR1
      000000B8H   SFRSYM    DATA     BYTE      IP
      0000008FH   SFRSYM    DATA     BYTE      INTCLKO
      000000EEH   SFRSYM    DATA     BYTE      IP3H
      000000B6H   SFRSYM    DATA     BYTE      IP2H
      000000A8H   SFRSYM    DATA     BYTE      IE
      000000BBH   SFRSYM    DATA     BYTE      P_SW3
      000000BAH   SFRSYM    DATA     BYTE      P_SW2
      000000A2H   SFRSYM    DATA     BYTE      P_SW1
      000000CEH   SFRSYM    DATA     BYTE      SPCTL
      000000F8H   SFRSYM    DATA     BYTE      P7
      000000E8H   SFRSYM    DATA     BYTE      P6
      000000C8H   SFRSYM    DATA     BYTE      P5
      000000C0H   SFRSYM    DATA     BYTE      P4
      000000B0H   SFRSYM    DATA     BYTE      P3
      000000A0H   SFRSYM    DATA     BYTE      P2
      00000090H   SFRSYM    DATA     BYTE      P1
      00000080H   SFRSYM    DATA     BYTE      P0
      00000DC4H   SYMBOL    EDATA    INT       int_n
L251 LINKER/LOCATER V4.66.93.0                                                        11/25/2023  21:38:42  PAGE 34


      00000DC6H   SYMBOL    EDATA    INT       mode

      ---         MODULE    ---      ---       zf_gpio
      00FF3857H   PUBLIC    CODE     ---       gpio_mode
      00000094H   SFRSYM    DATA     BYTE      P0M0
      000000D0H   SFRSYM    DATA     BYTE      PSW
      0000009DH   SFRSYM    DATA     BYTE      IRCBAND
      00000097H   SFRSYM    DATA     BYTE      AUXR2
      000000EFH   SFRSYM    DATA     BYTE      AUXINTIF
      000000FDH   SFRSYM    DATA     BYTE      S4CON
      000000ACH   SFRSYM    DATA     BYTE      S3CON
      0000009AH   SFRSYM    DATA     BYTE      S2CON
      000000B7H   SFRSYM    DATA     BYTE      IPH
      000000CDH   SFRSYM    DATA     BYTE      SPSTAT
      000000DDH   SFRSYM    DATA     BYTE      T4T3M
      000000C1H   SFRSYM    DATA     BYTE      WDT_CONTR
      000000DFH   SFRSYM    DATA     BYTE      IP3
      000000F4H   SFRSYM    DATA     BYTE      USBCON
      000000B5H   SFRSYM    DATA     BYTE      IP2
      000000FFH   SFRSYM    DATA     BYTE      RSTCFG
      000000F9H   SFRSYM    DATA     BYTE      LINICR
      0000008EH   SFRSYM    DATA     BYTE      AUXR
      000000AFH   SFRSYM    DATA     BYTE      IE2
      00000088H   SFRSYM    DATA     BYTE      TCON
      00000098H   SFRSYM    DATA     BYTE      SCON
      000000F1H   SFRSYM    DATA     BYTE      CANICR
      00000087H   SFRSYM    DATA     BYTE      PCON
      000000BCH   SFRSYM    DATA     BYTE      ADC_CONTR
      000000E7H   SFRSYM    DATA     BYTE      CMPCR2
      000000E6H   SFRSYM    DATA     BYTE      CMPCR1
      000000B8H   SFRSYM    DATA     BYTE      IP
      0000008FH   SFRSYM    DATA     BYTE      INTCLKO
      000000EEH   SFRSYM    DATA     BYTE      IP3H
      000000B6H   SFRSYM    DATA     BYTE      IP2H
      000000A8H   SFRSYM    DATA     BYTE      IE
      000000BBH   SFRSYM    DATA     BYTE      P_SW3
      000000BAH   SFRSYM    DATA     BYTE      P_SW2
      000000A2H   SFRSYM    DATA     BYTE      P_SW1
      000000CEH   SFRSYM    DATA     BYTE      SPCTL
      000000F8H   SFRSYM    DATA     BYTE      P7
      000000E1H   SFRSYM    DATA     BYTE      P7M1
      000000E8H   SFRSYM    DATA     BYTE      P6
      000000C8H   SFRSYM    DATA     BYTE      P5
      000000CBH   SFRSYM    DATA     BYTE      P6M1
      000000E2H   SFRSYM    DATA     BYTE      P7M0
      000000C0H   SFRSYM    DATA     BYTE      P4
      000000C9H   SFRSYM    DATA     BYTE      P5M1
      000000CCH   SFRSYM    DATA     BYTE      P6M0
      000000B0H   SFRSYM    DATA     BYTE      P3
      000000B3H   SFRSYM    DATA     BYTE      P4M1
      000000CAH   SFRSYM    DATA     BYTE      P5M0
      000000A0H   SFRSYM    DATA     BYTE      P2
      000000B1H   SFRSYM    DATA     BYTE      P3M1
      000000B4H   SFRSYM    DATA     BYTE      P4M0
      00000090H   SFRSYM    DATA     BYTE      P1
      00000095H   SFRSYM    DATA     BYTE      P2M1
      000000B2H   SFRSYM    DATA     BYTE      P3M0
      00000080H   SFRSYM    DATA     BYTE      P0
      00000091H   SFRSYM    DATA     BYTE      P1M1
      00000096H   SFRSYM    DATA     BYTE      P2M0
      00000092H   SFRSYM    DATA     BYTE      P1M0
      00000093H   SFRSYM    DATA     BYTE      P0M1
      00000DC8H   SYMBOL    EDATA    INT       pin
      00000DCAH   SYMBOL    EDATA    INT       pull

L251 LINKER/LOCATER V4.66.93.0                                                        11/25/2023  21:38:42  PAGE 35


      00FF3857H   BLOCK     CODE     ---       LVL=0
      00000DCCH   SYMBOL    EDATA    INT       pin
      00000DCEH   SYMBOL    EDATA    INT       mode
      00FF3857H   LINE      CODE     ---       #54
      00FF385FH   LINE      CODE     ---       #56
      00FF386CH   LINE      CODE     ---       #58
      00FF387CH   LINE      CODE     ---       #60
      00FF3897H   LINE      CODE     ---       #61
      00FF38B2H   LINE      CODE     ---       #62
      00FF38B2H   LINE      CODE     ---       #63
      00FF38C4H   LINE      CODE     ---       #65
      00FF38DFH   LINE      CODE     ---       #66
      00FF38FAH   LINE      CODE     ---       #67
      00FF38FAH   LINE      CODE     ---       #68
      00FF390CH   LINE      CODE     ---       #70
      00FF3927H   LINE      CODE     ---       #71
      00FF3942H   LINE      CODE     ---       #72
      00FF3942H   LINE      CODE     ---       #74
      00FF3954H   LINE      CODE     ---       #76
      00FF396FH   LINE      CODE     ---       #77
      00FF398AH   LINE      CODE     ---       #78
      00FF398AH   LINE      CODE     ---       #79
      00FF399CH   LINE      CODE     ---       #81
      00FF39B7H   LINE      CODE     ---       #82
      00FF39D2H   LINE      CODE     ---       #83
      00FF39D2H   LINE      CODE     ---       #84
      00FF39E4H   LINE      CODE     ---       #86
      00FF39FFH   LINE      CODE     ---       #87
      00FF3A1AH   LINE      CODE     ---       #88
      00FF3A1AH   LINE      CODE     ---       #89
      00FF3A2CH   LINE      CODE     ---       #91
      00FF3A47H   LINE      CODE     ---       #92
      00FF3A62H   LINE      CODE     ---       #93
      00FF3A62H   LINE      CODE     ---       #94
      00FF3A77H   LINE      CODE     ---       #96
      00FF3A92H   LINE      CODE     ---       #97
      00FF3AADH   LINE      CODE     ---       #98
      00FF3AB0H   LINE      CODE     ---       #100
      00FF3ABFH   LINE      CODE     ---       #102
      00FF3ACFH   LINE      CODE     ---       #104
      00FF3AEAH   LINE      CODE     ---       #105
      00FF3B03H   LINE      CODE     ---       #106
      00FF3B03H   LINE      CODE     ---       #107
      00FF3B15H   LINE      CODE     ---       #109
      00FF3B30H   LINE      CODE     ---       #110
      00FF3B49H   LINE      CODE     ---       #111
      00FF3B49H   LINE      CODE     ---       #112
      00FF3B5BH   LINE      CODE     ---       #114
      00FF3B76H   LINE      CODE     ---       #115
      00FF3B8FH   LINE      CODE     ---       #116
      00FF3B8FH   LINE      CODE     ---       #118
      00FF3BA1H   LINE      CODE     ---       #120
      00FF3BBCH   LINE      CODE     ---       #121
      00FF3BD5H   LINE      CODE     ---       #122
      00FF3BD5H   LINE      CODE     ---       #123
      00FF3BE7H   LINE      CODE     ---       #125
      00FF3C02H   LINE      CODE     ---       #126
      00FF3C1BH   LINE      CODE     ---       #127
      00FF3C1BH   LINE      CODE     ---       #128
      00FF3C2DH   LINE      CODE     ---       #130
      00FF3C48H   LINE      CODE     ---       #131
      00FF3C61H   LINE      CODE     ---       #132
      00FF3C61H   LINE      CODE     ---       #133
      00FF3C73H   LINE      CODE     ---       #135
      00FF3C8EH   LINE      CODE     ---       #136
L251 LINKER/LOCATER V4.66.93.0                                                        11/25/2023  21:38:42  PAGE 36


      00FF3CA7H   LINE      CODE     ---       #137
      00FF3CA7H   LINE      CODE     ---       #138
      00FF3CBCH   LINE      CODE     ---       #140
      00FF3CD7H   LINE      CODE     ---       #141
      00FF3CF0H   LINE      CODE     ---       #142
      00FF3CF3H   LINE      CODE     ---       #145
      00FF3D02H   LINE      CODE     ---       #147
      00FF3D12H   LINE      CODE     ---       #149
      00FF3D2BH   LINE      CODE     ---       #150
      00FF3D46H   LINE      CODE     ---       #151
      00FF3D46H   LINE      CODE     ---       #152
      00FF3D58H   LINE      CODE     ---       #154
      00FF3D71H   LINE      CODE     ---       #155
      00FF3D8CH   LINE      CODE     ---       #156
      00FF3D8CH   LINE      CODE     ---       #157
      00FF3D9EH   LINE      CODE     ---       #159
      00FF3DB7H   LINE      CODE     ---       #160
      00FF3DD2H   LINE      CODE     ---       #161
      00FF3DD2H   LINE      CODE     ---       #163
      00FF3DE4H   LINE      CODE     ---       #165
      00FF3DFDH   LINE      CODE     ---       #166
      00FF3E18H   LINE      CODE     ---       #167
      00FF3E18H   LINE      CODE     ---       #168
      00FF3E2AH   LINE      CODE     ---       #170
      00FF3E43H   LINE      CODE     ---       #171
      00FF3E5EH   LINE      CODE     ---       #172
      00FF3E5EH   LINE      CODE     ---       #173
      00FF3E70H   LINE      CODE     ---       #175
      00FF3E89H   LINE      CODE     ---       #176
      00FF3EA4H   LINE      CODE     ---       #177
      00FF3EA4H   LINE      CODE     ---       #178
      00FF3EB6H   LINE      CODE     ---       #180
      00FF3ECFH   LINE      CODE     ---       #181
      00FF3EEAH   LINE      CODE     ---       #182
      00FF3EEAH   LINE      CODE     ---       #183
      00FF3EFFH   LINE      CODE     ---       #185
      00FF3F18H   LINE      CODE     ---       #186
      00FF3F33H   LINE      CODE     ---       #187
      00FF3F36H   LINE      CODE     ---       #189
      00FF3F45H   LINE      CODE     ---       #191
      00FF3F55H   LINE      CODE     ---       #193
      00FF3F6EH   LINE      CODE     ---       #194
      00FF3F87H   LINE      CODE     ---       #195
      00FF3F87H   LINE      CODE     ---       #196
      00FF3F99H   LINE      CODE     ---       #198
      00FF3FB2H   LINE      CODE     ---       #199
      00FF3FCBH   LINE      CODE     ---       #200
      00FF3FCBH   LINE      CODE     ---       #201
      00FF3FDDH   LINE      CODE     ---       #203
      00FF3FF6H   LINE      CODE     ---       #204
      00FF400FH   LINE      CODE     ---       #205
      00FF400FH   LINE      CODE     ---       #207
      00FF4021H   LINE      CODE     ---       #209
      00FF403AH   LINE      CODE     ---       #210
      00FF4053H   LINE      CODE     ---       #211
      00FF4053H   LINE      CODE     ---       #212
      00FF4065H   LINE      CODE     ---       #214
      00FF407EH   LINE      CODE     ---       #215
      00FF4097H   LINE      CODE     ---       #216
      00FF4097H   LINE      CODE     ---       #217
      00FF40A9H   LINE      CODE     ---       #219
      00FF40C2H   LINE      CODE     ---       #220
      00FF40DBH   LINE      CODE     ---       #221
      00FF40DBH   LINE      CODE     ---       #222
      00FF40EDH   LINE      CODE     ---       #224
L251 LINKER/LOCATER V4.66.93.0                                                        11/25/2023  21:38:42  PAGE 37


      00FF4106H   LINE      CODE     ---       #225
      00FF411FH   LINE      CODE     ---       #226
      00FF411FH   LINE      CODE     ---       #227
      00FF4131H   LINE      CODE     ---       #229
      00FF414AH   LINE      CODE     ---       #230
      00FF4163H   LINE      CODE     ---       #231
      00FF4163H   LINE      CODE     ---       #233
      ---         BLOCKEND  ---      ---       LVL=0

      ---         MODULE    ---      ---       zf_iic
      00000D09H   PUBLIC    EDATA    BYTE      ?iic_init?BYTE
      000000D0H   SFRSYM    DATA     BYTE      PSW
      0000009DH   SFRSYM    DATA     BYTE      IRCBAND
      00000097H   SFRSYM    DATA     BYTE      AUXR2
      000000EFH   SFRSYM    DATA     BYTE      AUXINTIF
      000000FDH   SFRSYM    DATA     BYTE      S4CON
      000000ACH   SFRSYM    DATA     BYTE      S3CON
      0000009AH   SFRSYM    DATA     BYTE      S2CON
      000000B7H   SFRSYM    DATA     BYTE      IPH
      000000CDH   SFRSYM    DATA     BYTE      SPSTAT
      000000DDH   SFRSYM    DATA     BYTE      T4T3M
      000000C1H   SFRSYM    DATA     BYTE      WDT_CONTR
      000000DFH   SFRSYM    DATA     BYTE      IP3
      000000F4H   SFRSYM    DATA     BYTE      USBCON
      000000B5H   SFRSYM    DATA     BYTE      IP2
      000000FFH   SFRSYM    DATA     BYTE      RSTCFG
      000000F9H   SFRSYM    DATA     BYTE      LINICR
      0000008EH   SFRSYM    DATA     BYTE      AUXR
      000000AFH   SFRSYM    DATA     BYTE      IE2
      00000088H   SFRSYM    DATA     BYTE      TCON
      00000098H   SFRSYM    DATA     BYTE      SCON
      000000F1H   SFRSYM    DATA     BYTE      CANICR
      00000087H   SFRSYM    DATA     BYTE      PCON
      000000BCH   SFRSYM    DATA     BYTE      ADC_CONTR
      000000E7H   SFRSYM    DATA     BYTE      CMPCR2
      000000E6H   SFRSYM    DATA     BYTE      CMPCR1
      000000B8H   SFRSYM    DATA     BYTE      IP
      0000008FH   SFRSYM    DATA     BYTE      INTCLKO
      000000EEH   SFRSYM    DATA     BYTE      IP3H
      000000B6H   SFRSYM    DATA     BYTE      IP2H
      000000A8H   SFRSYM    DATA     BYTE      IE
      000000BBH   SFRSYM    DATA     BYTE      P_SW3
      000000BAH   SFRSYM    DATA     BYTE      P_SW2
      000000A2H   SFRSYM    DATA     BYTE      P_SW1
      000000CEH   SFRSYM    DATA     BYTE      SPCTL
      000000F8H   SFRSYM    DATA     BYTE      P7
      000000E8H   SFRSYM    DATA     BYTE      P6
      000000C8H   SFRSYM    DATA     BYTE      P5
      000000C0H   SFRSYM    DATA     BYTE      P4
      000000B0H   SFRSYM    DATA     BYTE      P3
      000000A0H   SFRSYM    DATA     BYTE      P2
      00000090H   SFRSYM    DATA     BYTE      P1
      00000080H   SFRSYM    DATA     BYTE      P0
      00000E0CH   SYMBOL    EDATA    WORD      x
      00000E0EH   SYMBOL    EDATA    BYTE      i
      00000E0FH   SYMBOL    EDATA    WORD      count
      00000E11H   SYMBOL    EDATA    BYTE      ret
      00000EB0H   SYMBOL    EDATA    BYTE      ret
      00000E5EH   SYMBOL    EDATA    CHAR      dat
      00000E5FH   SYMBOL    EDATA    BYTE      ret
      00000EB1H   SYMBOL    EDATA    BYTE      ret
      00000EB2H   SYMBOL    EDATA    BYTE      ret
      00000EB3H   SYMBOL    EDATA    BYTE      ret
      00000D0DH   SYMBOL    EDATA    INT       iic_n
      00000D0FH   SYMBOL    EDATA    DWORD     wait_time
L251 LINKER/LOCATER V4.66.93.0                                                        11/25/2023  21:38:42  PAGE 38


      00000E12H   SYMBOL    EDATA    BYTE      dev_add
      00000E13H   SYMBOL    EDATA    BYTE      reg
      00000E14H   SYMBOL    EDATA    BYTE      dat
      00000D13H   SYMBOL    EDATA    BYTE      dev_add
      00000D14H   SYMBOL    EDATA    BYTE      reg
      00000D15H   SYMBOL    EDATA    ---       dat
      00000CD0H   SYMBOL    EDATA    BYTE      dev_add
      00000CD1H   SYMBOL    EDATA    BYTE      reg
      00000CD2H   SYMBOL    EDATA    ---       dat
      00000CD6H   SYMBOL    EDATA    BYTE      num
      00000E60H   SYMBOL    EDATA    INT       iic_n

      ---         MODULE    ---      ---       zf_nvic
      000000D0H   SFRSYM    DATA     BYTE      PSW
      0000009DH   SFRSYM    DATA     BYTE      IRCBAND
      00000097H   SFRSYM    DATA     BYTE      AUXR2
      000000EFH   SFRSYM    DATA     BYTE      AUXINTIF
      000000FDH   SFRSYM    DATA     BYTE      S4CON
      000000ACH   SFRSYM    DATA     BYTE      S3CON
      0000009AH   SFRSYM    DATA     BYTE      S2CON
      000000B7H   SFRSYM    DATA     BYTE      IPH
      000000CDH   SFRSYM    DATA     BYTE      SPSTAT
      000000DDH   SFRSYM    DATA     BYTE      T4T3M
      000000C1H   SFRSYM    DATA     BYTE      WDT_CONTR
      000000DFH   SFRSYM    DATA     BYTE      IP3
      000000F4H   SFRSYM    DATA     BYTE      USBCON
      000000B5H   SFRSYM    DATA     BYTE      IP2
      000000FFH   SFRSYM    DATA     BYTE      RSTCFG
      000000F9H   SFRSYM    DATA     BYTE      LINICR
      0000008EH   SFRSYM    DATA     BYTE      AUXR
      000000AFH   SFRSYM    DATA     BYTE      IE2
      00000088H   SFRSYM    DATA     BYTE      TCON
      00000098H   SFRSYM    DATA     BYTE      SCON
      000000F1H   SFRSYM    DATA     BYTE      CANICR
      00000087H   SFRSYM    DATA     BYTE      PCON
      000000BCH   SFRSYM    DATA     BYTE      ADC_CONTR
      000000E7H   SFRSYM    DATA     BYTE      CMPCR2
      000000E6H   SFRSYM    DATA     BYTE      CMPCR1
      000000B8H   SFRSYM    DATA     BYTE      IP
      0000008FH   SFRSYM    DATA     BYTE      INTCLKO
      000000EEH   SFRSYM    DATA     BYTE      IP3H
      000000B6H   SFRSYM    DATA     BYTE      IP2H
      000000A8H   SFRSYM    DATA     BYTE      IE
      000000BBH   SFRSYM    DATA     BYTE      P_SW3
      000000BAH   SFRSYM    DATA     BYTE      P_SW2
      000000A2H   SFRSYM    DATA     BYTE      P_SW1
      000000CEH   SFRSYM    DATA     BYTE      SPCTL
      000000F8H   SFRSYM    DATA     BYTE      P7
      000000E8H   SFRSYM    DATA     BYTE      P6
      000000C8H   SFRSYM    DATA     BYTE      P5
      000000C0H   SFRSYM    DATA     BYTE      P4
      000000B0H   SFRSYM    DATA     BYTE      P3
      000000A0H   SFRSYM    DATA     BYTE      P2
      00000090H   SFRSYM    DATA     BYTE      P1
      00000080H   SFRSYM    DATA     BYTE      P0
      00000E15H   SYMBOL    EDATA    INT       irqn
      00000E17H   SYMBOL    EDATA    BYTE      priority

      ---         MODULE    ---      ---       zf_pwm
      00FF55F7H   PUBLIC    CODE     ---       pwm_duty
      00FF453EH   PUBLIC    CODE     ---       pwm_set_gpio
      00FF4164H   PUBLIC    CODE     ---       pwm_init
      00FE00EBH   PUBLIC    HCONST   ---       PWM_CCR_ADDR
      00FE010BH   PUBLIC    HCONST   ---       PWM_ARR_ADDR
      00FE0113H   PUBLIC    HCONST   ---       PWM_CCER_ADDR
L251 LINKER/LOCATER V4.66.93.0                                                        11/25/2023  21:38:42  PAGE 39


      00FE0123H   PUBLIC    HCONST   ---       PWM_CCMR_ADDR
      00000936H   PUBLIC    EDATA    BYTE      ?pwm_init?BYTE
      0000094AH   PUBLIC    EDATA    BYTE      ?pwm_freq?BYTE
      000000D0H   SFRSYM    DATA     BYTE      PSW
      0000009DH   SFRSYM    DATA     BYTE      IRCBAND
      00000097H   SFRSYM    DATA     BYTE      AUXR2
      000000EFH   SFRSYM    DATA     BYTE      AUXINTIF
      000000FDH   SFRSYM    DATA     BYTE      S4CON
      000000ACH   SFRSYM    DATA     BYTE      S3CON
      0000009AH   SFRSYM    DATA     BYTE      S2CON
      000000B7H   SFRSYM    DATA     BYTE      IPH
      000000CDH   SFRSYM    DATA     BYTE      SPSTAT
      000000DDH   SFRSYM    DATA     BYTE      T4T3M
      000000C1H   SFRSYM    DATA     BYTE      WDT_CONTR
      000000DFH   SFRSYM    DATA     BYTE      IP3
      000000F4H   SFRSYM    DATA     BYTE      USBCON
      000000B5H   SFRSYM    DATA     BYTE      IP2
      000000FFH   SFRSYM    DATA     BYTE      RSTCFG
      000000F9H   SFRSYM    DATA     BYTE      LINICR
      0000008EH   SFRSYM    DATA     BYTE      AUXR
      000000AFH   SFRSYM    DATA     BYTE      IE2
      00000088H   SFRSYM    DATA     BYTE      TCON
      00000098H   SFRSYM    DATA     BYTE      SCON
      000000F1H   SFRSYM    DATA     BYTE      CANICR
      00000087H   SFRSYM    DATA     BYTE      PCON
      000000BCH   SFRSYM    DATA     BYTE      ADC_CONTR
      000000E7H   SFRSYM    DATA     BYTE      CMPCR2
      000000E6H   SFRSYM    DATA     BYTE      CMPCR1
      000000B8H   SFRSYM    DATA     BYTE      IP
      0000008FH   SFRSYM    DATA     BYTE      INTCLKO
      000000EEH   SFRSYM    DATA     BYTE      IP3H
      000000B6H   SFRSYM    DATA     BYTE      IP2H
      000000A8H   SFRSYM    DATA     BYTE      IE
      000000BBH   SFRSYM    DATA     BYTE      P_SW3
      000000BAH   SFRSYM    DATA     BYTE      P_SW2
      000000A2H   SFRSYM    DATA     BYTE      P_SW1
      000000CEH   SFRSYM    DATA     BYTE      SPCTL
      000000F8H   SFRSYM    DATA     BYTE      P7
      000000E8H   SFRSYM    DATA     BYTE      P6
      000000C8H   SFRSYM    DATA     BYTE      P5
      000000C0H   SFRSYM    DATA     BYTE      P4
      000000B0H   SFRSYM    DATA     BYTE      P3
      000000A0H   SFRSYM    DATA     BYTE      P2
      00000090H   SFRSYM    DATA     BYTE      P1
      00000080H   SFRSYM    DATA     BYTE      P0

      00FF453EH   BLOCK     CODE     ---       LVL=0
      00000E62H   SYMBOL    EDATA    INT       pwmch
      00FF453EH   LINE      CODE     ---       #49
      00FF4542H   LINE      CODE     ---       #51
      00FF46B7H   LINE      CODE     ---       #53
      00FF46B7H   LINE      CODE     ---       #55
      00FF46C2H   LINE      CODE     ---       #56
      00FF46C5H   LINE      CODE     ---       #58
      00FF46C5H   LINE      CODE     ---       #60
      00FF46D0H   LINE      CODE     ---       #61
      00FF46D3H   LINE      CODE     ---       #63
      00FF46D3H   LINE      CODE     ---       #65
      00FF46DEH   LINE      CODE     ---       #66
      00FF46E1H   LINE      CODE     ---       #68
      00FF46E1H   LINE      CODE     ---       #70
      00FF46ECH   LINE      CODE     ---       #71
      00FF46EFH   LINE      CODE     ---       #73
      00FF46EFH   LINE      CODE     ---       #75
      00FF46FAH   LINE      CODE     ---       #76
L251 LINKER/LOCATER V4.66.93.0                                                        11/25/2023  21:38:42  PAGE 40


      00FF46FDH   LINE      CODE     ---       #78
      00FF46FDH   LINE      CODE     ---       #80
      00FF4708H   LINE      CODE     ---       #81
      00FF470BH   LINE      CODE     ---       #84
      00FF470BH   LINE      CODE     ---       #86
      00FF4716H   LINE      CODE     ---       #87
      00FF4719H   LINE      CODE     ---       #89
      00FF4719H   LINE      CODE     ---       #91
      00FF4724H   LINE      CODE     ---       #92
      00FF4727H   LINE      CODE     ---       #94
      00FF4727H   LINE      CODE     ---       #96
      00FF4732H   LINE      CODE     ---       #97
      00FF4735H   LINE      CODE     ---       #99
      00FF4735H   LINE      CODE     ---       #101
      00FF4740H   LINE      CODE     ---       #102
      00FF4743H   LINE      CODE     ---       #104
      00FF4743H   LINE      CODE     ---       #106
      00FF474EH   LINE      CODE     ---       #107
      00FF4751H   LINE      CODE     ---       #109
      00FF4751H   LINE      CODE     ---       #111
      00FF475CH   LINE      CODE     ---       #112
      00FF475FH   LINE      CODE     ---       #115
      00FF475FH   LINE      CODE     ---       #117
      00FF476AH   LINE      CODE     ---       #118
      00FF476DH   LINE      CODE     ---       #120
      00FF476DH   LINE      CODE     ---       #122
      00FF4778H   LINE      CODE     ---       #123
      00FF477BH   LINE      CODE     ---       #125
      00FF477BH   LINE      CODE     ---       #127
      00FF4786H   LINE      CODE     ---       #128
      00FF4789H   LINE      CODE     ---       #130
      00FF4789H   LINE      CODE     ---       #132
      00FF4794H   LINE      CODE     ---       #133
      00FF4797H   LINE      CODE     ---       #135
      00FF4797H   LINE      CODE     ---       #137
      00FF47A2H   LINE      CODE     ---       #138
      00FF47A5H   LINE      CODE     ---       #140
      00FF47A5H   LINE      CODE     ---       #142
      00FF47B0H   LINE      CODE     ---       #143
      00FF47B3H   LINE      CODE     ---       #147
      00FF47B3H   LINE      CODE     ---       #149
      00FF47BEH   LINE      CODE     ---       #150
      00FF47C1H   LINE      CODE     ---       #152
      00FF47C1H   LINE      CODE     ---       #154
      00FF47CCH   LINE      CODE     ---       #155
      00FF47CFH   LINE      CODE     ---       #157
      00FF47CFH   LINE      CODE     ---       #159
      00FF47DAH   LINE      CODE     ---       #160
      00FF47DDH   LINE      CODE     ---       #162
      00FF47DDH   LINE      CODE     ---       #164
      00FF47E8H   LINE      CODE     ---       #165
      00FF47EBH   LINE      CODE     ---       #167
      00FF47EBH   LINE      CODE     ---       #169
      00FF47F6H   LINE      CODE     ---       #170
      00FF47F9H   LINE      CODE     ---       #172
      00FF47F9H   LINE      CODE     ---       #174
      00FF4804H   LINE      CODE     ---       #175
      00FF4807H   LINE      CODE     ---       #177
      00FF4807H   LINE      CODE     ---       #179
      00FF4812H   LINE      CODE     ---       #180
      00FF4815H   LINE      CODE     ---       #182
      00FF4815H   LINE      CODE     ---       #184
      00FF4820H   LINE      CODE     ---       #185
      00FF4823H   LINE      CODE     ---       #189
      00FF4823H   LINE      CODE     ---       #191
L251 LINKER/LOCATER V4.66.93.0                                                        11/25/2023  21:38:42  PAGE 41


      00FF482EH   LINE      CODE     ---       #192
      00FF4831H   LINE      CODE     ---       #194
      00FF4831H   LINE      CODE     ---       #196
      00FF483CH   LINE      CODE     ---       #197
      00FF483FH   LINE      CODE     ---       #199
      00FF483FH   LINE      CODE     ---       #201
      00FF4848H   LINE      CODE     ---       #202
      00FF484BH   LINE      CODE     ---       #204
      00FF484BH   LINE      CODE     ---       #206
      00FF4856H   LINE      CODE     ---       #207
      00FF4859H   LINE      CODE     ---       #210
      00FF4859H   LINE      CODE     ---       #212
      00FF4864H   LINE      CODE     ---       #213
      00FF4867H   LINE      CODE     ---       #215
      00FF4867H   LINE      CODE     ---       #217
      00FF4872H   LINE      CODE     ---       #218
      00FF4875H   LINE      CODE     ---       #220
      00FF4875H   LINE      CODE     ---       #222
      00FF4880H   LINE      CODE     ---       #223
      00FF4882H   LINE      CODE     ---       #225
      00FF4882H   LINE      CODE     ---       #227
      00FF488DH   LINE      CODE     ---       #228
      00FF488FH   LINE      CODE     ---       #232
      00FF488FH   LINE      CODE     ---       #234
      00FF489AH   LINE      CODE     ---       #235
      00FF489CH   LINE      CODE     ---       #237
      00FF489CH   LINE      CODE     ---       #239
      00FF48A7H   LINE      CODE     ---       #240
      00FF48A9H   LINE      CODE     ---       #242
      00FF48A9H   LINE      CODE     ---       #244
      00FF48B4H   LINE      CODE     ---       #245
      00FF48B6H   LINE      CODE     ---       #247
      00FF48B6H   LINE      CODE     ---       #249
      00FF48C1H   LINE      CODE     ---       #250
      00FF48C3H   LINE      CODE     ---       #254
      00FF48C3H   LINE      CODE     ---       #256
      00FF48CEH   LINE      CODE     ---       #257
      00FF48D0H   LINE      CODE     ---       #259
      00FF48D0H   LINE      CODE     ---       #261
      00FF48DBH   LINE      CODE     ---       #262
      00FF48DDH   LINE      CODE     ---       #264
      00FF48DDH   LINE      CODE     ---       #266
      00FF48E8H   LINE      CODE     ---       #267
      00FF48EAH   LINE      CODE     ---       #269
      00FF48EAH   LINE      CODE     ---       #271
      00FF48F5H   LINE      CODE     ---       #272
      00FF48F5H   LINE      CODE     ---       #275
      00FF48F5H   LINE      CODE     ---       #277
      ---         BLOCKEND  ---      ---       LVL=0

      00FF4164H   BLOCK     CODE     ---       LVL=0
      00000936H   SYMBOL    EDATA    INT       pwmch
      00000938H   SYMBOL    EDATA    DWORD     freq
      0000093CH   SYMBOL    EDATA    DWORD     duty
      00FF416CH   BLOCK     CODE     NEAR LAB  LVL=1
      00000940H   SYMBOL    EDATA    DWORD     match_temp
      00000944H   SYMBOL    EDATA    DWORD     period_temp
      00000948H   SYMBOL    EDATA    WORD      freq_div
      ---         BLOCKEND  ---      ---       LVL=1
      00FF4164H   LINE      CODE     ---       #290
      00FF416CH   LINE      CODE     ---       #291
      00FF416CH   LINE      CODE     ---       #295
      00FF4172H   LINE      CODE     ---       #298
      00FF4175H   LINE      CODE     ---       #301
      00FF417CH   LINE      CODE     ---       #305
L251 LINKER/LOCATER V4.66.93.0                                                        11/25/2023  21:38:42  PAGE 42


      00FF418FH   LINE      CODE     ---       #306
      00FF419EH   LINE      CODE     ---       #307
      00FF41B9H   LINE      CODE     ---       #309
      00FF41C3H   LINE      CODE     ---       #311
      00FF41EAH   LINE      CODE     ---       #312
      00FF41ECH   LINE      CODE     ---       #315
      00FF41FAH   LINE      CODE     ---       #316
      00FF41FAH   LINE      CODE     ---       #319
      00FF4209H   LINE      CODE     ---       #322
      00FF423AH   LINE      CODE     ---       #323
      00FF4271H   LINE      CODE     ---       #326
      00FF42C3H   LINE      CODE     ---       #329
      00FF42D6H   LINE      CODE     ---       #330
      00FF42E5H   LINE      CODE     ---       #332
      00FF42F2H   LINE      CODE     ---       #333
      00FF42FFH   LINE      CODE     ---       #334
      00FF4302H   LINE      CODE     ---       #337
      00FF4340H   LINE      CODE     ---       #338
      00FF4373H   LINE      CODE     ---       #341
      00FF43D3H   LINE      CODE     ---       #345
      00FF43E6H   LINE      CODE     ---       #346
      00FF43F5H   LINE      CODE     ---       #348
      00FF4402H   LINE      CODE     ---       #349
      00FF440FH   LINE      CODE     ---       #350
      00FF440FH   LINE      CODE     ---       #353
      00FF4441H   LINE      CODE     ---       #354
      00FF4479H   LINE      CODE     ---       #357
      00FF44A7H   LINE      CODE     ---       #358
      00FF44DBH   LINE      CODE     ---       #361
      00FF450CH   LINE      CODE     ---       #362
      00FF453DH   LINE      CODE     ---       #367
      ---         BLOCKEND  ---      ---       LVL=0

      00FF55F7H   BLOCK     CODE     ---       LVL=0
      000009B9H   SYMBOL    EDATA    INT       pwmch
      000009BBH   SYMBOL    EDATA    DWORD     duty
      00FF55FFH   BLOCK     CODE     NEAR LAB  LVL=1
      000009BFH   SYMBOL    EDATA    DWORD     match_temp
      000009C3H   SYMBOL    EDATA    DWORD     arr
      ---         BLOCKEND  ---      ---       LVL=1
      00FF55F7H   LINE      CODE     ---       #377
      00FF55FFH   LINE      CODE     ---       #378
      00FF55FFH   LINE      CODE     ---       #380
      00FF566BH   LINE      CODE     ---       #384
      00FF5675H   LINE      CODE     ---       #386
      00FF569CH   LINE      CODE     ---       #387
      00FF569EH   LINE      CODE     ---       #390
      00FF56ACH   LINE      CODE     ---       #391
      00FF56ACH   LINE      CODE     ---       #396
      00FF56DAH   LINE      CODE     ---       #397
      00FF570EH   LINE      CODE     ---       #401
      ---         BLOCKEND  ---      ---       LVL=0
      0000094AH   SYMBOL    EDATA    INT       pwmch
      0000094CH   SYMBOL    EDATA    DWORD     freq
      00000950H   SYMBOL    EDATA    DWORD     duty
      00000954H   SYMBOL    EDATA    DWORD     match_temp
      00000958H   SYMBOL    EDATA    DWORD     period_temp
      0000095CH   SYMBOL    EDATA    WORD      freq_div

      ---         MODULE    ---      ---       zf_spi
      00000CD1H   PUBLIC    EDATA    BYTE      ?spi_init?BYTE
      000000CFH   SFRSYM    DATA     BYTE      SPDAT
      000000D0H   SFRSYM    DATA     BYTE      PSW
      0000009DH   SFRSYM    DATA     BYTE      IRCBAND
      00000097H   SFRSYM    DATA     BYTE      AUXR2
L251 LINKER/LOCATER V4.66.93.0                                                        11/25/2023  21:38:42  PAGE 43


      000000EFH   SFRSYM    DATA     BYTE      AUXINTIF
      000000FDH   SFRSYM    DATA     BYTE      S4CON
      000000ACH   SFRSYM    DATA     BYTE      S3CON
      0000009AH   SFRSYM    DATA     BYTE      S2CON
      000000B7H   SFRSYM    DATA     BYTE      IPH
      000000CDH   SFRSYM    DATA     BYTE      SPSTAT
      000000DDH   SFRSYM    DATA     BYTE      T4T3M
      000000C1H   SFRSYM    DATA     BYTE      WDT_CONTR
      000000DFH   SFRSYM    DATA     BYTE      IP3
      000000F4H   SFRSYM    DATA     BYTE      USBCON
      000000B5H   SFRSYM    DATA     BYTE      IP2
      000000FFH   SFRSYM    DATA     BYTE      RSTCFG
      000000F9H   SFRSYM    DATA     BYTE      LINICR
      0000008EH   SFRSYM    DATA     BYTE      AUXR
      000000AFH   SFRSYM    DATA     BYTE      IE2
      00000088H   SFRSYM    DATA     BYTE      TCON
      00000098H   SFRSYM    DATA     BYTE      SCON
      000000F1H   SFRSYM    DATA     BYTE      CANICR
      00000087H   SFRSYM    DATA     BYTE      PCON
      000000BCH   SFRSYM    DATA     BYTE      ADC_CONTR
      000000E7H   SFRSYM    DATA     BYTE      CMPCR2
      000000E6H   SFRSYM    DATA     BYTE      CMPCR1
      000000B8H   SFRSYM    DATA     BYTE      IP
      0000008FH   SFRSYM    DATA     BYTE      INTCLKO
      000000EEH   SFRSYM    DATA     BYTE      IP3H
      000000B6H   SFRSYM    DATA     BYTE      IP2H
      000000A8H   SFRSYM    DATA     BYTE      IE
      000000BBH   SFRSYM    DATA     BYTE      P_SW3
      000000BAH   SFRSYM    DATA     BYTE      P_SW2
      000000A2H   SFRSYM    DATA     BYTE      P_SW1
      000000CEH   SFRSYM    DATA     BYTE      SPCTL
      000000F8H   SFRSYM    DATA     BYTE      P7
      000000E8H   SFRSYM    DATA     BYTE      P6
      000000C8H   SFRSYM    DATA     BYTE      P5
      000000C0H   SFRSYM    DATA     BYTE      P4
      000000B0H   SFRSYM    DATA     BYTE      P3
      000000A0H   SFRSYM    DATA     BYTE      P2
      00000090H   SFRSYM    DATA     BYTE      P1
      00000080H   SFRSYM    DATA     BYTE      P0
      00000CD7H   SYMBOL    EDATA    INT       spi_n
      00000CD9H   SYMBOL    EDATA    BYTE      mode
      00000CDAH   SYMBOL    EDATA    INT       mstr
      00000CDCH   SYMBOL    EDATA    INT       baud
      00000EB4H   SYMBOL    EDATA    BYTE      dat
      00000E64H   SYMBOL    EDATA    INT       spi_n
      00000EB5H   SYMBOL    EDATA    BYTE      mode

      ---         MODULE    ---      ---       zf_tim
      00FF5BC1H   PUBLIC    CODE     ---       ctimer_count_read
      00FF570FH   PUBLIC    CODE     ---       pit_timer_ms
      00FF65C8H   PUBLIC    CODE     ---       ctimer_count_init
      00FF6359H   PUBLIC    CODE     ---       ctimer_count_clean
      000000D0H   SFRSYM    DATA     BYTE      PSW
      0000009DH   SFRSYM    DATA     BYTE      IRCBAND
      00000097H   SFRSYM    DATA     BYTE      AUXR2
      000000EFH   SFRSYM    DATA     BYTE      AUXINTIF
      000000FDH   SFRSYM    DATA     BYTE      S4CON
      000000ACH   SFRSYM    DATA     BYTE      S3CON
      0000009AH   SFRSYM    DATA     BYTE      S2CON
      000000B7H   SFRSYM    DATA     BYTE      IPH
      000000CDH   SFRSYM    DATA     BYTE      SPSTAT
      000000DDH   SFRSYM    DATA     BYTE      T4T3M
      000000C1H   SFRSYM    DATA     BYTE      WDT_CONTR
      00000088H.6 SFRSYM    DATA     BIT       TR1
      00000088H.4 SFRSYM    DATA     BIT       TR0
L251 LINKER/LOCATER V4.66.93.0                                                        11/25/2023  21:38:42  PAGE 44


      000000D3H   SFRSYM    DATA     BYTE      T4L
      000000D5H   SFRSYM    DATA     BYTE      T3L
      000000D7H   SFRSYM    DATA     BYTE      T2L
      0000008BH   SFRSYM    DATA     BYTE      TL1
      0000008AH   SFRSYM    DATA     BYTE      TL0
      000000D2H   SFRSYM    DATA     BYTE      T4H
      000000D4H   SFRSYM    DATA     BYTE      T3H
      000000D6H   SFRSYM    DATA     BYTE      T2H
      0000008DH   SFRSYM    DATA     BYTE      TH1
      0000008CH   SFRSYM    DATA     BYTE      TH0
      000000DFH   SFRSYM    DATA     BYTE      IP3
      000000F4H   SFRSYM    DATA     BYTE      USBCON
      000000B5H   SFRSYM    DATA     BYTE      IP2
      000000FFH   SFRSYM    DATA     BYTE      RSTCFG
      000000A8H.3 SFRSYM    DATA     BIT       ET1
      000000A8H.1 SFRSYM    DATA     BIT       ET0
      000000F9H   SFRSYM    DATA     BYTE      LINICR
      0000008EH   SFRSYM    DATA     BYTE      AUXR
      000000AFH   SFRSYM    DATA     BYTE      IE2
      00000088H   SFRSYM    DATA     BYTE      TCON
      00000089H   SFRSYM    DATA     BYTE      TMOD
      00000098H   SFRSYM    DATA     BYTE      SCON
      000000F1H   SFRSYM    DATA     BYTE      CANICR
      00000087H   SFRSYM    DATA     BYTE      PCON
      000000BCH   SFRSYM    DATA     BYTE      ADC_CONTR
      000000E7H   SFRSYM    DATA     BYTE      CMPCR2
      000000E6H   SFRSYM    DATA     BYTE      CMPCR1
      000000B8H   SFRSYM    DATA     BYTE      IP
      0000008FH   SFRSYM    DATA     BYTE      INTCLKO
      000000EEH   SFRSYM    DATA     BYTE      IP3H
      000000B6H   SFRSYM    DATA     BYTE      IP2H
      000000A8H   SFRSYM    DATA     BYTE      IE
      000000BBH   SFRSYM    DATA     BYTE      P_SW3
      000000BAH   SFRSYM    DATA     BYTE      P_SW2
      000000A2H   SFRSYM    DATA     BYTE      P_SW1
      000000CEH   SFRSYM    DATA     BYTE      SPCTL
      000000F8H   SFRSYM    DATA     BYTE      P7
      000000E8H   SFRSYM    DATA     BYTE      P6
      000000C8H   SFRSYM    DATA     BYTE      P5
      000000C0H   SFRSYM    DATA     BYTE      P4
      000000B0H   SFRSYM    DATA     BYTE      P3
      000000A0H   SFRSYM    DATA     BYTE      P2
      00000090H   SFRSYM    DATA     BYTE      P1
      00000080H   SFRSYM    DATA     BYTE      P0

      00FF65C8H   BLOCK     CODE     ---       LVL=0
      00000E66H   SYMBOL    EDATA    INT       tim_n
      00FF65C8H   LINE      CODE     ---       #39
      00FF65CCH   LINE      CODE     ---       #42
      00FF65E0H   LINE      CODE     ---       #44
      00FF65E0H   LINE      CODE     ---       #46
      00FF65E3H   LINE      CODE     ---       #47
      00FF65E6H   LINE      CODE     ---       #48
      00FF65E9H   LINE      CODE     ---       #49
      00FF65ECH   LINE      CODE     ---       #50
      00FF65EEH   LINE      CODE     ---       #53
      00FF65EEH   LINE      CODE     ---       #55
      00FF65F1H   LINE      CODE     ---       #56
      00FF65F4H   LINE      CODE     ---       #57
      00FF65F7H   LINE      CODE     ---       #58
      00FF65FAH   LINE      CODE     ---       #59
      00FF65FCH   LINE      CODE     ---       #62
      00FF65FCH   LINE      CODE     ---       #64
      00FF65FFH   LINE      CODE     ---       #65
      00FF6602H   LINE      CODE     ---       #66
L251 LINKER/LOCATER V4.66.93.0                                                        11/25/2023  21:38:42  PAGE 45


      00FF6605H   LINE      CODE     ---       #67
      00FF6607H   LINE      CODE     ---       #70
      00FF6607H   LINE      CODE     ---       #72
      00FF660AH   LINE      CODE     ---       #73
      00FF660DH   LINE      CODE     ---       #74
      00FF6610H   LINE      CODE     ---       #75
      00FF6612H   LINE      CODE     ---       #78
      00FF6612H   LINE      CODE     ---       #80
      00FF6615H   LINE      CODE     ---       #81
      00FF6618H   LINE      CODE     ---       #82
      00FF661BH   LINE      CODE     ---       #83
      00FF661BH   LINE      CODE     ---       #86
      00FF661BH   LINE      CODE     ---       #87
      ---         BLOCKEND  ---      ---       LVL=0

      00FF5BC1H   BLOCK     CODE     ---       LVL=0
      00000DD0H   SYMBOL    EDATA    INT       tim_n
      00FF5BC5H   BLOCK     CODE     NEAR LAB  LVL=1
      00000DD2H   SYMBOL    EDATA    WORD      dat
      ---         BLOCKEND  ---      ---       LVL=1
      00FF5BC1H   LINE      CODE     ---       #95
      00FF5BC5H   LINE      CODE     ---       #96
      00FF5BC5H   LINE      CODE     ---       #97
      00FF5BCBH   LINE      CODE     ---       #99
      00FF5BE6H   LINE      CODE     ---       #101
      00FF5BE6H   LINE      CODE     ---       #103
      00FF5BF2H   LINE      CODE     ---       #104
      00FF5C00H   LINE      CODE     ---       #105
      00FF5C02H   LINE      CODE     ---       #107
      00FF5C02H   LINE      CODE     ---       #109
      00FF5C0EH   LINE      CODE     ---       #110
      00FF5C1CH   LINE      CODE     ---       #111
      00FF5C1EH   LINE      CODE     ---       #113
      00FF5C1EH   LINE      CODE     ---       #115
      00FF5C2AH   LINE      CODE     ---       #116
      00FF5C38H   LINE      CODE     ---       #117
      00FF5C3AH   LINE      CODE     ---       #119
      00FF5C3AH   LINE      CODE     ---       #121
      00FF5C46H   LINE      CODE     ---       #122
      00FF5C54H   LINE      CODE     ---       #123
      00FF5C56H   LINE      CODE     ---       #125
      00FF5C56H   LINE      CODE     ---       #127
      00FF5C62H   LINE      CODE     ---       #128
      00FF5C70H   LINE      CODE     ---       #129
      00FF5C70H   LINE      CODE     ---       #132
      00FF5C70H   LINE      CODE     ---       #133
      00FF5C74H   LINE      CODE     ---       #134
      ---         BLOCKEND  ---      ---       LVL=0

      00FF6359H   BLOCK     CODE     ---       LVL=0
      00000E68H   SYMBOL    EDATA    INT       tim_n
      00FF6359H   LINE      CODE     ---       #143
      00FF635DH   LINE      CODE     ---       #145
      00FF6371H   LINE      CODE     ---       #147
      00FF6371H   LINE      CODE     ---       #149
      00FF6374H   LINE      CODE     ---       #150
      00FF6377H   LINE      CODE     ---       #151
      00FF637AH   LINE      CODE     ---       #152
      00FF637DH   LINE      CODE     ---       #153
      00FF637FH   LINE      CODE     ---       #155
      00FF637FH   LINE      CODE     ---       #157
      00FF6382H   LINE      CODE     ---       #158
      00FF6385H   LINE      CODE     ---       #159
      00FF6388H   LINE      CODE     ---       #160
      00FF638BH   LINE      CODE     ---       #161
L251 LINKER/LOCATER V4.66.93.0                                                        11/25/2023  21:38:42  PAGE 46


      00FF638DH   LINE      CODE     ---       #163
      00FF638DH   LINE      CODE     ---       #165
      00FF6390H   LINE      CODE     ---       #166
      00FF6393H   LINE      CODE     ---       #167
      00FF6396H   LINE      CODE     ---       #168
      00FF6399H   LINE      CODE     ---       #169
      00FF639BH   LINE      CODE     ---       #171
      00FF639BH   LINE      CODE     ---       #173
      00FF639EH   LINE      CODE     ---       #174
      00FF63A1H   LINE      CODE     ---       #175
      00FF63A4H   LINE      CODE     ---       #176
      00FF63A7H   LINE      CODE     ---       #177
      00FF63A9H   LINE      CODE     ---       #179
      00FF63A9H   LINE      CODE     ---       #181
      00FF63ACH   LINE      CODE     ---       #182
      00FF63AFH   LINE      CODE     ---       #183
      00FF63B2H   LINE      CODE     ---       #184
      00FF63B5H   LINE      CODE     ---       #185
      00FF63B5H   LINE      CODE     ---       #187
      00FF63B5H   LINE      CODE     ---       #188
      ---         BLOCKEND  ---      ---       LVL=0

      00FF570FH   BLOCK     CODE     ---       LVL=0
      00000D19H   SYMBOL    EDATA    INT       tim_n
      00000D1BH   SYMBOL    EDATA    WORD      time_ms
      00FF5717H   BLOCK     CODE     NEAR LAB  LVL=1
      00000D1DH   SYMBOL    EDATA    WORD      temp
      ---         BLOCKEND  ---      ---       LVL=1
      00FF570FH   LINE      CODE     ---       #198
      00FF5717H   LINE      CODE     ---       #199
      00FF5717H   LINE      CODE     ---       #201
      00FF573AH   LINE      CODE     ---       #203
      00FF5744H   LINE      CODE     ---       #205
      00FF5748H   LINE      CODE     ---       #206
      00FF574EH   LINE      CODE     ---       #207
      00FF5758H   LINE      CODE     ---       #208
      00FF575BH   LINE      CODE     ---       #209
      00FF575EH   LINE      CODE     ---       #210
      00FF5761H   LINE      CODE     ---       #211
      00FF576DH   LINE      CODE     ---       #213
      00FF5771H   LINE      CODE     ---       #214
      00FF5777H   LINE      CODE     ---       #215
      00FF5781H   LINE      CODE     ---       #216
      00FF5784H   LINE      CODE     ---       #217
      00FF5787H   LINE      CODE     ---       #218
      00FF5789H   LINE      CODE     ---       #219
      00FF5795H   LINE      CODE     ---       #221
      00FF579BH   LINE      CODE     ---       #222
      00FF57A5H   LINE      CODE     ---       #223
      00FF57A8H   LINE      CODE     ---       #224
      00FF57ABH   LINE      CODE     ---       #225
      00FF57ADH   LINE      CODE     ---       #226
      00FF57B9H   LINE      CODE     ---       #228
      00FF57BFH   LINE      CODE     ---       #229
      00FF57C9H   LINE      CODE     ---       #230
      00FF57CCH   LINE      CODE     ---       #231
      00FF57CFH   LINE      CODE     ---       #232
      00FF57D1H   LINE      CODE     ---       #233
      00FF57DDH   LINE      CODE     ---       #235
      00FF57E3H   LINE      CODE     ---       #236
      00FF57EDH   LINE      CODE     ---       #237
      00FF57F0H   LINE      CODE     ---       #238
      00FF57F3H   LINE      CODE     ---       #239
      ---         BLOCKEND  ---      ---       LVL=0

L251 LINKER/LOCATER V4.66.93.0                                                        11/25/2023  21:38:42  PAGE 47


      ---         MODULE    ---      ---       zf_uart
      00FF60C5H   PUBLIC    CODE     ---       uart_putchar
      00FF48F6H   PUBLIC    CODE     ---       uart_init
      000003FDH   PUBLIC    EDATA    ---       uart1_rx_buff
      00000461H   PUBLIC    EDATA    ---       uart1_tx_buff
      000004C5H   PUBLIC    EDATA    ---       busy
      000009C7H   PUBLIC    EDATA    BYTE      ?uart_init?BYTE
      000000D0H   SFRSYM    DATA     BYTE      PSW
      0000009DH   SFRSYM    DATA     BYTE      IRCBAND
      00000097H   SFRSYM    DATA     BYTE      AUXR2
      000000EFH   SFRSYM    DATA     BYTE      AUXINTIF
      000000FDH   SFRSYM    DATA     BYTE      S4CON
      000000ACH   SFRSYM    DATA     BYTE      S3CON
      0000009AH   SFRSYM    DATA     BYTE      S2CON
      000000FEH   SFRSYM    DATA     BYTE      S4BUF
      000000ADH   SFRSYM    DATA     BYTE      S3BUF
      0000009BH   SFRSYM    DATA     BYTE      S2BUF
      000000B7H   SFRSYM    DATA     BYTE      IPH
      000000CDH   SFRSYM    DATA     BYTE      SPSTAT
      000000DDH   SFRSYM    DATA     BYTE      T4T3M
      000000C1H   SFRSYM    DATA     BYTE      WDT_CONTR
      00000088H.6 SFRSYM    DATA     BIT       TR1
      000000D3H   SFRSYM    DATA     BYTE      T4L
      000000D5H   SFRSYM    DATA     BYTE      T3L
      000000D7H   SFRSYM    DATA     BYTE      T2L
      0000008BH   SFRSYM    DATA     BYTE      TL1
      000000D2H   SFRSYM    DATA     BYTE      T4H
      000000D4H   SFRSYM    DATA     BYTE      T3H
      000000D6H   SFRSYM    DATA     BYTE      T2H
      0000008DH   SFRSYM    DATA     BYTE      TH1
      000000DFH   SFRSYM    DATA     BYTE      IP3
      000000F4H   SFRSYM    DATA     BYTE      USBCON
      000000B5H   SFRSYM    DATA     BYTE      IP2
      000000FFH   SFRSYM    DATA     BYTE      RSTCFG
      000000F9H   SFRSYM    DATA     BYTE      LINICR
      0000008EH   SFRSYM    DATA     BYTE      AUXR
      000000AFH   SFRSYM    DATA     BYTE      IE2
      00000088H   SFRSYM    DATA     BYTE      TCON
      00000089H   SFRSYM    DATA     BYTE      TMOD
      00000098H   SFRSYM    DATA     BYTE      SCON
      000000F1H   SFRSYM    DATA     BYTE      CANICR
      00000087H   SFRSYM    DATA     BYTE      PCON
      00000099H   SFRSYM    DATA     BYTE      SBUF
      000000BCH   SFRSYM    DATA     BYTE      ADC_CONTR
      000000E7H   SFRSYM    DATA     BYTE      CMPCR2
      000000E6H   SFRSYM    DATA     BYTE      CMPCR1
      000000B8H   SFRSYM    DATA     BYTE      IP
      000000A8H.4 SFRSYM    DATA     BIT       ES
      0000008FH   SFRSYM    DATA     BYTE      INTCLKO
      000000EEH   SFRSYM    DATA     BYTE      IP3H
      000000B6H   SFRSYM    DATA     BYTE      IP2H
      000000A8H   SFRSYM    DATA     BYTE      IE
      000000BBH   SFRSYM    DATA     BYTE      P_SW3
      000000BAH   SFRSYM    DATA     BYTE      P_SW2
      000000A2H   SFRSYM    DATA     BYTE      P_SW1
      000000CEH   SFRSYM    DATA     BYTE      SPCTL
      000000F8H   SFRSYM    DATA     BYTE      P7
      000000E8H   SFRSYM    DATA     BYTE      P6
      000000C8H   SFRSYM    DATA     BYTE      P5
      000000C0H   SFRSYM    DATA     BYTE      P4
      000000C9H   SFRSYM    DATA     BYTE      P5M1
      000000B0H   SFRSYM    DATA     BYTE      P3
      000000CAH   SFRSYM    DATA     BYTE      P5M0
      000000A0H   SFRSYM    DATA     BYTE      P2
      00000090H   SFRSYM    DATA     BYTE      P1
L251 LINKER/LOCATER V4.66.93.0                                                        11/25/2023  21:38:42  PAGE 48


      00000080H   SFRSYM    DATA     BYTE      P0

      00FF48F6H   BLOCK     CODE     ---       LVL=0
      000009C7H   SYMBOL    EDATA    INT       uart_n
      000009C9H   SYMBOL    EDATA    INT       uart_rx_pin
      000009CBH   SYMBOL    EDATA    INT       uart_tx_pin
      000009CDH   SYMBOL    EDATA    DWORD     baud
      000009D1H   SYMBOL    EDATA    INT       tim_n
      00FF4906H   BLOCK     CODE     NEAR LAB  LVL=1
      000009D3H   SYMBOL    EDATA    WORD      brt
      ---         BLOCKEND  ---      ---       LVL=1
      00FF48F6H   LINE      CODE     ---       #48
      00FF4906H   LINE      CODE     ---       #49
      00FF4906H   LINE      CODE     ---       #52
      00FF492DH   LINE      CODE     ---       #55
      00FF494FH   LINE      CODE     ---       #57
      00FF494FH   LINE      CODE     ---       #59
      00FF495BH   LINE      CODE     ---       #61
      00FF495EH   LINE      CODE     ---       #62
      00FF4962H   LINE      CODE     ---       #63
      00FF4968H   LINE      CODE     ---       #64
      00FF4972H   LINE      CODE     ---       #65
      00FF4975H   LINE      CODE     ---       #66
      00FF4978H   LINE      CODE     ---       #67
      00FF497DH   LINE      CODE     ---       #68
      00FF497FH   LINE      CODE     ---       #69
      00FF498BH   LINE      CODE     ---       #71
      00FF498EH   LINE      CODE     ---       #72
      00FF4994H   LINE      CODE     ---       #73
      00FF499EH   LINE      CODE     ---       #74
      00FF49A1H   LINE      CODE     ---       #75
      00FF49A1H   LINE      CODE     ---       #76
      00FF49A4H   LINE      CODE     ---       #77
      00FF49BAH   LINE      CODE     ---       #79
      00FF49BEH   LINE      CODE     ---       #80
      00FF49C0H   LINE      CODE     ---       #81
      00FF49D8H   LINE      CODE     ---       #83
      00FF49DBH   LINE      CODE     ---       #84
      00FF49DDH   LINE      CODE     ---       #85
      00FF49F5H   LINE      CODE     ---       #87
      00FF49F8H   LINE      CODE     ---       #88
      00FF49FAH   LINE      CODE     ---       #89
      00FF4A12H   LINE      CODE     ---       #91
      00FF4A15H   LINE      CODE     ---       #92
      00FF4A15H   LINE      CODE     ---       #93
      00FF4A1AH   LINE      CODE     ---       #94
      00FF4A1DH   LINE      CODE     ---       #95
      00FF4A20H   LINE      CODE     ---       #98
      00FF4A20H   LINE      CODE     ---       #100
      00FF4A2CH   LINE      CODE     ---       #102
      00FF4A2FH   LINE      CODE     ---       #103
      00FF4A35H   LINE      CODE     ---       #104
      00FF4A3FH   LINE      CODE     ---       #105
      00FF4A42H   LINE      CODE     ---       #106
      00FF4A42H   LINE      CODE     ---       #108
      00FF4A45H   LINE      CODE     ---       #109
      00FF4A5DH   LINE      CODE     ---       #111
      00FF4A61H   LINE      CODE     ---       #112
      00FF4A63H   LINE      CODE     ---       #113
      00FF4A7BH   LINE      CODE     ---       #115
      00FF4A7EH   LINE      CODE     ---       #116
      00FF4A7EH   LINE      CODE     ---       #118
      00FF4A81H   LINE      CODE     ---       #119
      00FF4A86H   LINE      CODE     ---       #120
      00FF4A89H   LINE      CODE     ---       #123
L251 LINKER/LOCATER V4.66.93.0                                                        11/25/2023  21:38:42  PAGE 49


      00FF4A89H   LINE      CODE     ---       #125
      00FF4A95H   LINE      CODE     ---       #127
      00FF4A98H   LINE      CODE     ---       #128
      00FF4A9EH   LINE      CODE     ---       #129
      00FF4AA8H   LINE      CODE     ---       #130
      00FF4AABH   LINE      CODE     ---       #131
      00FF4AADH   LINE      CODE     ---       #132
      00FF4AB9H   LINE      CODE     ---       #134
      00FF4ABCH   LINE      CODE     ---       #135
      00FF4AC2H   LINE      CODE     ---       #136
      00FF4ACCH   LINE      CODE     ---       #137
      00FF4ACFH   LINE      CODE     ---       #138
      00FF4ACFH   LINE      CODE     ---       #140
      00FF4AD2H   LINE      CODE     ---       #141
      00FF4AEAH   LINE      CODE     ---       #143
      00FF4AEEH   LINE      CODE     ---       #144
      00FF4AF0H   LINE      CODE     ---       #145
      00FF4B08H   LINE      CODE     ---       #147
      00FF4B0BH   LINE      CODE     ---       #148
      00FF4B0BH   LINE      CODE     ---       #150
      00FF4B0EH   LINE      CODE     ---       #151
      00FF4B13H   LINE      CODE     ---       #152
      00FF4B16H   LINE      CODE     ---       #155
      00FF4B16H   LINE      CODE     ---       #157
      00FF4B22H   LINE      CODE     ---       #159
      00FF4B25H   LINE      CODE     ---       #160
      00FF4B2BH   LINE      CODE     ---       #161
      00FF4B35H   LINE      CODE     ---       #162
      00FF4B38H   LINE      CODE     ---       #163
      00FF4B3AH   LINE      CODE     ---       #164
      00FF4B46H   LINE      CODE     ---       #166
      00FF4B49H   LINE      CODE     ---       #167
      00FF4B4FH   LINE      CODE     ---       #168
      00FF4B59H   LINE      CODE     ---       #169
      00FF4B5CH   LINE      CODE     ---       #170
      00FF4B5CH   LINE      CODE     ---       #172
      00FF4B5FH   LINE      CODE     ---       #173
      00FF4B77H   LINE      CODE     ---       #175
      00FF4B7BH   LINE      CODE     ---       #176
      00FF4B7DH   LINE      CODE     ---       #177
      00FF4B95H   LINE      CODE     ---       #179
      00FF4B98H   LINE      CODE     ---       #180
      00FF4B9CH   LINE      CODE     ---       #181
      00FF4B9FH   LINE      CODE     ---       #182
      00FF4B9FH   LINE      CODE     ---       #183
      00FF4BA2H   LINE      CODE     ---       #184
      00FF4BA7H   LINE      CODE     ---       #185
      00FF4BA7H   LINE      CODE     ---       #188
      00FF4BA7H   LINE      CODE     ---       #190
      ---         BLOCKEND  ---      ---       LVL=0

      00FF60C5H   BLOCK     CODE     ---       LVL=0
      00000E18H   SYMBOL    EDATA    INT       uart_n
      00000E1AH   SYMBOL    EDATA    BYTE      dat
      00FF60C5H   LINE      CODE     ---       #199
      00FF60CDH   LINE      CODE     ---       #201
      00FF60DFH   LINE      CODE     ---       #203
      00FF60DFH   LINE      CODE     ---       #204
      00FF60E8H   LINE      CODE     ---       #205
      00FF60EEH   LINE      CODE     ---       #206
      00FF60F4H   LINE      CODE     ---       #207
      00FF60F6H   LINE      CODE     ---       #208
      00FF60F6H   LINE      CODE     ---       #209
      00FF60FFH   LINE      CODE     ---       #210
      00FF6105H   LINE      CODE     ---       #211
L251 LINKER/LOCATER V4.66.93.0                                                        11/25/2023  21:38:42  PAGE 50


      00FF610BH   LINE      CODE     ---       #212
      00FF610DH   LINE      CODE     ---       #213
      00FF610DH   LINE      CODE     ---       #214
      00FF6116H   LINE      CODE     ---       #215
      00FF611CH   LINE      CODE     ---       #216
      00FF6122H   LINE      CODE     ---       #217
      00FF6124H   LINE      CODE     ---       #218
      00FF6124H   LINE      CODE     ---       #219
      00FF612DH   LINE      CODE     ---       #220
      00FF6133H   LINE      CODE     ---       #221
      00FF6139H   LINE      CODE     ---       #222
      00FF6139H   LINE      CODE     ---       #223
      00FF6139H   LINE      CODE     ---       #224
      ---         BLOCKEND  ---      ---       LVL=0
      00000C50H   SYMBOL    EDATA    INT       uart_n
      00000C52H   SYMBOL    EDATA    ---       p
      00000C56H   SYMBOL    EDATA    WORD      len
      00000D1FH   SYMBOL    EDATA    INT       uart_n
      00000D21H   SYMBOL    EDATA    ---       str

      ---         MODULE    ---      ---       zf_fifo
      00FF628BH   PUBLIC    CODE     ---       fifo_head_offset
      00FF53A6H   PUBLIC    CODE     ---       fifo_write_buffer
      00FF621DH   PUBLIC    CODE     ---       fifo_init
      00000A19H   PUBLIC    EDATA    BYTE      ?fifo_init?BYTE
      000009A9H   PUBLIC    EDATA    BYTE      ?fifo_write_buffer?BYTE
      00000972H   PUBLIC    EDATA    BYTE      ?fifo_read_buffer?BYTE
      000000D0H   SFRSYM    DATA     BYTE      PSW
      0000009DH   SFRSYM    DATA     BYTE      IRCBAND
      00000097H   SFRSYM    DATA     BYTE      AUXR2
      000000EFH   SFRSYM    DATA     BYTE      AUXINTIF
      000000FDH   SFRSYM    DATA     BYTE      S4CON
      000000ACH   SFRSYM    DATA     BYTE      S3CON
      0000009AH   SFRSYM    DATA     BYTE      S2CON
      000000B7H   SFRSYM    DATA     BYTE      IPH
      000000CDH   SFRSYM    DATA     BYTE      SPSTAT
      000000DDH   SFRSYM    DATA     BYTE      T4T3M
      000000C1H   SFRSYM    DATA     BYTE      WDT_CONTR
      000000DFH   SFRSYM    DATA     BYTE      IP3
      000000F4H   SFRSYM    DATA     BYTE      USBCON
      000000B5H   SFRSYM    DATA     BYTE      IP2
      000000FFH   SFRSYM    DATA     BYTE      RSTCFG
      000000F9H   SFRSYM    DATA     BYTE      LINICR
      0000008EH   SFRSYM    DATA     BYTE      AUXR
      000000AFH   SFRSYM    DATA     BYTE      IE2
      00000088H   SFRSYM    DATA     BYTE      TCON
      00000098H   SFRSYM    DATA     BYTE      SCON
      000000F1H   SFRSYM    DATA     BYTE      CANICR
      00000087H   SFRSYM    DATA     BYTE      PCON
      000000BCH   SFRSYM    DATA     BYTE      ADC_CONTR
      000000E7H   SFRSYM    DATA     BYTE      CMPCR2
      000000E6H   SFRSYM    DATA     BYTE      CMPCR1
      000000B8H   SFRSYM    DATA     BYTE      IP
      0000008FH   SFRSYM    DATA     BYTE      INTCLKO
      000000EEH   SFRSYM    DATA     BYTE      IP3H
      000000B6H   SFRSYM    DATA     BYTE      IP2H
      000000A8H   SFRSYM    DATA     BYTE      IE
      000000BBH   SFRSYM    DATA     BYTE      P_SW3
      000000BAH   SFRSYM    DATA     BYTE      P_SW2
      000000A2H   SFRSYM    DATA     BYTE      P_SW1
      000000CEH   SFRSYM    DATA     BYTE      SPCTL
      000000F8H   SFRSYM    DATA     BYTE      P7
      000000E8H   SFRSYM    DATA     BYTE      P6
      000000C8H   SFRSYM    DATA     BYTE      P5
      000000C0H   SFRSYM    DATA     BYTE      P4
L251 LINKER/LOCATER V4.66.93.0                                                        11/25/2023  21:38:42  PAGE 51


      000000B0H   SFRSYM    DATA     BYTE      P3
      000000A0H   SFRSYM    DATA     BYTE      P2
      00000090H   SFRSYM    DATA     BYTE      P1
      00000080H   SFRSYM    DATA     BYTE      P0

      00FF621DH   BLOCK     CODE     ---       LVL=0
      00000A19H   SYMBOL    EDATA    ---       fifo
      00000A1DH   SYMBOL    EDATA    ---       buffer_addr
      00000A21H   SYMBOL    EDATA    DWORD     size
      00FF621DH   LINE      CODE     ---       #42
      00FF6225H   LINE      CODE     ---       #44
      00FF622DH   LINE      CODE     ---       #45
      00FF6233H   LINE      CODE     ---       #46
      00FF6242H   LINE      CODE     ---       #47
      00FF6251H   LINE      CODE     ---       #48
      00FF6262H   LINE      CODE     ---       #49
      00FF6275H   LINE      CODE     ---       #50
      00FF6288H   LINE      CODE     ---       #51
      00FF628AH   LINE      CODE     ---       #52
      ---         BLOCKEND  ---      ---       LVL=0

      00FF628BH   BLOCK     CODE     ---       LVL=0
      00000C58H   SYMBOL    EDATA    ---       fifo
      00000C5CH   SYMBOL    EDATA    DWORD     offset
      00FF628BH   LINE      CODE     ---       #61
      00FF6293H   LINE      CODE     ---       #63
      00FF62ADH   LINE      CODE     ---       #65
      00FF62AFH   LINE      CODE     ---       #67
      00FF62D4H   LINE      CODE     ---       #68
      00FF62F4H   LINE      CODE     ---       #69
      ---         BLOCKEND  ---      ---       LVL=0
      00000C60H   SYMBOL    EDATA    ---       fifo
      00000C64H   SYMBOL    EDATA    DWORD     offset
      00000DD4H   SYMBOL    EDATA    ---       fifo
      00000DD8H   SYMBOL    EDATA    ---       fifo

      00FF53A6H   BLOCK     CODE     ---       LVL=0
      000009A9H   SYMBOL    EDATA    ---       fifo
      000009ADH   SYMBOL    EDATA    ---       dat
      000009B1H   SYMBOL    EDATA    DWORD     length
      00FF53AEH   BLOCK     CODE     NEAR LAB  LVL=1
      000009B5H   SYMBOL    EDATA    DWORD     temp_length
      ---         BLOCKEND  ---      ---       LVL=1
      00FF53A6H   LINE      CODE     ---       #120
      00FF53AEH   LINE      CODE     ---       #121
      00FF53AEH   LINE      CODE     ---       #124
      00FF53C8H   LINE      CODE     ---       #126
      00FF53EAH   LINE      CODE     ---       #128
      00FF53F9H   LINE      CODE     ---       #130
      00FF5422H   LINE      CODE     ---       #131
      00FF542DH   LINE      CODE     ---       #132
      00FF543DH   LINE      CODE     ---       #133
      00FF5470H   LINE      CODE     ---       #134
      00FF5481H   LINE      CODE     ---       #135
      00FF5483H   LINE      CODE     ---       #138
      00FF54ACH   LINE      CODE     ---       #139
      00FF54B7H   LINE      CODE     ---       #140
      00FF54B7H   LINE      CODE     ---       #142
      00FF54D3H   LINE      CODE     ---       #143
      00FF54D5H   LINE      CODE     ---       #146
      00FF54DBH   LINE      CODE     ---       #147
      00FF54DBH   LINE      CODE     ---       #149
      00FF54DDH   LINE      CODE     ---       #150
      ---         BLOCKEND  ---      ---       LVL=0
      00000972H   SYMBOL    EDATA    ---       fifo
L251 LINKER/LOCATER V4.66.93.0                                                        11/25/2023  21:38:42  PAGE 52


      00000976H   SYMBOL    EDATA    ---       dat
      0000097AH   SYMBOL    EDATA    ---       length
      0000097EH   SYMBOL    EDATA    INT       flag
      00000980H   SYMBOL    EDATA    BYTE      data_check
      00000981H   SYMBOL    EDATA    DWORD     temp_length

      ---         MODULE    ---      ---       SEEKFREE_18TFT
      00FF54DEH   PUBLIC    CODE     ---       lcd_showint16_simspi
      00FF64C6H   PUBLIC    CODE     ---       lcd_clear_simspi
      00FF63B6H   PUBLIC    CODE     ---       lcd_showstr_simspi
      00FF666CH   PUBLIC    CODE     ---       lcd_writeIndex_simspi
      00FF66B8H   PUBLIC    CODE     ---       lcd_writeData_simspi
      00FF6573H   PUBLIC    CODE     ---       lcd_writeData_16bit_simspi
      00FF62F5H   PUBLIC    CODE     ---       lcd_set_region_simspi
      00FF4DAEH   PUBLIC    CODE     ---       lcd_init_simspi
      00FF5A4DH   PUBLIC    CODE     ---       lcd_showchar_simspi
      00000683H   PUBLIC    EDATA    BYTE      ?lcd_showfloat_simspi?BYTE
      000006B3H   PUBLIC    EDATA    BYTE      ?lcd_showfloat?BYTE
      000000D0H   SFRSYM    DATA     BYTE      PSW
      0000009DH   SFRSYM    DATA     BYTE      IRCBAND
      00000097H   SFRSYM    DATA     BYTE      AUXR2
      000000EFH   SFRSYM    DATA     BYTE      AUXINTIF
      000000FDH   SFRSYM    DATA     BYTE      S4CON
      000000ACH   SFRSYM    DATA     BYTE      S3CON
      0000009AH   SFRSYM    DATA     BYTE      S2CON
      000000B7H   SFRSYM    DATA     BYTE      IPH
      000000CDH   SFRSYM    DATA     BYTE      SPSTAT
      000000DDH   SFRSYM    DATA     BYTE      T4T3M
      000000C1H   SFRSYM    DATA     BYTE      WDT_CONTR
      000000DFH   SFRSYM    DATA     BYTE      IP3
      000000F4H   SFRSYM    DATA     BYTE      USBCON
      000000B5H   SFRSYM    DATA     BYTE      IP2
      000000FFH   SFRSYM    DATA     BYTE      RSTCFG
      000000F9H   SFRSYM    DATA     BYTE      LINICR
      0000008EH   SFRSYM    DATA     BYTE      AUXR
      000000AFH   SFRSYM    DATA     BYTE      IE2
      000000A0H.5 SFRSYM    DATA     BIT       P25
      00000088H   SFRSYM    DATA     BYTE      TCON
      000000A0H.3 SFRSYM    DATA     BIT       P23
      00000098H   SFRSYM    DATA     BYTE      SCON
      000000A0H.2 SFRSYM    DATA     BIT       P22
      000000A0H.1 SFRSYM    DATA     BIT       P21
      000000A0H.0 SFRSYM    DATA     BIT       P20
      000000F1H   SFRSYM    DATA     BYTE      CANICR
      00000087H   SFRSYM    DATA     BYTE      PCON
      000000BCH   SFRSYM    DATA     BYTE      ADC_CONTR
      000000E7H   SFRSYM    DATA     BYTE      CMPCR2
      000000E6H   SFRSYM    DATA     BYTE      CMPCR1
      000000B8H   SFRSYM    DATA     BYTE      IP
      0000008FH   SFRSYM    DATA     BYTE      INTCLKO
      000000EEH   SFRSYM    DATA     BYTE      IP3H
      000000B6H   SFRSYM    DATA     BYTE      IP2H
      000000A8H   SFRSYM    DATA     BYTE      IE
      000000BBH   SFRSYM    DATA     BYTE      P_SW3
      000000BAH   SFRSYM    DATA     BYTE      P_SW2
      000000A2H   SFRSYM    DATA     BYTE      P_SW1
      000000CEH   SFRSYM    DATA     BYTE      SPCTL
      000000F8H   SFRSYM    DATA     BYTE      P7
      000000E8H   SFRSYM    DATA     BYTE      P6
      000000C8H   SFRSYM    DATA     BYTE      P5
      000000C0H   SFRSYM    DATA     BYTE      P4
      000000B0H   SFRSYM    DATA     BYTE      P3
      000000A0H   SFRSYM    DATA     BYTE      P2
      00000090H   SFRSYM    DATA     BYTE      P1
      00000080H   SFRSYM    DATA     BYTE      P0
L251 LINKER/LOCATER V4.66.93.0                                                        11/25/2023  21:38:42  PAGE 53



      00FF666CH   BLOCK     CODE     ---       LVL=0
      00000E6AH   SYMBOL    EDATA    BYTE      dat
      00FF6670H   BLOCK     CODE     NEAR LAB  LVL=1
      00000E6BH   SYMBOL    EDATA    BYTE      i
      ---         BLOCKEND  ---      ---       LVL=1
      00FF666CH   LINE      CODE     ---       #60
      00FF6670H   LINE      CODE     ---       #61
      00FF6670H   LINE      CODE     ---       #62
      00FF6676H   LINE      CODE     ---       #64
      00FF6679H   LINE      CODE     ---       #65
      00FF667CH   LINE      CODE     ---       #66
      00FF667FH   LINE      CODE     ---       #68
      00FF6681H   LINE      CODE     ---       #70
      00FF668DH   LINE      CODE     ---       #71
      00FF6690H   LINE      CODE     ---       #72
      00FF6693H   LINE      CODE     ---       #74
      00FF6696H   LINE      CODE     ---       #75
      00FF66A0H   LINE      CODE     ---       #76
      00FF66B4H   LINE      CODE     ---       #77
      00FF66B7H   LINE      CODE     ---       #78
      ---         BLOCKEND  ---      ---       LVL=0

      00FF66B8H   BLOCK     CODE     ---       LVL=0
      00000E6CH   SYMBOL    EDATA    BYTE      dat
      00FF66BCH   BLOCK     CODE     NEAR LAB  LVL=1
      00000E6DH   SYMBOL    EDATA    BYTE      i
      ---         BLOCKEND  ---      ---       LVL=1
      00FF66B8H   LINE      CODE     ---       #87
      00FF66BCH   LINE      CODE     ---       #88
      00FF66BCH   LINE      CODE     ---       #89
      00FF66C2H   LINE      CODE     ---       #91
      00FF66C5H   LINE      CODE     ---       #92
      00FF66C8H   LINE      CODE     ---       #93
      00FF66CBH   LINE      CODE     ---       #94
      00FF66CDH   LINE      CODE     ---       #96
      00FF66D9H   LINE      CODE     ---       #97
      00FF66DCH   LINE      CODE     ---       #98
      00FF66DFH   LINE      CODE     ---       #100
      00FF66E2H   LINE      CODE     ---       #101
      00FF66ECH   LINE      CODE     ---       #102
      00FF6700H   LINE      CODE     ---       #103
      00FF6703H   LINE      CODE     ---       #104
      ---         BLOCKEND  ---      ---       LVL=0

      00FF6573H   BLOCK     CODE     ---       LVL=0
      00000E1BH   SYMBOL    EDATA    WORD      dat
      00FF6577H   BLOCK     CODE     NEAR LAB  LVL=1
      00000E1DH   SYMBOL    EDATA    BYTE      i
      ---         BLOCKEND  ---      ---       LVL=1
      00FF6573H   LINE      CODE     ---       #113
      00FF6577H   LINE      CODE     ---       #114
      00FF6577H   LINE      CODE     ---       #115
      00FF657DH   LINE      CODE     ---       #117
      00FF6580H   LINE      CODE     ---       #118
      00FF6583H   LINE      CODE     ---       #119
      00FF6586H   LINE      CODE     ---       #121
      00FF6588H   LINE      CODE     ---       #123
      00FF659DH   LINE      CODE     ---       #124
      00FF65A0H   LINE      CODE     ---       #125
      00FF65A3H   LINE      CODE     ---       #127
      00FF65A6H   LINE      CODE     ---       #128
      00FF65B0H   LINE      CODE     ---       #129
      00FF65C4H   LINE      CODE     ---       #131
      00FF65C7H   LINE      CODE     ---       #133
L251 LINKER/LOCATER V4.66.93.0                                                        11/25/2023  21:38:42  PAGE 54


      ---         BLOCKEND  ---      ---       LVL=0

      00FF62F5H   BLOCK     CODE     ---       LVL=0
      00000C68H   SYMBOL    EDATA    WORD      x_start
      00000C6AH   SYMBOL    EDATA    WORD      y_start
      00000C6CH   SYMBOL    EDATA    WORD      x_end
      00000C6EH   SYMBOL    EDATA    WORD      y_end
      00FF62F5H   LINE      CODE     ---       #145
      00FF6305H   LINE      CODE     ---       #150
      00FF630AH   LINE      CODE     ---       #151
      00FF630EH   LINE      CODE     ---       #152
      00FF631BH   LINE      CODE     ---       #153
      00FF631FH   LINE      CODE     ---       #154
      00FF632CH   LINE      CODE     ---       #156
      00FF6331H   LINE      CODE     ---       #157
      00FF6335H   LINE      CODE     ---       #158
      00FF6342H   LINE      CODE     ---       #159
      00FF6346H   LINE      CODE     ---       #160
      00FF6353H   LINE      CODE     ---       #177
      00FF6358H   LINE      CODE     ---       #178
      ---         BLOCKEND  ---      ---       LVL=0

      00FF64C6H   BLOCK     CODE     ---       LVL=0
      00000DDCH   SYMBOL    EDATA    INT       color
      00FF64CAH   BLOCK     CODE     NEAR LAB  LVL=1
      00000DDEH   SYMBOL    EDATA    BYTE      i
      00000DDFH   SYMBOL    EDATA    BYTE      j
      ---         BLOCKEND  ---      ---       LVL=1
      00FF64C6H   LINE      CODE     ---       #187
      00FF64CAH   LINE      CODE     ---       #188
      00FF64CAH   LINE      CODE     ---       #190
      00FF64D9H   LINE      CODE     ---       #191
      00FF64E0H   LINE      CODE     ---       #192
      00FF64E7H   LINE      CODE     ---       #193
      00FF651CH   LINE      CODE     ---       #194
      ---         BLOCKEND  ---      ---       LVL=0

      00FF4DAEH   BLOCK     CODE     ---       LVL=0
      00FF4DAEH   LINE      CODE     ---       #203
      00FF4DAEH   LINE      CODE     ---       #207
      00FF4DB1H   LINE      CODE     ---       #208
      00FF4DB8H   LINE      CODE     ---       #209
      00FF4DBBH   LINE      CODE     ---       #210
      00FF4DC2H   LINE      CODE     ---       #211
      00FF4DC7H   LINE      CODE     ---       #212
      00FF4DCEH   LINE      CODE     ---       #214
      00FF4DD3H   LINE      CODE     ---       #215
      00FF4DD8H   LINE      CODE     ---       #216
      00FF4DDDH   LINE      CODE     ---       #217
      00FF4DE2H   LINE      CODE     ---       #219
      00FF4DE7H   LINE      CODE     ---       #220
      00FF4DECH   LINE      CODE     ---       #221
      00FF4DF1H   LINE      CODE     ---       #222
      00FF4DF6H   LINE      CODE     ---       #224
      00FF4DFBH   LINE      CODE     ---       #225
      00FF4E00H   LINE      CODE     ---       #226
      00FF4E05H   LINE      CODE     ---       #227
      00FF4E0AH   LINE      CODE     ---       #228
      00FF4E0FH   LINE      CODE     ---       #229
      00FF4E14H   LINE      CODE     ---       #230
      00FF4E19H   LINE      CODE     ---       #232
      00FF4E1EH   LINE      CODE     ---       #233
      00FF4E23H   LINE      CODE     ---       #235
      00FF4E28H   LINE      CODE     ---       #236
      00FF4E2DH   LINE      CODE     ---       #237
L251 LINKER/LOCATER V4.66.93.0                                                        11/25/2023  21:38:42  PAGE 55


      00FF4E32H   LINE      CODE     ---       #238
      00FF4E37H   LINE      CODE     ---       #239
      00FF4E3CH   LINE      CODE     ---       #240
      00FF4E41H   LINE      CODE     ---       #242
      00FF4E46H   LINE      CODE     ---       #243
      00FF4E4BH   LINE      CODE     ---       #244
      00FF4E4FH   LINE      CODE     ---       #246
      00FF4E54H   LINE      CODE     ---       #247
      00FF4E59H   LINE      CODE     ---       #248
      00FF4E5EH   LINE      CODE     ---       #249
      00FF4E63H   LINE      CODE     ---       #250
      00FF4E68H   LINE      CODE     ---       #251
      00FF4E6DH   LINE      CODE     ---       #253
      00FF4E72H   LINE      CODE     ---       #254
      00FF4E77H   LINE      CODE     ---       #256
      00FF4E7CH   LINE      CODE     ---       #257
      00FF4E90H   LINE      CODE     ---       #259
      00FF4E97H   LINE      CODE     ---       #260
      00FF4E9DH   LINE      CODE     ---       #261
      00FF4EA4H   LINE      CODE     ---       #262
      00FF4EA9H   LINE      CODE     ---       #263
      00FF4EA9H   LINE      CODE     ---       #265
      00FF4EAEH   LINE      CODE     ---       #266
      00FF4EB3H   LINE      CODE     ---       #267
      00FF4EB8H   LINE      CODE     ---       #268
      00FF4EBDH   LINE      CODE     ---       #269
      00FF4EC2H   LINE      CODE     ---       #270
      00FF4EC7H   LINE      CODE     ---       #271
      00FF4ECCH   LINE      CODE     ---       #272
      00FF4ED1H   LINE      CODE     ---       #273
      00FF4ED6H   LINE      CODE     ---       #274
      00FF4EDBH   LINE      CODE     ---       #275
      00FF4EE0H   LINE      CODE     ---       #276
      00FF4EE5H   LINE      CODE     ---       #277
      00FF4EEAH   LINE      CODE     ---       #278
      00FF4EEEH   LINE      CODE     ---       #279
      00FF4EF3H   LINE      CODE     ---       #280
      00FF4EF8H   LINE      CODE     ---       #281
      00FF4EFDH   LINE      CODE     ---       #283
      00FF4F02H   LINE      CODE     ---       #284
      00FF4F07H   LINE      CODE     ---       #285
      00FF4F0CH   LINE      CODE     ---       #286
      00FF4F11H   LINE      CODE     ---       #287
      00FF4F16H   LINE      CODE     ---       #288
      00FF4F1BH   LINE      CODE     ---       #289
      00FF4F20H   LINE      CODE     ---       #290
      00FF4F25H   LINE      CODE     ---       #291
      00FF4F2AH   LINE      CODE     ---       #292
      00FF4F2FH   LINE      CODE     ---       #293
      00FF4F34H   LINE      CODE     ---       #294
      00FF4F39H   LINE      CODE     ---       #295
      00FF4F3EH   LINE      CODE     ---       #296
      00FF4F42H   LINE      CODE     ---       #297
      00FF4F47H   LINE      CODE     ---       #298
      00FF4F4CH   LINE      CODE     ---       #299
      00FF4F51H   LINE      CODE     ---       #301
      00FF4F56H   LINE      CODE     ---       #302
      00FF4F5AH   LINE      CODE     ---       #303
      00FF4F5FH   LINE      CODE     ---       #304
      00FF4F63H   LINE      CODE     ---       #305
      00FF4F68H   LINE      CODE     ---       #307
      00FF4F6DH   LINE      CODE     ---       #308
      00FF4F71H   LINE      CODE     ---       #309
      00FF4F76H   LINE      CODE     ---       #310
      00FF4F7AH   LINE      CODE     ---       #311
L251 LINKER/LOCATER V4.66.93.0                                                        11/25/2023  21:38:42  PAGE 56


      00FF4F7FH   LINE      CODE     ---       #313
      00FF4F84H   LINE      CODE     ---       #314
      00FF4F89H   LINE      CODE     ---       #315
      00FF4F8EH   LINE      CODE     ---       #316
      00FF4F92H   LINE      CODE     ---       #318
      00FF4F97H   LINE      CODE     ---       #319
      00FF4F9CH   LINE      CODE     ---       #320
      00FF4FA1H   LINE      CODE     ---       #322
      00FF4FA8H   LINE      CODE     ---       #323
      ---         BLOCKEND  ---      ---       LVL=0
      00000D25H   SYMBOL    EDATA    WORD      x
      00000D27H   SYMBOL    EDATA    WORD      y
      00000D29H   SYMBOL    EDATA    WORD      color

      00FF5A4DH   BLOCK     CODE     ---       LVL=0
      00000C70H   SYMBOL    EDATA    WORD      x
      00000C72H   SYMBOL    EDATA    WORD      y
      00000C74H   SYMBOL    EDATA    CHAR      dat
      00FF5A59H   BLOCK     CODE     NEAR LAB  LVL=1
      00000C75H   SYMBOL    EDATA    BYTE      i
      00000C76H   SYMBOL    EDATA    BYTE      j
      00000C77H   SYMBOL    EDATA    BYTE      temp
      ---         BLOCKEND  ---      ---       LVL=1
      00FF5A4DH   LINE      CODE     ---       #351
      00FF5A59H   LINE      CODE     ---       #352
      00FF5A59H   LINE      CODE     ---       #356
      00FF5A61H   LINE      CODE     ---       #358
      00FF5A8AH   LINE      CODE     ---       #359
      00FF5AB2H   LINE      CODE     ---       #360
      00FF5AB9H   LINE      CODE     ---       #362
      00FF5AC9H   LINE      CODE     ---       #363
      00FF5AD0H   LINE      CODE     ---       #364
      00FF5ADAH   LINE      CODE     ---       #365
      00FF5AF1H   LINE      CODE     ---       #366
      00FF5B0BH   LINE      CODE     ---       #367
      ---         BLOCKEND  ---      ---       LVL=0

      00FF63B6H   BLOCK     CODE     ---       LVL=0
      00000B29H   SYMBOL    EDATA    WORD      x
      00000B2BH   SYMBOL    EDATA    WORD      y
      00000B2DH   SYMBOL    EDATA    ---       dat
      00FF63C2H   BLOCK     CODE     NEAR LAB  LVL=1
      00000B31H   SYMBOL    EDATA    WORD      j
      ---         BLOCKEND  ---      ---       LVL=1
      00FF63B6H   LINE      CODE     ---       #378
      00FF63C2H   LINE      CODE     ---       #379
      00FF63C2H   LINE      CODE     ---       #382
      00FF63C8H   LINE      CODE     ---       #383
      00FF63CAH   LINE      CODE     ---       #385
      00FF63F4H   LINE      CODE     ---       #386
      00FF6402H   LINE      CODE     ---       #387
      00FF6412H   LINE      CODE     ---       #388
      ---         BLOCKEND  ---      ---       LVL=0
      00000B83H   SYMBOL    EDATA    WORD      x
      00000B85H   SYMBOL    EDATA    WORD      y
      00000B87H   SYMBOL    EDATA    CHAR      dat
      00000B88H   SYMBOL    EDATA    ---       a
      00000B8BH   SYMBOL    EDATA    BYTE      i
      00000B8CH   SYMBOL    EDATA    WORD      x
      00000B8EH   SYMBOL    EDATA    WORD      y
      00000B90H   SYMBOL    EDATA    BYTE      dat
      00000B91H   SYMBOL    EDATA    ---       a
      00000B94H   SYMBOL    EDATA    BYTE      i

      00FF54DEH   BLOCK     CODE     ---       LVL=0
L251 LINKER/LOCATER V4.66.93.0                                                        11/25/2023  21:38:42  PAGE 57


      00000A25H   SYMBOL    EDATA    WORD      x
      00000A27H   SYMBOL    EDATA    WORD      y
      00000A29H   SYMBOL    EDATA    INT       dat
      00FF54EAH   BLOCK     CODE     NEAR LAB  LVL=1
      00000A2BH   SYMBOL    EDATA    ---       a
      00000A30H   SYMBOL    EDATA    BYTE      i
      ---         BLOCKEND  ---      ---       LVL=1
      00FF54DEH   LINE      CODE     ---       #456
      00FF54EAH   LINE      CODE     ---       #457
      00FF54EAH   LINE      CODE     ---       #460
      00FF54F4H   LINE      CODE     ---       #462
      00FF5509H   LINE      CODE     ---       #463
      00FF5517H   LINE      CODE     ---       #464
      00FF5519H   LINE      CODE     ---       #465
      00FF552EH   LINE      CODE     ---       #467
      00FF553DH   LINE      CODE     ---       #468
      00FF5555H   LINE      CODE     ---       #469
      00FF556DH   LINE      CODE     ---       #470
      00FF5585H   LINE      CODE     ---       #471
      00FF5596H   LINE      CODE     ---       #473
      00FF559BH   LINE      CODE     ---       #474
      00FF559DH   LINE      CODE     ---       #476
      00FF55DFH   LINE      CODE     ---       #477
      00FF55ECH   LINE      CODE     ---       #478
      00FF55F6H   LINE      CODE     ---       #479
      ---         BLOCKEND  ---      ---       LVL=0
      00000A31H   SYMBOL    EDATA    WORD      x
      00000A33H   SYMBOL    EDATA    WORD      y
      00000A35H   SYMBOL    EDATA    WORD      dat
      00000A37H   SYMBOL    EDATA    ---       a
      00000A3CH   SYMBOL    EDATA    BYTE      i
      000007D2H   SYMBOL    EDATA    WORD      x
      000007D4H   SYMBOL    EDATA    WORD      y
      000007D6H   SYMBOL    EDATA    LONG      dat
      000007DAH   SYMBOL    EDATA    BYTE      num
      000007DBH   SYMBOL    EDATA    ---       buff
      000007FDH   SYMBOL    EDATA    BYTE      length
      00000683H   SYMBOL    EDATA    WORD      x
      00000685H   SYMBOL    EDATA    WORD      y
      00000687H   SYMBOL    EDATA    FLOAT     dat
      0000068BH   SYMBOL    EDATA    BYTE      num
      0000068CH   SYMBOL    EDATA    BYTE      pointnum
      0000068DH   SYMBOL    EDATA    BYTE      length
      0000068EH   SYMBOL    EDATA    ---       buff
      000006B0H   SYMBOL    EDATA    CHAR      start
      000006B1H   SYMBOL    EDATA    CHAR      end
      000006B2H   SYMBOL    EDATA    CHAR      point
      00000EB6H   SYMBOL    EDATA    BYTE      dat
      00000EB7H   SYMBOL    EDATA    BYTE      dat
      00000DE0H   SYMBOL    EDATA    WORD      dat
      00000DE2H   SYMBOL    EDATA    ---       dat1
      00000C78H   SYMBOL    EDATA    WORD      x_start
      00000C7AH   SYMBOL    EDATA    WORD      y_start
      00000C7CH   SYMBOL    EDATA    WORD      x_end
      00000C7EH   SYMBOL    EDATA    WORD      y_end
      00000DE4H   SYMBOL    EDATA    INT       color
      00000DE6H   SYMBOL    EDATA    BYTE      i
      00000DE7H   SYMBOL    EDATA    BYTE      j
      00000D2BH   SYMBOL    EDATA    WORD      x
      00000D2DH   SYMBOL    EDATA    WORD      y
      00000D2FH   SYMBOL    EDATA    WORD      color
      00000C80H   SYMBOL    EDATA    WORD      x
      00000C82H   SYMBOL    EDATA    WORD      y
      00000C84H   SYMBOL    EDATA    CHAR      dat
      00000C85H   SYMBOL    EDATA    BYTE      i
L251 LINKER/LOCATER V4.66.93.0                                                        11/25/2023  21:38:42  PAGE 58


      00000C86H   SYMBOL    EDATA    BYTE      j
      00000C87H   SYMBOL    EDATA    BYTE      temp
      00000B33H   SYMBOL    EDATA    WORD      x
      00000B35H   SYMBOL    EDATA    WORD      y
      00000B37H   SYMBOL    EDATA    ---       dat
      00000B3BH   SYMBOL    EDATA    WORD      j
      00000B95H   SYMBOL    EDATA    WORD      x
      00000B97H   SYMBOL    EDATA    WORD      y
      00000B99H   SYMBOL    EDATA    CHAR      dat
      00000B9AH   SYMBOL    EDATA    ---       a
      00000B9DH   SYMBOL    EDATA    BYTE      i
      00000B9EH   SYMBOL    EDATA    WORD      x
      00000BA0H   SYMBOL    EDATA    WORD      y
      00000BA2H   SYMBOL    EDATA    BYTE      dat
      00000BA3H   SYMBOL    EDATA    ---       a
      00000BA6H   SYMBOL    EDATA    BYTE      i
      00000A3DH   SYMBOL    EDATA    WORD      x
      00000A3FH   SYMBOL    EDATA    WORD      y
      00000A41H   SYMBOL    EDATA    INT       dat
      00000A43H   SYMBOL    EDATA    ---       a
      00000A48H   SYMBOL    EDATA    BYTE      i
      00000A49H   SYMBOL    EDATA    WORD      x
      00000A4BH   SYMBOL    EDATA    WORD      y
      00000A4DH   SYMBOL    EDATA    WORD      dat
      00000A4FH   SYMBOL    EDATA    ---       a
      00000A54H   SYMBOL    EDATA    BYTE      i
      000007FEH   SYMBOL    EDATA    WORD      x
      00000800H   SYMBOL    EDATA    WORD      y
      00000802H   SYMBOL    EDATA    LONG      dat
      00000806H   SYMBOL    EDATA    BYTE      num
      00000807H   SYMBOL    EDATA    ---       buff
      00000829H   SYMBOL    EDATA    BYTE      length
      000006B3H   SYMBOL    EDATA    WORD      x
      000006B5H   SYMBOL    EDATA    WORD      y
      000006B7H   SYMBOL    EDATA    FLOAT     dat
      000006BBH   SYMBOL    EDATA    BYTE      num
      000006BCH   SYMBOL    EDATA    BYTE      pointnum
      000006BDH   SYMBOL    EDATA    BYTE      length
      000006BEH   SYMBOL    EDATA    ---       buff
      000006E0H   SYMBOL    EDATA    CHAR      start
      000006E1H   SYMBOL    EDATA    CHAR      end
      000006E2H   SYMBOL    EDATA    CHAR      point
      00000A55H   SYMBOL    EDATA    ---       p
      00000A59H   SYMBOL    EDATA    INT       i
      00000A5BH   SYMBOL    EDATA    INT       j
      00000A5DH   SYMBOL    EDATA    INT       k
      00000A5FH   SYMBOL    EDATA    BYTE      picH
      00000A60H   SYMBOL    EDATA    BYTE      picL

      ---         MODULE    ---      ---       SEEKFREE_ABSOLUTE_ENCODER
      000000D0H   SFRSYM    DATA     BYTE      PSW
      0000009DH   SFRSYM    DATA     BYTE      IRCBAND
      00000097H   SFRSYM    DATA     BYTE      AUXR2
      000000EFH   SFRSYM    DATA     BYTE      AUXINTIF
      000000FDH   SFRSYM    DATA     BYTE      S4CON
      000000ACH   SFRSYM    DATA     BYTE      S3CON
      0000009AH   SFRSYM    DATA     BYTE      S2CON
      000000B7H   SFRSYM    DATA     BYTE      IPH
      000000CDH   SFRSYM    DATA     BYTE      SPSTAT
      000000DDH   SFRSYM    DATA     BYTE      T4T3M
      000000C1H   SFRSYM    DATA     BYTE      WDT_CONTR
      000000DFH   SFRSYM    DATA     BYTE      IP3
      000000F4H   SFRSYM    DATA     BYTE      USBCON
      000000B5H   SFRSYM    DATA     BYTE      IP2
      000000FFH   SFRSYM    DATA     BYTE      RSTCFG
L251 LINKER/LOCATER V4.66.93.0                                                        11/25/2023  21:38:42  PAGE 59


      000000F9H   SFRSYM    DATA     BYTE      LINICR
      0000008EH   SFRSYM    DATA     BYTE      AUXR
      000000AFH   SFRSYM    DATA     BYTE      IE2
      000000A0H.7 SFRSYM    DATA     BIT       P27
      000000A0H.6 SFRSYM    DATA     BIT       P26
      000000A0H.5 SFRSYM    DATA     BIT       P25
      000000A0H.4 SFRSYM    DATA     BIT       P24
      00000088H   SFRSYM    DATA     BYTE      TCON
      00000098H   SFRSYM    DATA     BYTE      SCON
      000000A0H.2 SFRSYM    DATA     BIT       P22
      000000F1H   SFRSYM    DATA     BYTE      CANICR
      00000087H   SFRSYM    DATA     BYTE      PCON
      000000BCH   SFRSYM    DATA     BYTE      ADC_CONTR
      000000E7H   SFRSYM    DATA     BYTE      CMPCR2
      000000E6H   SFRSYM    DATA     BYTE      CMPCR1
      000000B8H   SFRSYM    DATA     BYTE      IP
      0000008FH   SFRSYM    DATA     BYTE      INTCLKO
      000000EEH   SFRSYM    DATA     BYTE      IP3H
      000000B6H   SFRSYM    DATA     BYTE      IP2H
      000000A8H   SFRSYM    DATA     BYTE      IE
      000000BBH   SFRSYM    DATA     BYTE      P_SW3
      000000BAH   SFRSYM    DATA     BYTE      P_SW2
      000000A2H   SFRSYM    DATA     BYTE      P_SW1
      000000CEH   SFRSYM    DATA     BYTE      SPCTL
      000000F8H   SFRSYM    DATA     BYTE      P7
      000000E8H   SFRSYM    DATA     BYTE      P6
      000000C8H   SFRSYM    DATA     BYTE      P5
      000000C0H   SFRSYM    DATA     BYTE      P4
      000000B0H   SFRSYM    DATA     BYTE      P3
      000000A0H   SFRSYM    DATA     BYTE      P2
      00000090H   SFRSYM    DATA     BYTE      P1
      00000080H   SFRSYM    DATA     BYTE      P0
      00000E6EH   SYMBOL    EDATA    WORD      x
      00000E70H   SYMBOL    EDATA    BYTE      byte
      00000E71H   SYMBOL    EDATA    BYTE      i
      00000E72H   SYMBOL    EDATA    BYTE      cmd
      00000E73H   SYMBOL    EDATA    BYTE      val
      00000D91H   SYMBOL    EDATA    BYTE      cmd
      00000D92H   SYMBOL    EDATA    ---       val
      00000E1EH   SYMBOL    EDATA    BYTE      cmd
      00000E1FH   SYMBOL    EDATA    BYTE      val
      00000E20H   SYMBOL    EDATA    BYTE      dat
      00000D96H   SYMBOL    EDATA    BYTE      cmd
      00000D97H   SYMBOL    EDATA    ---       val
      00000E74H   SYMBOL    EDATA    WORD      zero_position
      00000E76H   SYMBOL    EDATA    WORD      angle
      00000EB8H   SYMBOL    EDATA    BYTE      val
      00000EB9H   SYMBOL    EDATA    BYTE      byte
      00000E78H   SYMBOL    EDATA    BYTE      cmd
      00000E79H   SYMBOL    EDATA    BYTE      val
      00000D9BH   SYMBOL    EDATA    BYTE      cmd
      00000D9CH   SYMBOL    EDATA    ---       val
      00000E21H   SYMBOL    EDATA    BYTE      cmd
      00000E22H   SYMBOL    EDATA    BYTE      val
      00000E23H   SYMBOL    EDATA    BYTE      dat
      00000DA0H   SYMBOL    EDATA    BYTE      cmd
      00000DA1H   SYMBOL    EDATA    ---       val
      00000E7AH   SYMBOL    EDATA    WORD      zero_position
      00000E7CH   SYMBOL    EDATA    WORD      angle
      00000EBAH   SYMBOL    EDATA    BYTE      val

      ---         MODULE    ---      ---       SEEKFREE_AT24C02
      000000D0H   SFRSYM    DATA     BYTE      PSW
      0000009DH   SFRSYM    DATA     BYTE      IRCBAND
      00000097H   SFRSYM    DATA     BYTE      AUXR2
L251 LINKER/LOCATER V4.66.93.0                                                        11/25/2023  21:38:42  PAGE 60


      000000EFH   SFRSYM    DATA     BYTE      AUXINTIF
      000000FDH   SFRSYM    DATA     BYTE      S4CON
      000000ACH   SFRSYM    DATA     BYTE      S3CON
      0000009AH   SFRSYM    DATA     BYTE      S2CON
      000000B7H   SFRSYM    DATA     BYTE      IPH
      000000CDH   SFRSYM    DATA     BYTE      SPSTAT
      000000DDH   SFRSYM    DATA     BYTE      T4T3M
      000000C1H   SFRSYM    DATA     BYTE      WDT_CONTR
      000000DFH   SFRSYM    DATA     BYTE      IP3
      000000F4H   SFRSYM    DATA     BYTE      USBCON
      000000B5H   SFRSYM    DATA     BYTE      IP2
      000000FFH   SFRSYM    DATA     BYTE      RSTCFG
      000000F9H   SFRSYM    DATA     BYTE      LINICR
      0000008EH   SFRSYM    DATA     BYTE      AUXR
      000000AFH   SFRSYM    DATA     BYTE      IE2
      00000088H   SFRSYM    DATA     BYTE      TCON
      000000A0H.3 SFRSYM    DATA     BIT       P23
      00000098H   SFRSYM    DATA     BYTE      SCON
      000000A0H.2 SFRSYM    DATA     BIT       P22
      000000F1H   SFRSYM    DATA     BYTE      CANICR
      00000087H   SFRSYM    DATA     BYTE      PCON
      000000BCH   SFRSYM    DATA     BYTE      ADC_CONTR
      000000E7H   SFRSYM    DATA     BYTE      CMPCR2
      000000E6H   SFRSYM    DATA     BYTE      CMPCR1
      000000B8H   SFRSYM    DATA     BYTE      IP
      0000008FH   SFRSYM    DATA     BYTE      INTCLKO
      000000EEH   SFRSYM    DATA     BYTE      IP3H
      000000B6H   SFRSYM    DATA     BYTE      IP2H
      000000A8H   SFRSYM    DATA     BYTE      IE
      000000BBH   SFRSYM    DATA     BYTE      P_SW3
      000000BAH   SFRSYM    DATA     BYTE      P_SW2
      000000A2H   SFRSYM    DATA     BYTE      P_SW1
      000000CEH   SFRSYM    DATA     BYTE      SPCTL
      000000F8H   SFRSYM    DATA     BYTE      P7
      000000E8H   SFRSYM    DATA     BYTE      P6
      000000C8H   SFRSYM    DATA     BYTE      P5
      000000C0H   SFRSYM    DATA     BYTE      P4
      000000B0H   SFRSYM    DATA     BYTE      P3
      000000A0H   SFRSYM    DATA     BYTE      P2
      00000090H   SFRSYM    DATA     BYTE      P1
      00000080H   SFRSYM    DATA     BYTE      P0
      00000E7EH   SYMBOL    EDATA    WORD      j
      00000EBBH   SYMBOL    EDATA    BYTE      ack_dat
      00000E80H   SYMBOL    EDATA    BYTE      c
      00000E81H   SYMBOL    EDATA    BYTE      i
      00000E24H   SYMBOL    EDATA    BYTE      ack_x
      00000E25H   SYMBOL    EDATA    BYTE      i
      00000E26H   SYMBOL    EDATA    BYTE      c
      00000E27H   SYMBOL    EDATA    BYTE      dev_add
      00000E28H   SYMBOL    EDATA    BYTE      reg
      00000E29H   SYMBOL    EDATA    BYTE      dat
      00000E2AH   SYMBOL    EDATA    BYTE      dev_add
      00000E2BH   SYMBOL    EDATA    BYTE      reg
      00000E2CH   SYMBOL    EDATA    BYTE      dat
      00000E82H   SYMBOL    EDATA    BYTE      byte_reg
      00000E83H   SYMBOL    EDATA    BYTE      dat
      00000EBCH   SYMBOL    EDATA    BYTE      byte_reg
      00000D31H   SYMBOL    EDATA    BYTE      byte_reg
      00000D32H   SYMBOL    EDATA    ---       dat_add
      00000D36H   SYMBOL    EDATA    BYTE      num
      00000D37H   SYMBOL    EDATA    BYTE      byte_reg
      00000D38H   SYMBOL    EDATA    ---       dat_add
      00000D3CH   SYMBOL    EDATA    BYTE      num

      ---         MODULE    ---      ---       SEEKFREE_BLUETOOTH_CH9141
L251 LINKER/LOCATER V4.66.93.0                                                        11/25/2023  21:38:42  PAGE 61


      00FF0066H   PUBLIC    CODE     ---       bluetooth_ch9141_uart_callback
      000000D0H   SFRSYM    DATA     BYTE      PSW
      0000009DH   SFRSYM    DATA     BYTE      IRCBAND
      00000097H   SFRSYM    DATA     BYTE      AUXR2
      000000EFH   SFRSYM    DATA     BYTE      AUXINTIF
      000000FDH   SFRSYM    DATA     BYTE      S4CON
      000000ACH   SFRSYM    DATA     BYTE      S3CON
      0000009AH   SFRSYM    DATA     BYTE      S2CON
      000000FEH   SFRSYM    DATA     BYTE      S4BUF
      000000B7H   SFRSYM    DATA     BYTE      IPH
      000000CDH   SFRSYM    DATA     BYTE      SPSTAT
      000000DDH   SFRSYM    DATA     BYTE      T4T3M
      000000C1H   SFRSYM    DATA     BYTE      WDT_CONTR
      000000DFH   SFRSYM    DATA     BYTE      IP3
      000000F4H   SFRSYM    DATA     BYTE      USBCON
      000000B5H   SFRSYM    DATA     BYTE      IP2
      000000FFH   SFRSYM    DATA     BYTE      RSTCFG
      000000F9H   SFRSYM    DATA     BYTE      LINICR
      0000008EH   SFRSYM    DATA     BYTE      AUXR
      000000AFH   SFRSYM    DATA     BYTE      IE2
      00000080H.7 SFRSYM    DATA     BIT       P07
      00000088H   SFRSYM    DATA     BYTE      TCON
      00000098H   SFRSYM    DATA     BYTE      SCON
      000000F1H   SFRSYM    DATA     BYTE      CANICR
      00000087H   SFRSYM    DATA     BYTE      PCON
      000000BCH   SFRSYM    DATA     BYTE      ADC_CONTR
      000000E7H   SFRSYM    DATA     BYTE      CMPCR2
      000000E6H   SFRSYM    DATA     BYTE      CMPCR1
      000000B8H   SFRSYM    DATA     BYTE      IP
      0000008FH   SFRSYM    DATA     BYTE      INTCLKO
      000000EEH   SFRSYM    DATA     BYTE      IP3H
      000000B6H   SFRSYM    DATA     BYTE      IP2H
      000000A8H   SFRSYM    DATA     BYTE      IE
      000000BBH   SFRSYM    DATA     BYTE      P_SW3
      000000BAH   SFRSYM    DATA     BYTE      P_SW2
      000000A2H   SFRSYM    DATA     BYTE      P_SW1
      000000CEH   SFRSYM    DATA     BYTE      SPCTL
      000000F8H   SFRSYM    DATA     BYTE      P7
      000000E8H   SFRSYM    DATA     BYTE      P6
      000000C8H   SFRSYM    DATA     BYTE      P5
      000000C0H   SFRSYM    DATA     BYTE      P4
      000000B0H   SFRSYM    DATA     BYTE      P3
      000000A0H   SFRSYM    DATA     BYTE      P2
      00000090H   SFRSYM    DATA     BYTE      P1
      00000080H   SFRSYM    DATA     BYTE      P0
      00000584H   SYMBOL    EDATA    ---       bluetooth_ch9141_buffer
      000005C4H   SYMBOL    EDATA    BYTE      bluetooth_ch9141_data
      000005C5H   SYMBOL    EDATA    ---       bluetooth_ch9141_fifo

      00FF0066H   BLOCK     CODE     ---       LVL=0
      00FF0066H   LINE      CODE     ---       #67
      00FF0066H   LINE      CODE     ---       #70
      00FF006CH   LINE      CODE     ---       #71
      00FF007FH   LINE      CODE     ---       #72
      ---         BLOCKEND  ---      ---       LVL=0
      00000B3DH   SYMBOL    EDATA    ---       buff
      00000B41H   SYMBOL    EDATA    DWORD     len
      00000B45H   SYMBOL    EDATA    WORD      time_count
      00000A61H   SYMBOL    EDATA    ---       buff
      00000A65H   SYMBOL    EDATA    DWORD     len
      00000A69H   SYMBOL    EDATA    DWORD     data_len

      ---         MODULE    ---      ---       SEEKFREE_DL1A
      00000E2DH   PUBLIC    EDATA    WORD      dl1a_distance_mm
      00000E2FH   PUBLIC    EDATA    BYTE      dl1a_finsh_flag
L251 LINKER/LOCATER V4.66.93.0                                                        11/25/2023  21:38:42  PAGE 62


      000000D0H   SFRSYM    DATA     BYTE      PSW
      0000009DH   SFRSYM    DATA     BYTE      IRCBAND
      00000097H   SFRSYM    DATA     BYTE      AUXR2
      000000EFH   SFRSYM    DATA     BYTE      AUXINTIF
      000000FDH   SFRSYM    DATA     BYTE      S4CON
      000000ACH   SFRSYM    DATA     BYTE      S3CON
      0000009AH   SFRSYM    DATA     BYTE      S2CON
      000000B7H   SFRSYM    DATA     BYTE      IPH
      000000CDH   SFRSYM    DATA     BYTE      SPSTAT
      000000DDH   SFRSYM    DATA     BYTE      T4T3M
      000000C1H   SFRSYM    DATA     BYTE      WDT_CONTR
      000000DFH   SFRSYM    DATA     BYTE      IP3
      000000F4H   SFRSYM    DATA     BYTE      USBCON
      000000B5H   SFRSYM    DATA     BYTE      IP2
      000000FFH   SFRSYM    DATA     BYTE      RSTCFG
      000000F9H   SFRSYM    DATA     BYTE      LINICR
      0000008EH   SFRSYM    DATA     BYTE      AUXR
      000000AFH   SFRSYM    DATA     BYTE      IE2
      000000C0H.7 SFRSYM    DATA     BIT       P47
      000000E8H.5 SFRSYM    DATA     BIT       P65
      000000E8H.3 SFRSYM    DATA     BIT       P63
      00000088H   SFRSYM    DATA     BYTE      TCON
      00000098H   SFRSYM    DATA     BYTE      SCON
      000000F1H   SFRSYM    DATA     BYTE      CANICR
      00000087H   SFRSYM    DATA     BYTE      PCON
      000000BCH   SFRSYM    DATA     BYTE      ADC_CONTR
      000000E7H   SFRSYM    DATA     BYTE      CMPCR2
      000000E6H   SFRSYM    DATA     BYTE      CMPCR1
      000000B8H   SFRSYM    DATA     BYTE      IP
      0000008FH   SFRSYM    DATA     BYTE      INTCLKO
      000000EEH   SFRSYM    DATA     BYTE      IP3H
      000000B6H   SFRSYM    DATA     BYTE      IP2H
      000000A8H   SFRSYM    DATA     BYTE      IE
      000000BBH   SFRSYM    DATA     BYTE      P_SW3
      000000BAH   SFRSYM    DATA     BYTE      P_SW2
      000000A2H   SFRSYM    DATA     BYTE      P_SW1
      000000CEH   SFRSYM    DATA     BYTE      SPCTL
      000000F8H   SFRSYM    DATA     BYTE      P7
      000000E8H   SFRSYM    DATA     BYTE      P6
      000000C8H   SFRSYM    DATA     BYTE      P5
      000000C0H   SFRSYM    DATA     BYTE      P4
      000000B0H   SFRSYM    DATA     BYTE      P3
      000000A0H   SFRSYM    DATA     BYTE      P2
      00000090H   SFRSYM    DATA     BYTE      P1
      00000080H   SFRSYM    DATA     BYTE      P0
      00000E84H   SYMBOL    EDATA    WORD      j
      00000EBDH   SYMBOL    EDATA    BYTE      ack_dat
      00000E86H   SYMBOL    EDATA    BYTE      c
      00000E87H   SYMBOL    EDATA    BYTE      i
      00000E30H   SYMBOL    EDATA    BYTE      ack_x
      00000E31H   SYMBOL    EDATA    BYTE      i
      00000E32H   SYMBOL    EDATA    BYTE      c
      00000BA7H   SYMBOL    EDATA    BYTE      dev_add
      00000BA8H   SYMBOL    EDATA    ---       dat
      00000BACH   SYMBOL    EDATA    DWORD     len
      00000E33H   SYMBOL    EDATA    BYTE      dev_add
      00000E34H   SYMBOL    EDATA    BYTE      reg
      00000E35H   SYMBOL    EDATA    BYTE      dat
      00000E36H   SYMBOL    EDATA    BYTE      dev_add
      00000E37H   SYMBOL    EDATA    BYTE      reg
      00000E38H   SYMBOL    EDATA    BYTE      dat
      00000B47H   SYMBOL    EDATA    BYTE      dev_add
      00000B48H   SYMBOL    EDATA    BYTE      reg
      00000B49H   SYMBOL    EDATA    ---       dat_add
      00000B4DH   SYMBOL    EDATA    DWORD     num
L251 LINKER/LOCATER V4.66.93.0                                                        11/25/2023  21:38:42  PAGE 63


      00000B51H   SYMBOL    EDATA    BYTE      dev_add
      00000B52H   SYMBOL    EDATA    BYTE      reg
      00000B53H   SYMBOL    EDATA    ---       dat_add
      00000B57H   SYMBOL    EDATA    DWORD     num
      00000A6DH   SYMBOL    EDATA    ---       index
      00000A71H   SYMBOL    EDATA    ---       type_is_aperture
      00000A75H   SYMBOL    EDATA    BYTE      tmp
      00000A76H   SYMBOL    EDATA    BYTE      return_state
      00000A77H   SYMBOL    EDATA    WORD      loop_count
      00000CDEH   SYMBOL    EDATA    WORD      timeout_period_mclks
      00000CE0H   SYMBOL    EDATA    BYTE      vcsel_period_pclks
      00000CE1H   SYMBOL    EDATA    DWORD     macro_period_ns
      00000BB0H   SYMBOL    EDATA    DWORD     timeout_period_us
      00000BB4H   SYMBOL    EDATA    BYTE      vcsel_period_pclks
      00000BB5H   SYMBOL    EDATA    DWORD     macro_period_ns
      00000E88H   SYMBOL    EDATA    WORD      reg_val
      00000B5BH   SYMBOL    EDATA    WORD      timeout_mclks
      00000B5DH   SYMBOL    EDATA    DWORD     ls_byte
      00000B61H   SYMBOL    EDATA    WORD      ms_byte
      00000B63H   SYMBOL    EDATA    WORD      return_data
      00000DA5H   SYMBOL    EDATA    ---       enables
      00000DA9H   SYMBOL    EDATA    BYTE      sequence_config
      00000E39H   SYMBOL    EDATA    INT       type
      00000E3BH   SYMBOL    EDATA    BYTE      data_buffer
      00000A79H   SYMBOL    EDATA    ---       enables
      00000A7DH   SYMBOL    EDATA    ---       timeouts
      00000A81H   SYMBOL    EDATA    ---       reg_buffer
      00000A83H   SYMBOL    EDATA    WORD      reg16_buffer
      00000DAAH   SYMBOL    EDATA    BYTE      vhv_init_byte
      00000DABH   SYMBOL    EDATA    BYTE      return_state
      00000DACH   SYMBOL    EDATA    BYTE      data_buffer
      00000DADH   SYMBOL    EDATA    WORD      loop_count
      000007A3H   SYMBOL    EDATA    DWORD     budget_us
      000007A7H   SYMBOL    EDATA    BYTE      return_state
      000007A8H   SYMBOL    EDATA    ---       data_buffer
      000007ABH   SYMBOL    EDATA    WORD      dat
      000007ADH   SYMBOL    EDATA    DWORD     used_budget_us
      000007B1H   SYMBOL    EDATA    DWORD     final_range_timeout_us
      000007B5H   SYMBOL    EDATA    WORD      final_range_timeout_mclks
      000007B7H   SYMBOL    EDATA    ---       enables
      000007BCH   SYMBOL    EDATA    ---       timeouts
      00000902H   SYMBOL    EDATA    ---       enables
      00000907H   SYMBOL    EDATA    ---       timeouts
      0000091DH   SYMBOL    EDATA    DWORD     budget_us
      00000BB9H   SYMBOL    EDATA    FLOAT     limit_mcps
      00000BBDH   SYMBOL    EDATA    ---       data_buffer
      00000BC0H   SYMBOL    EDATA    WORD      limit_mcps_16bit
      00000E3CH   SYMBOL    EDATA    ---       reg_databuffer
      00000921H   SYMBOL    EDATA    DWORD     measurement_timing_budget_us
      00000925H   SYMBOL    EDATA    BYTE      stop_variable
      00000926H   SYMBOL    EDATA    BYTE      return_state
      00000927H   SYMBOL    EDATA    BYTE      reg_data_buffer
      00000928H   SYMBOL    EDATA    ---       ref_spad_map
      0000092EH   SYMBOL    EDATA    ---       data_buffer
      00000935H   SYMBOL    EDATA    BYTE      i

      ---         MODULE    ---      ---       SEEKFREE_FONT
      00FF20A6H   PUBLIC    CODE     ---       oled_8x16
      00FF2696H   PUBLIC    CODE     ---       tft_ascii
      00FF2C86H   PUBLIC    CODE     ---       oled_6x8
      000000D0H   SFRSYM    DATA     BYTE      PSW
      0000009DH   SFRSYM    DATA     BYTE      IRCBAND
      00000097H   SFRSYM    DATA     BYTE      AUXR2
      000000EFH   SFRSYM    DATA     BYTE      AUXINTIF
      000000FDH   SFRSYM    DATA     BYTE      S4CON
L251 LINKER/LOCATER V4.66.93.0                                                        11/25/2023  21:38:42  PAGE 64


      000000ACH   SFRSYM    DATA     BYTE      S3CON
      0000009AH   SFRSYM    DATA     BYTE      S2CON
      000000B7H   SFRSYM    DATA     BYTE      IPH
      000000CDH   SFRSYM    DATA     BYTE      SPSTAT
      000000DDH   SFRSYM    DATA     BYTE      T4T3M
      000000C1H   SFRSYM    DATA     BYTE      WDT_CONTR
      000000DFH   SFRSYM    DATA     BYTE      IP3
      000000F4H   SFRSYM    DATA     BYTE      USBCON
      000000B5H   SFRSYM    DATA     BYTE      IP2
      000000FFH   SFRSYM    DATA     BYTE      RSTCFG
      000000F9H   SFRSYM    DATA     BYTE      LINICR
      0000008EH   SFRSYM    DATA     BYTE      AUXR
      000000AFH   SFRSYM    DATA     BYTE      IE2
      00000088H   SFRSYM    DATA     BYTE      TCON
      00000098H   SFRSYM    DATA     BYTE      SCON
      000000F1H   SFRSYM    DATA     BYTE      CANICR
      00000087H   SFRSYM    DATA     BYTE      PCON
      000000BCH   SFRSYM    DATA     BYTE      ADC_CONTR
      000000E7H   SFRSYM    DATA     BYTE      CMPCR2
      000000E6H   SFRSYM    DATA     BYTE      CMPCR1
      000000B8H   SFRSYM    DATA     BYTE      IP
      0000008FH   SFRSYM    DATA     BYTE      INTCLKO
      000000EEH   SFRSYM    DATA     BYTE      IP3H
      000000B6H   SFRSYM    DATA     BYTE      IP2H
      000000A8H   SFRSYM    DATA     BYTE      IE
      000000BBH   SFRSYM    DATA     BYTE      P_SW3
      000000BAH   SFRSYM    DATA     BYTE      P_SW2
      000000A2H   SFRSYM    DATA     BYTE      P_SW1
      000000CEH   SFRSYM    DATA     BYTE      SPCTL
      000000F8H   SFRSYM    DATA     BYTE      P7
      000000E8H   SFRSYM    DATA     BYTE      P6
      000000C8H   SFRSYM    DATA     BYTE      P5
      000000C0H   SFRSYM    DATA     BYTE      P4
      000000B0H   SFRSYM    DATA     BYTE      P3
      000000A0H   SFRSYM    DATA     BYTE      P2
      00000090H   SFRSYM    DATA     BYTE      P1
      00000080H   SFRSYM    DATA     BYTE      P0

      ---         MODULE    ---      ---       SEEKFREE_ICM20602
      00000A85H   PUBLIC    EDATA    INT       icm20602_acc_x
      00000A87H   PUBLIC    EDATA    INT       icm20602_acc_y
      00000A89H   PUBLIC    EDATA    INT       icm20602_acc_z
      00000A8BH   PUBLIC    EDATA    INT       icm20602_gyro_x
      00000A8DH   PUBLIC    EDATA    INT       icm20602_gyro_y
      00000A8FH   PUBLIC    EDATA    INT       icm20602_gyro_z
      000000D0H   SFRSYM    DATA     BYTE      PSW
      0000009DH   SFRSYM    DATA     BYTE      IRCBAND
      00000097H   SFRSYM    DATA     BYTE      AUXR2
      000000EFH   SFRSYM    DATA     BYTE      AUXINTIF
      000000FDH   SFRSYM    DATA     BYTE      S4CON
      000000ACH   SFRSYM    DATA     BYTE      S3CON
      0000009AH   SFRSYM    DATA     BYTE      S2CON
      000000B7H   SFRSYM    DATA     BYTE      IPH
      000000CDH   SFRSYM    DATA     BYTE      SPSTAT
      000000DDH   SFRSYM    DATA     BYTE      T4T3M
      000000C1H   SFRSYM    DATA     BYTE      WDT_CONTR
      000000DFH   SFRSYM    DATA     BYTE      IP3
      000000F4H   SFRSYM    DATA     BYTE      USBCON
      000000B5H   SFRSYM    DATA     BYTE      IP2
      000000FFH   SFRSYM    DATA     BYTE      RSTCFG
      000000F9H   SFRSYM    DATA     BYTE      LINICR
      0000008EH   SFRSYM    DATA     BYTE      AUXR
      000000AFH   SFRSYM    DATA     BYTE      IE2
      000000C0H.3 SFRSYM    DATA     BIT       P43
      000000C0H.2 SFRSYM    DATA     BIT       P42
L251 LINKER/LOCATER V4.66.93.0                                                        11/25/2023  21:38:42  PAGE 65


      00000088H   SFRSYM    DATA     BYTE      TCON
      000000C0H.1 SFRSYM    DATA     BIT       P41
      00000098H   SFRSYM    DATA     BYTE      SCON
      000000C0H.0 SFRSYM    DATA     BIT       P40
      000000F1H   SFRSYM    DATA     BYTE      CANICR
      00000087H   SFRSYM    DATA     BYTE      PCON
      000000BCH   SFRSYM    DATA     BYTE      ADC_CONTR
      000000E7H   SFRSYM    DATA     BYTE      CMPCR2
      000000E6H   SFRSYM    DATA     BYTE      CMPCR1
      000000B8H   SFRSYM    DATA     BYTE      IP
      0000008FH   SFRSYM    DATA     BYTE      INTCLKO
      000000EEH   SFRSYM    DATA     BYTE      IP3H
      000000B6H   SFRSYM    DATA     BYTE      IP2H
      000000A8H   SFRSYM    DATA     BYTE      IE
      000000BBH   SFRSYM    DATA     BYTE      P_SW3
      000000BAH   SFRSYM    DATA     BYTE      P_SW2
      000000A2H   SFRSYM    DATA     BYTE      P_SW1
      000000CEH   SFRSYM    DATA     BYTE      SPCTL
      000000F8H   SFRSYM    DATA     BYTE      P7
      000000E8H   SFRSYM    DATA     BYTE      P6
      000000C8H   SFRSYM    DATA     BYTE      P5
      000000C0H   SFRSYM    DATA     BYTE      P4
      000000B0H   SFRSYM    DATA     BYTE      P3
      000000A0H   SFRSYM    DATA     BYTE      P2
      00000090H   SFRSYM    DATA     BYTE      P1
      00000080H   SFRSYM    DATA     BYTE      P0
      00000E8AH   SYMBOL    EDATA    BYTE      byte
      00000E8BH   SYMBOL    EDATA    BYTE      i
      00000E8CH   SYMBOL    EDATA    BYTE      cmd
      00000E8DH   SYMBOL    EDATA    BYTE      val
      00000DAFH   SYMBOL    EDATA    BYTE      cmd
      00000DB0H   SYMBOL    EDATA    ---       val
      000009FFH   SYMBOL    EDATA    BYTE      cmd
      00000A00H   SYMBOL    EDATA    ---       val
      00000A04H   SYMBOL    EDATA    DWORD     num
      00000A08H   SYMBOL    EDATA    DWORD     i
      00000E8EH   SYMBOL    EDATA    BYTE      reg
      00000E8FH   SYMBOL    EDATA    BYTE      dat
      00000E90H   SYMBOL    EDATA    BYTE      reg
      00000E91H   SYMBOL    EDATA    BYTE      dat
      00000BC2H   SYMBOL    EDATA    BYTE      reg
      00000BC3H   SYMBOL    EDATA    ---       dat
      00000BC7H   SYMBOL    EDATA    DWORD     len
      00000DE8H   SYMBOL    EDATA    BYTE      dat
      00000DE9H   SYMBOL    EDATA    BYTE      return_state
      00000DEAH   SYMBOL    EDATA    WORD      timeout_count
      00000D3DH   SYMBOL    EDATA    ---       dat
      00000D43H   SYMBOL    EDATA    ---       dat
      00000D49H   SYMBOL    EDATA    INT       acc_value
      00000D4BH   SYMBOL    EDATA    FLOAT     acc_data
      00000D4FH   SYMBOL    EDATA    INT       gyro_value
      00000D51H   SYMBOL    EDATA    FLOAT     gyro_data
      00000DECH   SYMBOL    EDATA    BYTE      val
      00000DEDH   SYMBOL    EDATA    BYTE      return_state
      00000DEEH   SYMBOL    EDATA    WORD      timeout_count

      ---         MODULE    ---      ---       SEEKFREE_IPS114_SPI
      000006E3H   PUBLIC    EDATA    BYTE      ?ips114_showfloat_simspi?BYTE
      00000713H   PUBLIC    EDATA    BYTE      ?ips114_showfloat?BYTE
      000000D0H   SFRSYM    DATA     BYTE      PSW
      0000009DH   SFRSYM    DATA     BYTE      IRCBAND
      00000097H   SFRSYM    DATA     BYTE      AUXR2
      000000EFH   SFRSYM    DATA     BYTE      AUXINTIF
      000000FDH   SFRSYM    DATA     BYTE      S4CON
      000000ACH   SFRSYM    DATA     BYTE      S3CON
L251 LINKER/LOCATER V4.66.93.0                                                        11/25/2023  21:38:42  PAGE 66


      0000009AH   SFRSYM    DATA     BYTE      S2CON
      000000B7H   SFRSYM    DATA     BYTE      IPH
      000000CDH   SFRSYM    DATA     BYTE      SPSTAT
      000000DDH   SFRSYM    DATA     BYTE      T4T3M
      000000C1H   SFRSYM    DATA     BYTE      WDT_CONTR
      000000DFH   SFRSYM    DATA     BYTE      IP3
      000000F4H   SFRSYM    DATA     BYTE      USBCON
      000000B5H   SFRSYM    DATA     BYTE      IP2
      000000FFH   SFRSYM    DATA     BYTE      RSTCFG
      000000F9H   SFRSYM    DATA     BYTE      LINICR
      0000008EH   SFRSYM    DATA     BYTE      AUXR
      000000AFH   SFRSYM    DATA     BYTE      IE2
      000000A0H.7 SFRSYM    DATA     BIT       P27
      000000A0H.5 SFRSYM    DATA     BIT       P25
      00000088H   SFRSYM    DATA     BYTE      TCON
      000000A0H.3 SFRSYM    DATA     BIT       P23
      00000098H   SFRSYM    DATA     BYTE      SCON
      000000A0H.2 SFRSYM    DATA     BIT       P22
      000000A0H.1 SFRSYM    DATA     BIT       P21
      000000A0H.0 SFRSYM    DATA     BIT       P20
      000000F1H   SFRSYM    DATA     BYTE      CANICR
      00000087H   SFRSYM    DATA     BYTE      PCON
      000000BCH   SFRSYM    DATA     BYTE      ADC_CONTR
      000000E7H   SFRSYM    DATA     BYTE      CMPCR2
      000000E6H   SFRSYM    DATA     BYTE      CMPCR1
      000000B8H   SFRSYM    DATA     BYTE      IP
      0000008FH   SFRSYM    DATA     BYTE      INTCLKO
      000000EEH   SFRSYM    DATA     BYTE      IP3H
      000000B6H   SFRSYM    DATA     BYTE      IP2H
      000000A8H   SFRSYM    DATA     BYTE      IE
      000000BBH   SFRSYM    DATA     BYTE      P_SW3
      000000BAH   SFRSYM    DATA     BYTE      P_SW2
      000000A2H   SFRSYM    DATA     BYTE      P_SW1
      000000CEH   SFRSYM    DATA     BYTE      SPCTL
      000000F8H   SFRSYM    DATA     BYTE      P7
      000000E8H   SFRSYM    DATA     BYTE      P6
      000000C8H   SFRSYM    DATA     BYTE      P5
      000000C0H   SFRSYM    DATA     BYTE      P4
      000000B0H   SFRSYM    DATA     BYTE      P3
      000000A0H   SFRSYM    DATA     BYTE      P2
      00000090H   SFRSYM    DATA     BYTE      P1
      00000080H   SFRSYM    DATA     BYTE      P0
      00000E92H   SYMBOL    EDATA    BYTE      dat
      00000E93H   SYMBOL    EDATA    BYTE      i
      00000E94H   SYMBOL    EDATA    BYTE      dat
      00000E95H   SYMBOL    EDATA    BYTE      i
      00000E3FH   SYMBOL    EDATA    WORD      dat
      00000E41H   SYMBOL    EDATA    BYTE      i
      00000C88H   SYMBOL    EDATA    WORD      x1
      00000C8AH   SYMBOL    EDATA    WORD      y1
      00000C8CH   SYMBOL    EDATA    WORD      x2
      00000C8EH   SYMBOL    EDATA    WORD      y2
      00000D55H   SYMBOL    EDATA    WORD      color
      00000D57H   SYMBOL    EDATA    WORD      i
      00000D59H   SYMBOL    EDATA    WORD      j
      00000D5BH   SYMBOL    EDATA    WORD      x
      00000D5DH   SYMBOL    EDATA    WORD      y
      00000D5FH   SYMBOL    EDATA    WORD      color
      00000C90H   SYMBOL    EDATA    WORD      x
      00000C92H   SYMBOL    EDATA    WORD      y
      00000C94H   SYMBOL    EDATA    CHAR      dat
      00000C95H   SYMBOL    EDATA    BYTE      i
      00000C96H   SYMBOL    EDATA    BYTE      j
      00000C97H   SYMBOL    EDATA    BYTE      temp
      00000B65H   SYMBOL    EDATA    WORD      x
L251 LINKER/LOCATER V4.66.93.0                                                        11/25/2023  21:38:42  PAGE 67


      00000B67H   SYMBOL    EDATA    WORD      y
      00000B69H   SYMBOL    EDATA    ---       dat
      00000B6DH   SYMBOL    EDATA    WORD      j
      00000BCBH   SYMBOL    EDATA    WORD      x
      00000BCDH   SYMBOL    EDATA    WORD      y
      00000BCFH   SYMBOL    EDATA    CHAR      dat
      00000BD0H   SYMBOL    EDATA    ---       a
      00000BD3H   SYMBOL    EDATA    BYTE      i
      00000BD4H   SYMBOL    EDATA    WORD      x
      00000BD6H   SYMBOL    EDATA    WORD      y
      00000BD8H   SYMBOL    EDATA    BYTE      dat
      00000BD9H   SYMBOL    EDATA    ---       a
      00000BDCH   SYMBOL    EDATA    BYTE      i
      00000A91H   SYMBOL    EDATA    WORD      x
      00000A93H   SYMBOL    EDATA    WORD      y
      00000A95H   SYMBOL    EDATA    INT       dat
      00000A97H   SYMBOL    EDATA    ---       a
      00000A9CH   SYMBOL    EDATA    BYTE      i
      00000A9DH   SYMBOL    EDATA    WORD      x
      00000A9FH   SYMBOL    EDATA    WORD      y
      00000AA1H   SYMBOL    EDATA    WORD      dat
      00000AA3H   SYMBOL    EDATA    ---       a
      00000AA8H   SYMBOL    EDATA    BYTE      i
      0000082AH   SYMBOL    EDATA    WORD      x
      0000082CH   SYMBOL    EDATA    WORD      y
      0000082EH   SYMBOL    EDATA    LONG      dat
      00000832H   SYMBOL    EDATA    BYTE      num
      00000833H   SYMBOL    EDATA    ---       buff
      00000855H   SYMBOL    EDATA    BYTE      length
      000006E3H   SYMBOL    EDATA    WORD      x
      000006E5H   SYMBOL    EDATA    WORD      y
      000006E7H   SYMBOL    EDATA    FLOAT     dat
      000006EBH   SYMBOL    EDATA    BYTE      num
      000006ECH   SYMBOL    EDATA    BYTE      pointnum
      000006EDH   SYMBOL    EDATA    BYTE      length
      000006EEH   SYMBOL    EDATA    ---       buff
      00000710H   SYMBOL    EDATA    CHAR      start
      00000711H   SYMBOL    EDATA    CHAR      end
      00000712H   SYMBOL    EDATA    CHAR      point
      00000EBEH   SYMBOL    EDATA    BYTE      dat
      00000EBFH   SYMBOL    EDATA    BYTE      dat
      00000DF0H   SYMBOL    EDATA    WORD      dat
      00000DF2H   SYMBOL    EDATA    ---       dat1
      00000C98H   SYMBOL    EDATA    WORD      x1
      00000C9AH   SYMBOL    EDATA    WORD      y1
      00000C9CH   SYMBOL    EDATA    WORD      x2
      00000C9EH   SYMBOL    EDATA    WORD      y2
      00000D61H   SYMBOL    EDATA    WORD      color
      00000D63H   SYMBOL    EDATA    WORD      i
      00000D65H   SYMBOL    EDATA    WORD      j
      00000D67H   SYMBOL    EDATA    WORD      x
      00000D69H   SYMBOL    EDATA    WORD      y
      00000D6BH   SYMBOL    EDATA    WORD      color
      00000CA0H   SYMBOL    EDATA    WORD      x
      00000CA2H   SYMBOL    EDATA    WORD      y
      00000CA4H   SYMBOL    EDATA    CHAR      dat
      00000CA5H   SYMBOL    EDATA    BYTE      i
      00000CA6H   SYMBOL    EDATA    BYTE      j
      00000CA7H   SYMBOL    EDATA    BYTE      temp
      00000B6FH   SYMBOL    EDATA    WORD      x
      00000B71H   SYMBOL    EDATA    WORD      y
      00000B73H   SYMBOL    EDATA    ---       dat
      00000B77H   SYMBOL    EDATA    WORD      j
      00000BDDH   SYMBOL    EDATA    WORD      x
      00000BDFH   SYMBOL    EDATA    WORD      y
L251 LINKER/LOCATER V4.66.93.0                                                        11/25/2023  21:38:42  PAGE 68


      00000BE1H   SYMBOL    EDATA    CHAR      dat
      00000BE2H   SYMBOL    EDATA    ---       a
      00000BE5H   SYMBOL    EDATA    BYTE      i
      00000BE6H   SYMBOL    EDATA    WORD      x
      00000BE8H   SYMBOL    EDATA    WORD      y
      00000BEAH   SYMBOL    EDATA    BYTE      dat
      00000BEBH   SYMBOL    EDATA    ---       a
      00000BEEH   SYMBOL    EDATA    BYTE      i
      00000AA9H   SYMBOL    EDATA    WORD      x
      00000AABH   SYMBOL    EDATA    WORD      y
      00000AADH   SYMBOL    EDATA    INT       dat
      00000AAFH   SYMBOL    EDATA    ---       a
      00000AB4H   SYMBOL    EDATA    BYTE      i
      00000AB5H   SYMBOL    EDATA    WORD      x
      00000AB7H   SYMBOL    EDATA    WORD      y
      00000AB9H   SYMBOL    EDATA    WORD      dat
      00000ABBH   SYMBOL    EDATA    ---       a
      00000AC0H   SYMBOL    EDATA    BYTE      i
      00000856H   SYMBOL    EDATA    WORD      x
      00000858H   SYMBOL    EDATA    WORD      y
      0000085AH   SYMBOL    EDATA    LONG      dat
      0000085EH   SYMBOL    EDATA    BYTE      num
      0000085FH   SYMBOL    EDATA    ---       buff
      00000881H   SYMBOL    EDATA    BYTE      length
      00000713H   SYMBOL    EDATA    WORD      x
      00000715H   SYMBOL    EDATA    WORD      y
      00000717H   SYMBOL    EDATA    FLOAT     dat
      0000071BH   SYMBOL    EDATA    BYTE      num
      0000071CH   SYMBOL    EDATA    BYTE      pointnum
      0000071DH   SYMBOL    EDATA    BYTE      length
      0000071EH   SYMBOL    EDATA    ---       buff
      00000740H   SYMBOL    EDATA    CHAR      start
      00000741H   SYMBOL    EDATA    CHAR      end
      00000742H   SYMBOL    EDATA    CHAR      point

      ---         MODULE    ---      ---       SEEKFREE_MPU6050
      00000AC1H   PUBLIC    EDATA    INT       mpu6050_acc_x
      00000AC3H   PUBLIC    EDATA    INT       mpu6050_acc_y
      00000AC5H   PUBLIC    EDATA    INT       mpu6050_acc_z
      00000AC7H   PUBLIC    EDATA    INT       mpu6050_gyro_x
      00000AC9H   PUBLIC    EDATA    INT       mpu6050_gyro_y
      00000ACBH   PUBLIC    EDATA    INT       mpu6050_gyro_z
      000000D0H   SFRSYM    DATA     BYTE      PSW
      0000009DH   SFRSYM    DATA     BYTE      IRCBAND
      00000097H   SFRSYM    DATA     BYTE      AUXR2
      000000EFH   SFRSYM    DATA     BYTE      AUXINTIF
      000000FDH   SFRSYM    DATA     BYTE      S4CON
      000000ACH   SFRSYM    DATA     BYTE      S3CON
      0000009AH   SFRSYM    DATA     BYTE      S2CON
      000000B7H   SFRSYM    DATA     BYTE      IPH
      000000CDH   SFRSYM    DATA     BYTE      SPSTAT
      000000DDH   SFRSYM    DATA     BYTE      T4T3M
      000000C1H   SFRSYM    DATA     BYTE      WDT_CONTR
      000000DFH   SFRSYM    DATA     BYTE      IP3
      000000F4H   SFRSYM    DATA     BYTE      USBCON
      000000B5H   SFRSYM    DATA     BYTE      IP2
      000000FFH   SFRSYM    DATA     BYTE      RSTCFG
      000000F9H   SFRSYM    DATA     BYTE      LINICR
      0000008EH   SFRSYM    DATA     BYTE      AUXR
      000000AFH   SFRSYM    DATA     BYTE      IE2
      00000088H   SFRSYM    DATA     BYTE      TCON
      000000C0H.1 SFRSYM    DATA     BIT       P41
      00000098H   SFRSYM    DATA     BYTE      SCON
      000000C0H.0 SFRSYM    DATA     BIT       P40
      000000F1H   SFRSYM    DATA     BYTE      CANICR
L251 LINKER/LOCATER V4.66.93.0                                                        11/25/2023  21:38:42  PAGE 69


      00000087H   SFRSYM    DATA     BYTE      PCON
      000000BCH   SFRSYM    DATA     BYTE      ADC_CONTR
      000000E7H   SFRSYM    DATA     BYTE      CMPCR2
      000000E6H   SFRSYM    DATA     BYTE      CMPCR1
      000000B8H   SFRSYM    DATA     BYTE      IP
      0000008FH   SFRSYM    DATA     BYTE      INTCLKO
      000000EEH   SFRSYM    DATA     BYTE      IP3H
      000000B6H   SFRSYM    DATA     BYTE      IP2H
      000000A8H   SFRSYM    DATA     BYTE      IE
      000000BBH   SFRSYM    DATA     BYTE      P_SW3
      000000BAH   SFRSYM    DATA     BYTE      P_SW2
      000000A2H   SFRSYM    DATA     BYTE      P_SW1
      000000CEH   SFRSYM    DATA     BYTE      SPCTL
      000000F8H   SFRSYM    DATA     BYTE      P7
      000000E8H   SFRSYM    DATA     BYTE      P6
      000000C8H   SFRSYM    DATA     BYTE      P5
      000000C0H   SFRSYM    DATA     BYTE      P4
      000000B0H   SFRSYM    DATA     BYTE      P3
      000000A0H   SFRSYM    DATA     BYTE      P2
      00000090H   SFRSYM    DATA     BYTE      P1
      00000080H   SFRSYM    DATA     BYTE      P0
      00000E96H   SYMBOL    EDATA    WORD      j
      00000EC0H   SYMBOL    EDATA    BYTE      ack_dat
      00000E98H   SYMBOL    EDATA    BYTE      c
      00000E99H   SYMBOL    EDATA    BYTE      i
      00000E42H   SYMBOL    EDATA    BYTE      ack_x
      00000E43H   SYMBOL    EDATA    BYTE      i
      00000E44H   SYMBOL    EDATA    BYTE      c
      00000E45H   SYMBOL    EDATA    BYTE      dev_add
      00000E46H   SYMBOL    EDATA    BYTE      reg
      00000E47H   SYMBOL    EDATA    BYTE      dat
      00000E48H   SYMBOL    EDATA    BYTE      dev_add
      00000E49H   SYMBOL    EDATA    BYTE      reg
      00000E4AH   SYMBOL    EDATA    BYTE      dat
      00000CE5H   SYMBOL    EDATA    BYTE      dev_add
      00000CE6H   SYMBOL    EDATA    BYTE      reg
      00000CE7H   SYMBOL    EDATA    ---       dat_add
      00000CEBH   SYMBOL    EDATA    BYTE      num
      00000D6DH   SYMBOL    EDATA    ---       dat
      00000D73H   SYMBOL    EDATA    ---       dat

      ---         MODULE    ---      ---       SEEKFREE_OLED
      00000743H   PUBLIC    EDATA    BYTE      ?oled_printf_float?BYTE
      00000773H   PUBLIC    EDATA    BYTE      ?oled_printf_float_spi?BYTE
      000000D0H   SFRSYM    DATA     BYTE      PSW
      0000009DH   SFRSYM    DATA     BYTE      IRCBAND
      00000097H   SFRSYM    DATA     BYTE      AUXR2
      000000EFH   SFRSYM    DATA     BYTE      AUXINTIF
      000000FDH   SFRSYM    DATA     BYTE      S4CON
      000000ACH   SFRSYM    DATA     BYTE      S3CON
      0000009AH   SFRSYM    DATA     BYTE      S2CON
      000000B7H   SFRSYM    DATA     BYTE      IPH
      000000CDH   SFRSYM    DATA     BYTE      SPSTAT
      000000DDH   SFRSYM    DATA     BYTE      T4T3M
      000000C1H   SFRSYM    DATA     BYTE      WDT_CONTR
      000000DFH   SFRSYM    DATA     BYTE      IP3
      000000F4H   SFRSYM    DATA     BYTE      USBCON
      000000B5H   SFRSYM    DATA     BYTE      IP2
      000000FFH   SFRSYM    DATA     BYTE      RSTCFG
      000000F9H   SFRSYM    DATA     BYTE      LINICR
      0000008EH   SFRSYM    DATA     BYTE      AUXR
      000000AFH   SFRSYM    DATA     BYTE      IE2
      000000A0H.5 SFRSYM    DATA     BIT       P25
      00000088H   SFRSYM    DATA     BYTE      TCON
      000000A0H.3 SFRSYM    DATA     BIT       P23
L251 LINKER/LOCATER V4.66.93.0                                                        11/25/2023  21:38:42  PAGE 70


      00000098H   SFRSYM    DATA     BYTE      SCON
      000000A0H.2 SFRSYM    DATA     BIT       P22
      000000A0H.1 SFRSYM    DATA     BIT       P21
      000000A0H.0 SFRSYM    DATA     BIT       P20
      000000F1H   SFRSYM    DATA     BYTE      CANICR
      00000087H   SFRSYM    DATA     BYTE      PCON
      000000BCH   SFRSYM    DATA     BYTE      ADC_CONTR
      000000E7H   SFRSYM    DATA     BYTE      CMPCR2
      000000E6H   SFRSYM    DATA     BYTE      CMPCR1
      000000B8H   SFRSYM    DATA     BYTE      IP
      0000008FH   SFRSYM    DATA     BYTE      INTCLKO
      000000EEH   SFRSYM    DATA     BYTE      IP3H
      000000B6H   SFRSYM    DATA     BYTE      IP2H
      000000A8H   SFRSYM    DATA     BYTE      IE
      000000BBH   SFRSYM    DATA     BYTE      P_SW3
      000000BAH   SFRSYM    DATA     BYTE      P_SW2
      000000A2H   SFRSYM    DATA     BYTE      P_SW1
      000000CEH   SFRSYM    DATA     BYTE      SPCTL
      000000F8H   SFRSYM    DATA     BYTE      P7
      000000E8H   SFRSYM    DATA     BYTE      P6
      000000C8H   SFRSYM    DATA     BYTE      P5
      000000C0H   SFRSYM    DATA     BYTE      P4
      000000B0H   SFRSYM    DATA     BYTE      P3
      000000A0H   SFRSYM    DATA     BYTE      P2
      00000090H   SFRSYM    DATA     BYTE      P1
      00000080H   SFRSYM    DATA     BYTE      P0
      00000E9AH   SYMBOL    EDATA    BYTE      dat
      00000E9BH   SYMBOL    EDATA    BYTE      i
      00000E9CH   SYMBOL    EDATA    BYTE      cmd
      00000E9DH   SYMBOL    EDATA    BYTE      i
      00000CA8H   SYMBOL    EDATA    WORD      hex
      00000CAAH   SYMBOL    EDATA    ---       Print
      00000CAEH   SYMBOL    EDATA    BYTE      hexcheck
      00000CAFH   SYMBOL    EDATA    BYTE      TEMP
      00000E9EH   SYMBOL    EDATA    BYTE      x
      00000E9FH   SYMBOL    EDATA    BYTE      y
      00000E4BH   SYMBOL    EDATA    BYTE      bmp_data
      00000E4CH   SYMBOL    EDATA    BYTE      y
      00000E4DH   SYMBOL    EDATA    BYTE      x
      00000E4EH   SYMBOL    EDATA    BYTE      x
      00000E4FH   SYMBOL    EDATA    BYTE      y
      00000E50H   SYMBOL    EDATA    BYTE      data1
      00000EA0H   SYMBOL    EDATA    BYTE      x
      00000EA1H   SYMBOL    EDATA    BYTE      y
      00000BEFH   SYMBOL    EDATA    BYTE      x
      00000BF0H   SYMBOL    EDATA    BYTE      y
      00000BF1H   SYMBOL    EDATA    ---       ch
      00000BF5H   SYMBOL    EDATA    BYTE      c
      00000BF6H   SYMBOL    EDATA    BYTE      i
      00000BF7H   SYMBOL    EDATA    BYTE      j
      00000BF8H   SYMBOL    EDATA    BYTE      x
      00000BF9H   SYMBOL    EDATA    BYTE      y
      00000BFAH   SYMBOL    EDATA    ---       ch
      00000BFEH   SYMBOL    EDATA    BYTE      c
      00000BFFH   SYMBOL    EDATA    BYTE      i
      00000C00H   SYMBOL    EDATA    BYTE      j
      00000AFDH   SYMBOL    EDATA    BYTE      x
      00000AFEH   SYMBOL    EDATA    BYTE      y
      00000AFFH   SYMBOL    EDATA    WORD      num
      00000B01H   SYMBOL    EDATA    ---       ch
      00000B08H   SYMBOL    EDATA    BYTE      x
      00000B09H   SYMBOL    EDATA    BYTE      y
      00000B0AH   SYMBOL    EDATA    INT       num
      00000B0CH   SYMBOL    EDATA    ---       ch
      00000882H   SYMBOL    EDATA    WORD      x
L251 LINKER/LOCATER V4.66.93.0                                                        11/25/2023  21:38:42  PAGE 71


      00000884H   SYMBOL    EDATA    WORD      y
      00000886H   SYMBOL    EDATA    LONG      dat
      0000088AH   SYMBOL    EDATA    BYTE      num
      0000088BH   SYMBOL    EDATA    ---       buff
      000008ADH   SYMBOL    EDATA    BYTE      length
      00000743H   SYMBOL    EDATA    WORD      x
      00000745H   SYMBOL    EDATA    WORD      y
      00000747H   SYMBOL    EDATA    FLOAT     dat
      0000074BH   SYMBOL    EDATA    BYTE      num
      0000074CH   SYMBOL    EDATA    BYTE      pointnum
      0000074DH   SYMBOL    EDATA    BYTE      length
      0000074EH   SYMBOL    EDATA    ---       buff
      00000770H   SYMBOL    EDATA    CHAR      start
      00000771H   SYMBOL    EDATA    CHAR      end
      00000772H   SYMBOL    EDATA    CHAR      point
      00000985H   SYMBOL    EDATA    WORD      high
      00000987H   SYMBOL    EDATA    WORD      width
      00000989H   SYMBOL    EDATA    ---       p
      0000098DH   SYMBOL    EDATA    BYTE      value
      0000098EH   SYMBOL    EDATA    WORD      i
      00000990H   SYMBOL    EDATA    WORD      j
      00000992H   SYMBOL    EDATA    WORD      temp
      00000994H   SYMBOL    EDATA    WORD      temp1
      00000996H   SYMBOL    EDATA    BYTE      dat
      000009D5H   SYMBOL    EDATA    BYTE      x
      000009D6H   SYMBOL    EDATA    BYTE      y
      000009D7H   SYMBOL    EDATA    BYTE      size
      000009D8H   SYMBOL    EDATA    ---       p
      000009DCH   SYMBOL    EDATA    BYTE      len
      000009DDH   SYMBOL    EDATA    WORD      i
      000009DFH   SYMBOL    EDATA    WORD      j
      000009E1H   SYMBOL    EDATA    WORD      k
      00000EC1H   SYMBOL    EDATA    BYTE      dat
      00000EC2H   SYMBOL    EDATA    BYTE      cmd
      00000CB0H   SYMBOL    EDATA    WORD      hex
      00000CB2H   SYMBOL    EDATA    ---       Print
      00000CB6H   SYMBOL    EDATA    BYTE      hexcheck
      00000CB7H   SYMBOL    EDATA    BYTE      TEMP
      00000EA2H   SYMBOL    EDATA    BYTE      x
      00000EA3H   SYMBOL    EDATA    BYTE      y
      00000E51H   SYMBOL    EDATA    BYTE      bmp_data
      00000E52H   SYMBOL    EDATA    BYTE      y
      00000E53H   SYMBOL    EDATA    BYTE      x
      00000E54H   SYMBOL    EDATA    BYTE      x
      00000E55H   SYMBOL    EDATA    BYTE      y
      00000E56H   SYMBOL    EDATA    BYTE      data1
      00000EA4H   SYMBOL    EDATA    BYTE      x
      00000EA5H   SYMBOL    EDATA    BYTE      y
      00000C01H   SYMBOL    EDATA    BYTE      x
      00000C02H   SYMBOL    EDATA    BYTE      y
      00000C03H   SYMBOL    EDATA    ---       ch
      00000C07H   SYMBOL    EDATA    BYTE      c
      00000C08H   SYMBOL    EDATA    BYTE      i
      00000C09H   SYMBOL    EDATA    BYTE      j
      00000C0AH   SYMBOL    EDATA    BYTE      x
      00000C0BH   SYMBOL    EDATA    BYTE      y
      00000C0CH   SYMBOL    EDATA    ---       ch
      00000C10H   SYMBOL    EDATA    BYTE      c
      00000C11H   SYMBOL    EDATA    BYTE      i
      00000C12H   SYMBOL    EDATA    BYTE      j
      00000B13H   SYMBOL    EDATA    BYTE      x
      00000B14H   SYMBOL    EDATA    BYTE      y
      00000B15H   SYMBOL    EDATA    WORD      num
      00000B17H   SYMBOL    EDATA    ---       ch
      00000B1EH   SYMBOL    EDATA    BYTE      x
L251 LINKER/LOCATER V4.66.93.0                                                        11/25/2023  21:38:42  PAGE 72


      00000B1FH   SYMBOL    EDATA    BYTE      y
      00000B20H   SYMBOL    EDATA    INT       num
      00000B22H   SYMBOL    EDATA    ---       ch
      000008AEH   SYMBOL    EDATA    WORD      x
      000008B0H   SYMBOL    EDATA    WORD      y
      000008B2H   SYMBOL    EDATA    LONG      dat
      000008B6H   SYMBOL    EDATA    BYTE      num
      000008B7H   SYMBOL    EDATA    ---       buff
      000008D9H   SYMBOL    EDATA    BYTE      length
      00000773H   SYMBOL    EDATA    WORD      x
      00000775H   SYMBOL    EDATA    WORD      y
      00000777H   SYMBOL    EDATA    FLOAT     dat
      0000077BH   SYMBOL    EDATA    BYTE      num
      0000077CH   SYMBOL    EDATA    BYTE      pointnum
      0000077DH   SYMBOL    EDATA    BYTE      length
      0000077EH   SYMBOL    EDATA    ---       buff
      000007A0H   SYMBOL    EDATA    CHAR      start
      000007A1H   SYMBOL    EDATA    CHAR      end
      000007A2H   SYMBOL    EDATA    CHAR      point
      00000997H   SYMBOL    EDATA    WORD      high
      00000999H   SYMBOL    EDATA    WORD      width
      0000099BH   SYMBOL    EDATA    ---       p
      0000099FH   SYMBOL    EDATA    BYTE      value
      000009A0H   SYMBOL    EDATA    WORD      i
      000009A2H   SYMBOL    EDATA    WORD      j
      000009A4H   SYMBOL    EDATA    WORD      temp
      000009A6H   SYMBOL    EDATA    WORD      temp1
      000009A8H   SYMBOL    EDATA    BYTE      dat
      000009E3H   SYMBOL    EDATA    BYTE      x
      000009E4H   SYMBOL    EDATA    BYTE      y
      000009E5H   SYMBOL    EDATA    BYTE      size
      000009E6H   SYMBOL    EDATA    ---       p
      000009EAH   SYMBOL    EDATA    BYTE      len
      000009EBH   SYMBOL    EDATA    WORD      i
      000009EDH   SYMBOL    EDATA    WORD      j
      000009EFH   SYMBOL    EDATA    WORD      k

      ---         MODULE    ---      ---       SEEKFREE_PRINTF
      0000095EH   PUBLIC    EDATA    BYTE      ?number_conversion_ascii?BYTE
      000004F2H   PUBLIC    EDATA    BYTE      ?zf_sprintf?BYTE
      000000D0H   SFRSYM    DATA     BYTE      PSW
      0000009DH   SFRSYM    DATA     BYTE      IRCBAND
      00000097H   SFRSYM    DATA     BYTE      AUXR2
      000000EFH   SFRSYM    DATA     BYTE      AUXINTIF
      000000FDH   SFRSYM    DATA     BYTE      S4CON
      000000ACH   SFRSYM    DATA     BYTE      S3CON
      0000009AH   SFRSYM    DATA     BYTE      S2CON
      000000B7H   SFRSYM    DATA     BYTE      IPH
      000000CDH   SFRSYM    DATA     BYTE      SPSTAT
      000000DDH   SFRSYM    DATA     BYTE      T4T3M
      000000C1H   SFRSYM    DATA     BYTE      WDT_CONTR
      000000DFH   SFRSYM    DATA     BYTE      IP3
      000000F4H   SFRSYM    DATA     BYTE      USBCON
      000000B5H   SFRSYM    DATA     BYTE      IP2
      000000FFH   SFRSYM    DATA     BYTE      RSTCFG
      000000F9H   SFRSYM    DATA     BYTE      LINICR
      0000008EH   SFRSYM    DATA     BYTE      AUXR
      000000AFH   SFRSYM    DATA     BYTE      IE2
      00000088H   SFRSYM    DATA     BYTE      TCON
      00000098H   SFRSYM    DATA     BYTE      SCON
      000000F1H   SFRSYM    DATA     BYTE      CANICR
      00000087H   SFRSYM    DATA     BYTE      PCON
      000000BCH   SFRSYM    DATA     BYTE      ADC_CONTR
      000000E7H   SFRSYM    DATA     BYTE      CMPCR2
      000000E6H   SFRSYM    DATA     BYTE      CMPCR1
L251 LINKER/LOCATER V4.66.93.0                                                        11/25/2023  21:38:42  PAGE 73


      000000B8H   SFRSYM    DATA     BYTE      IP
      0000008FH   SFRSYM    DATA     BYTE      INTCLKO
      000000EEH   SFRSYM    DATA     BYTE      IP3H
      000000B6H   SFRSYM    DATA     BYTE      IP2H
      000000A8H   SFRSYM    DATA     BYTE      IE
      000000BBH   SFRSYM    DATA     BYTE      P_SW3
      000000BAH   SFRSYM    DATA     BYTE      P_SW2
      000000A2H   SFRSYM    DATA     BYTE      P_SW1
      000000CEH   SFRSYM    DATA     BYTE      SPCTL
      000000F8H   SFRSYM    DATA     BYTE      P7
      000000E8H   SFRSYM    DATA     BYTE      P6
      000000C8H   SFRSYM    DATA     BYTE      P5
      000000C0H   SFRSYM    DATA     BYTE      P4
      000000B0H   SFRSYM    DATA     BYTE      P3
      000000A0H   SFRSYM    DATA     BYTE      P2
      00000090H   SFRSYM    DATA     BYTE      P1
      00000080H   SFRSYM    DATA     BYTE      P0
      0000095EH   SYMBOL    EDATA    DWORD     dat
      00000962H   SYMBOL    EDATA    ---       p
      00000966H   SYMBOL    EDATA    BYTE      neg_type
      00000967H   SYMBOL    EDATA    BYTE      radix
      00000968H   SYMBOL    EDATA    LONG      neg_dat
      0000096CH   SYMBOL    EDATA    DWORD     pos_dat
      00000970H   SYMBOL    EDATA    BYTE      temp_data
      00000971H   SYMBOL    EDATA    BYTE      valid_num
      00000A0CH   SYMBOL    EDATA    ---       d_buff
      00000A10H   SYMBOL    EDATA    DWORD     len
      00000A14H   SYMBOL    EDATA    DWORD     i
      00000A18H   SYMBOL    EDATA    CHAR      temp_data
      000004F2H   SYMBOL    EDATA    ---       buff
      000004F6H   SYMBOL    EDATA    ---       format
      000004FAH   SYMBOL    EDATA    DWORD     buff_len
      000004FEH   SYMBOL    EDATA    ---       arg
      00000502H   SYMBOL    EDATA    CHAR      ret
      00000503H   SYMBOL    EDATA    CHAR      ch
      00000503H   SYMBOL    EDATA    ---       vstr
      00000524H   SYMBOL    EDATA    LONG      ival
      00000528H   SYMBOL    EDATA    BYTE      vlen
      00000503H   SYMBOL    EDATA    ---       vstr
      00000524H   SYMBOL    EDATA    FLOAT     ival
      00000528H   SYMBOL    EDATA    BYTE      vlen
      00000503H   SYMBOL    EDATA    ---       vstr
      00000524H   SYMBOL    EDATA    DWORD     ival
      00000528H   SYMBOL    EDATA    BYTE      vlen
      00000503H   SYMBOL    EDATA    ---       vstr
      00000524H   SYMBOL    EDATA    DWORD     ival
      00000528H   SYMBOL    EDATA    BYTE      vlen
      00000503H   SYMBOL    EDATA    ---       vstr
      00000524H   SYMBOL    EDATA    DWORD     ival
      00000528H   SYMBOL    EDATA    BYTE      vlen
      00000503H   SYMBOL    EDATA    ---       pc
      00000503H   SYMBOL    EDATA    ---       vstr
      00000524H   SYMBOL    EDATA    DWORD     ival

      ---         MODULE    ---      ---       SEEKFREE_TSL1401
      00000212H   PUBLIC    EDATA    BYTE      tsl1401_finish_flag
      00000213H   PUBLIC    EDATA    ---       ccd_data
      000000D0H   SFRSYM    DATA     BYTE      PSW
      0000009DH   SFRSYM    DATA     BYTE      IRCBAND
      00000097H   SFRSYM    DATA     BYTE      AUXR2
      000000EFH   SFRSYM    DATA     BYTE      AUXINTIF
      000000FDH   SFRSYM    DATA     BYTE      S4CON
      000000ACH   SFRSYM    DATA     BYTE      S3CON
      0000009AH   SFRSYM    DATA     BYTE      S2CON
      000000B7H   SFRSYM    DATA     BYTE      IPH
L251 LINKER/LOCATER V4.66.93.0                                                        11/25/2023  21:38:42  PAGE 74


      000000CDH   SFRSYM    DATA     BYTE      SPSTAT
      000000DDH   SFRSYM    DATA     BYTE      T4T3M
      000000C1H   SFRSYM    DATA     BYTE      WDT_CONTR
      000000DFH   SFRSYM    DATA     BYTE      IP3
      000000F4H   SFRSYM    DATA     BYTE      USBCON
      000000B5H   SFRSYM    DATA     BYTE      IP2
      000000FFH   SFRSYM    DATA     BYTE      RSTCFG
      000000F9H   SFRSYM    DATA     BYTE      LINICR
      0000008EH   SFRSYM    DATA     BYTE      AUXR
      000000AFH   SFRSYM    DATA     BYTE      IE2
      000000B0H.3 SFRSYM    DATA     BIT       P33
      00000088H   SFRSYM    DATA     BYTE      TCON
      000000B0H.2 SFRSYM    DATA     BIT       P32
      00000098H   SFRSYM    DATA     BYTE      SCON
      000000F1H   SFRSYM    DATA     BYTE      CANICR
      00000087H   SFRSYM    DATA     BYTE      PCON
      000000BCH   SFRSYM    DATA     BYTE      ADC_CONTR
      000000E7H   SFRSYM    DATA     BYTE      CMPCR2
      000000E6H   SFRSYM    DATA     BYTE      CMPCR1
      000000B8H   SFRSYM    DATA     BYTE      IP
      0000008FH   SFRSYM    DATA     BYTE      INTCLKO
      000000EEH   SFRSYM    DATA     BYTE      IP3H
      000000B6H   SFRSYM    DATA     BYTE      IP2H
      000000A8H   SFRSYM    DATA     BYTE      IE
      000000BBH   SFRSYM    DATA     BYTE      P_SW3
      000000BAH   SFRSYM    DATA     BYTE      P_SW2
      000000A2H   SFRSYM    DATA     BYTE      P_SW1
      000000CEH   SFRSYM    DATA     BYTE      SPCTL
      000000F8H   SFRSYM    DATA     BYTE      P7
      000000E8H   SFRSYM    DATA     BYTE      P6
      000000C8H   SFRSYM    DATA     BYTE      P5
      000000C0H   SFRSYM    DATA     BYTE      P4
      000000B0H   SFRSYM    DATA     BYTE      P3
      000000A0H   SFRSYM    DATA     BYTE      P2
      00000090H   SFRSYM    DATA     BYTE      P1
      00000080H   SFRSYM    DATA     BYTE      P0
      00000CECH   SYMBOL    EDATA    INT       uart_n
      00000CEEH   SYMBOL    EDATA    ---       dat
      00000CF2H   SYMBOL    EDATA    BYTE      i
      00000EC3H   SYMBOL    EDATA    BYTE      i

      ---         MODULE    ---      ---       SEEKFREE_VIRSCO
      00000B79H   PUBLIC    EDATA    ---       virtual_scope_data
      000009F1H   PUBLIC    EDATA    BYTE      ?data_conversion?BYTE
      000000D0H   SFRSYM    DATA     BYTE      PSW
      0000009DH   SFRSYM    DATA     BYTE      IRCBAND
      00000097H   SFRSYM    DATA     BYTE      AUXR2
      000000EFH   SFRSYM    DATA     BYTE      AUXINTIF
      000000FDH   SFRSYM    DATA     BYTE      S4CON
      000000ACH   SFRSYM    DATA     BYTE      S3CON
      0000009AH   SFRSYM    DATA     BYTE      S2CON
      000000B7H   SFRSYM    DATA     BYTE      IPH
      000000CDH   SFRSYM    DATA     BYTE      SPSTAT
      000000DDH   SFRSYM    DATA     BYTE      T4T3M
      000000C1H   SFRSYM    DATA     BYTE      WDT_CONTR
      000000DFH   SFRSYM    DATA     BYTE      IP3
      000000F4H   SFRSYM    DATA     BYTE      USBCON
      000000B5H   SFRSYM    DATA     BYTE      IP2
      000000FFH   SFRSYM    DATA     BYTE      RSTCFG
      000000F9H   SFRSYM    DATA     BYTE      LINICR
      0000008EH   SFRSYM    DATA     BYTE      AUXR
      000000AFH   SFRSYM    DATA     BYTE      IE2
      00000088H   SFRSYM    DATA     BYTE      TCON
      00000098H   SFRSYM    DATA     BYTE      SCON
      000000F1H   SFRSYM    DATA     BYTE      CANICR
L251 LINKER/LOCATER V4.66.93.0                                                        11/25/2023  21:38:42  PAGE 75


      00000087H   SFRSYM    DATA     BYTE      PCON
      000000BCH   SFRSYM    DATA     BYTE      ADC_CONTR
      000000E7H   SFRSYM    DATA     BYTE      CMPCR2
      000000E6H   SFRSYM    DATA     BYTE      CMPCR1
      000000B8H   SFRSYM    DATA     BYTE      IP
      0000008FH   SFRSYM    DATA     BYTE      INTCLKO
      000000EEH   SFRSYM    DATA     BYTE      IP3H
      000000B6H   SFRSYM    DATA     BYTE      IP2H
      000000A8H   SFRSYM    DATA     BYTE      IE
      000000BBH   SFRSYM    DATA     BYTE      P_SW3
      000000BAH   SFRSYM    DATA     BYTE      P_SW2
      000000A2H   SFRSYM    DATA     BYTE      P_SW1
      000000CEH   SFRSYM    DATA     BYTE      SPCTL
      000000F8H   SFRSYM    DATA     BYTE      P7
      000000E8H   SFRSYM    DATA     BYTE      P6
      000000C8H   SFRSYM    DATA     BYTE      P5
      000000C0H   SFRSYM    DATA     BYTE      P4
      000000B0H   SFRSYM    DATA     BYTE      P3
      000000A0H   SFRSYM    DATA     BYTE      P2
      00000090H   SFRSYM    DATA     BYTE      P1
      00000080H   SFRSYM    DATA     BYTE      P0
      00000C13H   SYMBOL    EDATA    ---       Buf
      00000C17H   SYMBOL    EDATA    BYTE      CRC_CNT
      00000C18H   SYMBOL    EDATA    WORD      CRC_Temp
      00000C1AH   SYMBOL    EDATA    BYTE      i
      00000C1BH   SYMBOL    EDATA    BYTE      j
      000009F1H   SYMBOL    EDATA    INT       data1
      000009F3H   SYMBOL    EDATA    INT       data2
      000009F5H   SYMBOL    EDATA    INT       data3
      000009F7H   SYMBOL    EDATA    INT       data4
      000009F9H   SYMBOL    EDATA    ---       dat
      000009FDH   SYMBOL    EDATA    WORD      CRC16

      ---         MODULE    ---      ---       SEEKFREE_WIRELESS
      00FF6B56H   PUBLIC    CODE     ---       wireless_uart_callback
      00FF6932H   PUBLIC    CODE     ---       wireless_uart_init
      000000D0H   SFRSYM    DATA     BYTE      PSW
      0000009DH   SFRSYM    DATA     BYTE      IRCBAND
      00000097H   SFRSYM    DATA     BYTE      AUXR2
      000000EFH   SFRSYM    DATA     BYTE      AUXINTIF
      000000FDH   SFRSYM    DATA     BYTE      S4CON
      000000ACH   SFRSYM    DATA     BYTE      S3CON
      0000009AH   SFRSYM    DATA     BYTE      S2CON
      000000FEH   SFRSYM    DATA     BYTE      S4BUF
      000000B7H   SFRSYM    DATA     BYTE      IPH
      000000CDH   SFRSYM    DATA     BYTE      SPSTAT
      000000DDH   SFRSYM    DATA     BYTE      T4T3M
      000000C1H   SFRSYM    DATA     BYTE      WDT_CONTR
      000000DFH   SFRSYM    DATA     BYTE      IP3
      000000F4H   SFRSYM    DATA     BYTE      USBCON
      000000B5H   SFRSYM    DATA     BYTE      IP2
      000000FFH   SFRSYM    DATA     BYTE      RSTCFG
      000000F9H   SFRSYM    DATA     BYTE      LINICR
      0000008EH   SFRSYM    DATA     BYTE      AUXR
      000000AFH   SFRSYM    DATA     BYTE      IE2
      00000080H.7 SFRSYM    DATA     BIT       P07
      00000088H   SFRSYM    DATA     BYTE      TCON
      00000098H   SFRSYM    DATA     BYTE      SCON
      000000F1H   SFRSYM    DATA     BYTE      CANICR
      00000087H   SFRSYM    DATA     BYTE      PCON
      000000BCH   SFRSYM    DATA     BYTE      ADC_CONTR
      000000E7H   SFRSYM    DATA     BYTE      CMPCR2
      000000E6H   SFRSYM    DATA     BYTE      CMPCR1
      000000B8H   SFRSYM    DATA     BYTE      IP
      0000008FH   SFRSYM    DATA     BYTE      INTCLKO
L251 LINKER/LOCATER V4.66.93.0                                                        11/25/2023  21:38:42  PAGE 76


      000000EEH   SFRSYM    DATA     BYTE      IP3H
      000000B6H   SFRSYM    DATA     BYTE      IP2H
      000000A8H   SFRSYM    DATA     BYTE      IE
      000000BBH   SFRSYM    DATA     BYTE      P_SW3
      000000BAH   SFRSYM    DATA     BYTE      P_SW2
      000000A2H   SFRSYM    DATA     BYTE      P_SW1
      000000CEH   SFRSYM    DATA     BYTE      SPCTL
      000000F8H   SFRSYM    DATA     BYTE      P7
      000000E8H   SFRSYM    DATA     BYTE      P6
      000000C8H   SFRSYM    DATA     BYTE      P5
      000000C0H   SFRSYM    DATA     BYTE      P4
      000000B0H   SFRSYM    DATA     BYTE      P3
      000000A0H   SFRSYM    DATA     BYTE      P2
      00000090H   SFRSYM    DATA     BYTE      P1
      00000080H   SFRSYM    DATA     BYTE      P0
      000005D9H   SYMBOL    EDATA    BYTE      wireless_uart_data
      000005DAH   SYMBOL    EDATA    ---       wireless_uart_fifo
      000005EEH   SYMBOL    EDATA    ---       wireless_uart_buffer

      00FF6B56H   BLOCK     CODE     ---       LVL=0
      00FF6B56H   LINE      CODE     ---       #48
      00FF6B56H   LINE      CODE     ---       #51
      00FF6B5CH   LINE      CODE     ---       #52
      00FF6B6FH   LINE      CODE     ---       #53
      ---         BLOCKEND  ---      ---       LVL=0
      00000D79H   SYMBOL    EDATA    ---       buff
      00000D7DH   SYMBOL    EDATA    WORD      len
      00000ACDH   SYMBOL    EDATA    ---       buff
      00000AD1H   SYMBOL    EDATA    DWORD     len
      00000AD5H   SYMBOL    EDATA    DWORD     data_len

      00FF6932H   BLOCK     CODE     ---       LVL=0
      00FF6932H   LINE      CODE     ---       #118
      00FF6932H   LINE      CODE     ---       #120
      00FF6935H   LINE      CODE     ---       #121
      00FF693DH   LINE      CODE     ---       #123
      00FF6950H   LINE      CODE     ---       #124
      00FF696FH   LINE      CODE     ---       #126
      ---         BLOCKEND  ---      ---       LVL=0

      ---         MODULE    ---      ---       SEEKFREE_WIRELESS_CH573
      00FF6B70H   PUBLIC    CODE     ---       wireless_ch573_callback
      000000D0H   SFRSYM    DATA     BYTE      PSW
      0000009DH   SFRSYM    DATA     BYTE      IRCBAND
      00000097H   SFRSYM    DATA     BYTE      AUXR2
      000000EFH   SFRSYM    DATA     BYTE      AUXINTIF
      000000FDH   SFRSYM    DATA     BYTE      S4CON
      000000ACH   SFRSYM    DATA     BYTE      S3CON
      0000009AH   SFRSYM    DATA     BYTE      S2CON
      000000FEH   SFRSYM    DATA     BYTE      S4BUF
      000000B7H   SFRSYM    DATA     BYTE      IPH
      000000CDH   SFRSYM    DATA     BYTE      SPSTAT
      000000DDH   SFRSYM    DATA     BYTE      T4T3M
      000000C1H   SFRSYM    DATA     BYTE      WDT_CONTR
      000000DFH   SFRSYM    DATA     BYTE      IP3
      000000F4H   SFRSYM    DATA     BYTE      USBCON
      000000B5H   SFRSYM    DATA     BYTE      IP2
      000000FFH   SFRSYM    DATA     BYTE      RSTCFG
      000000F9H   SFRSYM    DATA     BYTE      LINICR
      0000008EH   SFRSYM    DATA     BYTE      AUXR
      000000AFH   SFRSYM    DATA     BYTE      IE2
      00000080H.7 SFRSYM    DATA     BIT       P07
      00000088H   SFRSYM    DATA     BYTE      TCON
      00000098H   SFRSYM    DATA     BYTE      SCON
      000000F1H   SFRSYM    DATA     BYTE      CANICR
L251 LINKER/LOCATER V4.66.93.0                                                        11/25/2023  21:38:42  PAGE 77


      00000087H   SFRSYM    DATA     BYTE      PCON
      000000BCH   SFRSYM    DATA     BYTE      ADC_CONTR
      000000E7H   SFRSYM    DATA     BYTE      CMPCR2
      000000E6H   SFRSYM    DATA     BYTE      CMPCR1
      000000B8H   SFRSYM    DATA     BYTE      IP
      0000008FH   SFRSYM    DATA     BYTE      INTCLKO
      000000EEH   SFRSYM    DATA     BYTE      IP3H
      000000B6H   SFRSYM    DATA     BYTE      IP2H
      000000A8H   SFRSYM    DATA     BYTE      IE
      000000BBH   SFRSYM    DATA     BYTE      P_SW3
      000000BAH   SFRSYM    DATA     BYTE      P_SW2
      000000A2H   SFRSYM    DATA     BYTE      P_SW1
      000000CEH   SFRSYM    DATA     BYTE      SPCTL
      000000F8H   SFRSYM    DATA     BYTE      P7
      000000E8H   SFRSYM    DATA     BYTE      P6
      000000C8H   SFRSYM    DATA     BYTE      P5
      000000C0H   SFRSYM    DATA     BYTE      P4
      000000B0H   SFRSYM    DATA     BYTE      P3
      000000A0H   SFRSYM    DATA     BYTE      P2
      00000090H   SFRSYM    DATA     BYTE      P1
      00000080H   SFRSYM    DATA     BYTE      P0
      0000062EH   SYMBOL    EDATA    ---       wireless_ch573_buffer
      0000066EH   SYMBOL    EDATA    BYTE      wireless_ch573_data
      0000066FH   SYMBOL    EDATA    ---       wireless_ch573_fifo

      00FF6B70H   BLOCK     CODE     ---       LVL=0
      00FF6B70H   LINE      CODE     ---       #47
      00FF6B70H   LINE      CODE     ---       #50
      00FF6B76H   LINE      CODE     ---       #51
      00FF6B89H   LINE      CODE     ---       #52
      ---         BLOCKEND  ---      ---       LVL=0
      00000D7FH   SYMBOL    EDATA    ---       buff
      00000D83H   SYMBOL    EDATA    WORD      len
      00000AD9H   SYMBOL    EDATA    ---       buff
      00000ADDH   SYMBOL    EDATA    DWORD     len
      00000AE1H   SYMBOL    EDATA    DWORD     data_len

      ---         MODULE    ---      ---       SEEKFREE_IMU660RA
      00FF661CH   PUBLIC    CODE     ---       imu660ra_get_gyro
      00FF5DCCH   PUBLIC    CODE     ---       imu660ra_gyro_transition
      00FF5D22H   PUBLIC    CODE     ---       imu660ra_init
      00000AE5H   PUBLIC    EDATA    INT       imu660ra_acc_x
      00000AE7H   PUBLIC    EDATA    INT       imu660ra_acc_y
      00000AE9H   PUBLIC    EDATA    INT       imu660ra_acc_z
      00000AEBH   PUBLIC    EDATA    INT       imu660ra_gyro_x
      00000AEDH   PUBLIC    EDATA    INT       imu660ra_gyro_y
      00000AEFH   PUBLIC    EDATA    INT       imu660ra_gyro_z
      000000D0H   SFRSYM    DATA     BYTE      PSW
      0000009DH   SFRSYM    DATA     BYTE      IRCBAND
      00000097H   SFRSYM    DATA     BYTE      AUXR2
      000000EFH   SFRSYM    DATA     BYTE      AUXINTIF
      000000FDH   SFRSYM    DATA     BYTE      S4CON
      000000ACH   SFRSYM    DATA     BYTE      S3CON
      0000009AH   SFRSYM    DATA     BYTE      S2CON
      000000B7H   SFRSYM    DATA     BYTE      IPH
      000000CDH   SFRSYM    DATA     BYTE      SPSTAT
      000000DDH   SFRSYM    DATA     BYTE      T4T3M
      000000C1H   SFRSYM    DATA     BYTE      WDT_CONTR
      000000DFH   SFRSYM    DATA     BYTE      IP3
      000000F4H   SFRSYM    DATA     BYTE      USBCON
      000000B5H   SFRSYM    DATA     BYTE      IP2
      000000FFH   SFRSYM    DATA     BYTE      RSTCFG
      000000F9H   SFRSYM    DATA     BYTE      LINICR
      0000008EH   SFRSYM    DATA     BYTE      AUXR
      000000AFH   SFRSYM    DATA     BYTE      IE2
L251 LINKER/LOCATER V4.66.93.0                                                        11/25/2023  21:38:42  PAGE 78


      00000090H.6 SFRSYM    DATA     BIT       P16
      000000C0H.3 SFRSYM    DATA     BIT       P43
      00000088H   SFRSYM    DATA     BYTE      TCON
      000000C0H.1 SFRSYM    DATA     BIT       P41
      00000098H   SFRSYM    DATA     BYTE      SCON
      000000C0H.0 SFRSYM    DATA     BIT       P40
      000000F1H   SFRSYM    DATA     BYTE      CANICR
      00000087H   SFRSYM    DATA     BYTE      PCON
      000000BCH   SFRSYM    DATA     BYTE      ADC_CONTR
      000000E7H   SFRSYM    DATA     BYTE      CMPCR2
      000000E6H   SFRSYM    DATA     BYTE      CMPCR1
      000000B8H   SFRSYM    DATA     BYTE      IP
      0000008FH   SFRSYM    DATA     BYTE      INTCLKO
      000000EEH   SFRSYM    DATA     BYTE      IP3H
      000000B6H   SFRSYM    DATA     BYTE      IP2H
      000000A8H   SFRSYM    DATA     BYTE      IE
      000000BBH   SFRSYM    DATA     BYTE      P_SW3
      000000BAH   SFRSYM    DATA     BYTE      P_SW2
      000000A2H   SFRSYM    DATA     BYTE      P_SW1
      000000CEH   SFRSYM    DATA     BYTE      SPCTL
      000000F8H   SFRSYM    DATA     BYTE      P7
      000000E8H   SFRSYM    DATA     BYTE      P6
      000000C8H   SFRSYM    DATA     BYTE      P5
      000000C0H   SFRSYM    DATA     BYTE      P4
      000000B0H   SFRSYM    DATA     BYTE      P3
      000000A0H   SFRSYM    DATA     BYTE      P2
      00000090H   SFRSYM    DATA     BYTE      P1
      00000080H   SFRSYM    DATA     BYTE      P0
      00FF6A98H   SYMBOL    CODE     ---       imu660ra_read_register
      00FF6ABAH   SYMBOL    CODE     ---       imu660ra_write_registers
      00FF6B8AH   SYMBOL    CODE     ---       imu660ra_write_register
      00FF646DH   SYMBOL    CODE     ---       imu660ra_simspi_wr_byte
      00FF6704H   SYMBOL    CODE     ---       imu660ra_self_check
      00FF674FH   SYMBOL    CODE     ---       imu660ra_simspi_r_reg_bytes
      00FF6970H   SYMBOL    CODE     ---       imu660ra_simspi_w_reg_bytes
      00FF0026H   SYMBOL    CODE     ---       imu660ra_simspi_w_reg_byte
      00FF6A4DH   SYMBOL    CODE     ---       imu660ra_read_registers

      00FF646DH   BLOCK     CODE     ---       LVL=0
      00000EA6H   SYMBOL    EDATA    BYTE      byte
      00FF6471H   BLOCK     CODE     NEAR LAB  LVL=1
      00000EA7H   SYMBOL    EDATA    BYTE      i
      ---         BLOCKEND  ---      ---       LVL=1
      00FF646DH   LINE      CODE     ---       #309
      00FF6471H   LINE      CODE     ---       #310
      00FF6471H   LINE      CODE     ---       #313
      00FF6478H   LINE      CODE     ---       #315
      00FF6486H   LINE      CODE     ---       #316
      00FF6490H   LINE      CODE     ---       #317
      00FF6493H   LINE      CODE     ---       #318
      00FF6496H   LINE      CODE     ---       #319
      00FF6499H   LINE      CODE     ---       #320
      00FF649CH   LINE      CODE     ---       #322
      00FF64AAH   LINE      CODE     ---       #323
      00FF64C1H   LINE      CODE     ---       #324
      00FF64C5H   LINE      CODE     ---       #325
      ---         BLOCKEND  ---      ---       LVL=0

      00FF0026H   BLOCK     CODE     ---       LVL=0
      00000EA8H   SYMBOL    EDATA    BYTE      cmd
      00000EA9H   SYMBOL    EDATA    BYTE      val
      00FF0026H   LINE      CODE     ---       #333
      00FF002EH   LINE      CODE     ---       #335
      00FF0032H   LINE      CODE     ---       #336
      00FF0039H   LINE      CODE     ---       #337
L251 LINKER/LOCATER V4.66.93.0                                                        11/25/2023  21:38:42  PAGE 79


      00FF0040H   LINE      CODE     ---       #338
      ---         BLOCKEND  ---      ---       LVL=0

      00FF6970H   BLOCK     CODE     ---       LVL=0
      00000C1CH   SYMBOL    EDATA    BYTE      cmd
      00000C1DH   SYMBOL    EDATA    ---       dat_addr
      00000C21H   SYMBOL    EDATA    DWORD     len
      00FF6970H   LINE      CODE     ---       #348
      00FF697CH   LINE      CODE     ---       #350
      00FF6980H   LINE      CODE     ---       #351
      00FF6987H   LINE      CODE     ---       #352
      00FF6989H   LINE      CODE     ---       #354
      00FF6999H   LINE      CODE     ---       #355
      00FF69ADH   LINE      CODE     ---       #356
      ---         BLOCKEND  ---      ---       LVL=0

      00FF674FH   BLOCK     CODE     ---       LVL=0
      00000C25H   SYMBOL    EDATA    BYTE      cmd
      00000C26H   SYMBOL    EDATA    ---       val
      00000C2AH   SYMBOL    EDATA    DWORD     num
      00FF674FH   LINE      CODE     ---       #382
      00FF675BH   LINE      CODE     ---       #384
      00FF6767H   LINE      CODE     ---       #385
      00FF676EH   LINE      CODE     ---       #387
      00FF6770H   LINE      CODE     ---       #389
      00FF6785H   LINE      CODE     ---       #390
      00FF6799H   LINE      CODE     ---       #391
      ---         BLOCKEND  ---      ---       LVL=0

      00FF6B8AH   BLOCK     CODE     ---       LVL=0
      00000EAAH   SYMBOL    EDATA    BYTE      reg
      00000EABH   SYMBOL    EDATA    BYTE      dat
      00FF6B8AH   LINE      CODE     ---       #402
      00FF6B92H   LINE      CODE     ---       #404
      00FF6B95H   LINE      CODE     ---       #405
      00FF6BA0H   LINE      CODE     ---       #406
      00FF6BA3H   LINE      CODE     ---       #407
      ---         BLOCKEND  ---      ---       LVL=0

      00FF6ABAH   BLOCK     CODE     ---       LVL=0
      00000C2EH   SYMBOL    EDATA    BYTE      reg
      00000C2FH   SYMBOL    EDATA    ---       dat
      00000C33H   SYMBOL    EDATA    DWORD     len
      00FF6ABAH   LINE      CODE     ---       #417
      00FF6AC6H   LINE      CODE     ---       #419
      00FF6AC9H   LINE      CODE     ---       #421
      00FF6AD8H   LINE      CODE     ---       #422
      00FF6ADBH   LINE      CODE     ---       #423
      ---         BLOCKEND  ---      ---       LVL=0

      00FF6A98H   BLOCK     CODE     ---       LVL=0
      00000E57H   SYMBOL    EDATA    BYTE      reg
      00FF6A9CH   BLOCK     CODE     NEAR LAB  LVL=1
      00000E58H   SYMBOL    EDATA    ---       dat
      ---         BLOCKEND  ---      ---       LVL=1
      00FF6A98H   LINE      CODE     ---       #432
      00FF6A9CH   LINE      CODE     ---       #433
      00FF6A9CH   LINE      CODE     ---       #435
      00FF6A9FH   LINE      CODE     ---       #436
      00FF6AB2H   LINE      CODE     ---       #437
      00FF6AB5H   LINE      CODE     ---       #438
      00FF6AB9H   LINE      CODE     ---       #439
      ---         BLOCKEND  ---      ---       LVL=0

      00FF6A4DH   BLOCK     CODE     ---       LVL=0
L251 LINKER/LOCATER V4.66.93.0                                                        11/25/2023  21:38:42  PAGE 80


      00000C37H   SYMBOL    EDATA    BYTE      reg
      00000C38H   SYMBOL    EDATA    ---       dat
      00000C3CH   SYMBOL    EDATA    DWORD     len
      00FF6A4DH   LINE      CODE     ---       #450
      00FF6A59H   LINE      CODE     ---       #452
      00FF6A5CH   LINE      CODE     ---       #453
      00FF6A6FH   LINE      CODE     ---       #454
      00FF6A72H   LINE      CODE     ---       #455
      ---         BLOCKEND  ---      ---       LVL=0

      00FF6704H   BLOCK     CODE     ---       LVL=0
      00000DF4H   SYMBOL    EDATA    BYTE      dat
      00000DF5H   SYMBOL    EDATA    BYTE      return_state
      00000DF6H   SYMBOL    EDATA    WORD      timeout_count
      00FF6704H   LINE      CODE     ---       #465
      00FF6704H   LINE      CODE     ---       #466
      00FF6704H   LINE      CODE     ---       #467
      00FF670EH   LINE      CODE     ---       #468
      00FF6714H   LINE      CODE     ---       #469
      00FF6714H   LINE      CODE     ---       #471
      00FF672AH   LINE      CODE     ---       #473
      00FF6730H   LINE      CODE     ---       #474
      00FF6732H   LINE      CODE     ---       #475
      00FF6732H   LINE      CODE     ---       #476
      00FF673AH   LINE      CODE     ---       #477
      00FF6741H   LINE      CODE     ---       #478
      00FF674AH   LINE      CODE     ---       #479
      00FF674EH   LINE      CODE     ---       #480
      ---         BLOCKEND  ---      ---       LVL=0
      00000CF3H   SYMBOL    EDATA    ---       dat

      00FF661CH   BLOCK     CODE     ---       LVL=0
      00000CFAH   SYMBOL    EDATA    ---       dat
      00FF661CH   LINE      CODE     ---       #515
      00FF661CH   LINE      CODE     ---       #516
      00FF661CH   LINE      CODE     ---       #526
      00FF6629H   LINE      CODE     ---       #527
      00FF663FH   LINE      CODE     ---       #528
      00FF6655H   LINE      CODE     ---       #529
      00FF666BH   LINE      CODE     ---       #531
      ---         BLOCKEND  ---      ---       LVL=0
      00000D85H   SYMBOL    EDATA    INT       acc_value
      00000D87H   SYMBOL    EDATA    FLOAT     acc_dat

      00FF5DCCH   BLOCK     CODE     ---       LVL=0
      00000D8BH   SYMBOL    EDATA    INT       gyro_value
      00FF5DD0H   BLOCK     CODE     NEAR LAB  LVL=1
      00000D8DH   SYMBOL    EDATA    FLOAT     gyro_dat
      ---         BLOCKEND  ---      ---       LVL=1
      00FF5DCCH   LINE      CODE     ---       #561
      00FF5DD0H   LINE      CODE     ---       #562
      00FF5DD0H   LINE      CODE     ---       #563
      00FF5DD6H   LINE      CODE     ---       #564
      00FF5DEFH   LINE      CODE     ---       #566
      00FF5E09H   LINE      CODE     ---       #567
      00FF5E23H   LINE      CODE     ---       #568
      00FF5E3DH   LINE      CODE     ---       #569
      00FF5E57H   LINE      CODE     ---       #570
      00FF5E6FH   LINE      CODE     ---       #571
      00FF5E6FH   LINE      CODE     ---       #572
      00FF5E6FH   LINE      CODE     ---       #573
      00FF5E73H   LINE      CODE     ---       #574
      ---         BLOCKEND  ---      ---       LVL=0

      00FF5D22H   BLOCK     CODE     ---       LVL=0
L251 LINKER/LOCATER V4.66.93.0                                                        11/25/2023  21:38:42  PAGE 81


      00000EC4H   SYMBOL    EDATA    BYTE      return_state
      00FF5D22H   LINE      CODE     ---       #583
      00FF5D22H   LINE      CODE     ---       #584
      00FF5D22H   LINE      CODE     ---       #585
      00FF5D27H   LINE      CODE     ---       #587
      00FF5D2EH   LINE      CODE     ---       #598
      00FF5D2EH   LINE      CODE     ---       #599
      00FF5D36H   LINE      CODE     ---       #604
      00FF5D36H   LINE      CODE     ---       #606
      00FF5D41H   LINE      CODE     ---       #607
      00FF5D48H   LINE      CODE     ---       #608
      00FF5D4AH   LINE      CODE     ---       #609
      00FF5D50H   LINE      CODE     ---       #611
      00FF5D50H   LINE      CODE     ---       #613
      00FF5D57H   LINE      CODE     ---       #614
      00FF5D5EH   LINE      CODE     ---       #615
      00FF5D65H   LINE      CODE     ---       #616
      00FF5D76H   LINE      CODE     ---       #617
      00FF5D7EH   LINE      CODE     ---       #618
      00FF5D85H   LINE      CODE     ---       #619
      00FF5D8FH   LINE      CODE     ---       #626
      00FF5D9AH   LINE      CODE     ---       #629
      00FF5DA0H   LINE      CODE     ---       #631
      00FF5DA0H   LINE      CODE     ---       #632
      00FF5DA8H   LINE      CODE     ---       #633
      00FF5DB0H   LINE      CODE     ---       #634
      00FF5DB8H   LINE      CODE     ---       #636
      00FF5DC0H   LINE      CODE     ---       #644
      00FF5DC7H   LINE      CODE     ---       #651
      00FF5DC7H   LINE      CODE     ---       #652
      00FF5DCBH   LINE      CODE     ---       #653
      ---         BLOCKEND  ---      ---       LVL=0

      ---         MODULE    ---      ---       isr
      00FF67E3H   PUBLIC    CODE     ---       UART1_Isr
      00FF6B1AH   PUBLIC    CODE     ---       UART2_Isr
      00FF6B38H   PUBLIC    CODE     ---       UART3_Isr
      00FF613AH   PUBLIC    CODE     ---       UART4_Isr
      00FF0046H   PUBLIC    CODE     ---       INT0_Isr
      00FF000AH   PUBLIC    CODE     ---       INT1_Isr
      00FF6C00H   PUBLIC    CODE     ---       INT2_Isr
      00FF6C08H   PUBLIC    CODE     ---       INT3_Isr
      00FF6C10H   PUBLIC    CODE     ---       INT4_Isr
      00FF000EH   PUBLIC    CODE     ---       TM0_Isr
      00FF5E74H   PUBLIC    CODE     ---       TM1_Isr
      00FF6C18H   PUBLIC    CODE     ---       TM2_Isr
      00FF6C20H   PUBLIC    CODE     ---       TM3_Isr
      00FF6C28H   PUBLIC    CODE     ---       TM4_Isr
      00000DF8H   PUBLIC    EDATA    CHAR      cnt
      00000DF9H   PUBLIC    EDATA    CHAR      gyroflag
      00000DFAH   PUBLIC    EDATA    CHAR      cnt2
      000000D0H   SFRSYM    DATA     BYTE      PSW
      0000009DH   SFRSYM    DATA     BYTE      IRCBAND
      00000097H   SFRSYM    DATA     BYTE      AUXR2
      000000EFH   SFRSYM    DATA     BYTE      AUXINTIF
      000000FDH   SFRSYM    DATA     BYTE      S4CON
      000000ACH   SFRSYM    DATA     BYTE      S3CON
      0000009AH   SFRSYM    DATA     BYTE      S2CON
      000000B7H   SFRSYM    DATA     BYTE      IPH
      000000CDH   SFRSYM    DATA     BYTE      SPSTAT
      000000DDH   SFRSYM    DATA     BYTE      T4T3M
      000000C1H   SFRSYM    DATA     BYTE      WDT_CONTR
      000000DFH   SFRSYM    DATA     BYTE      IP3
      000000F4H   SFRSYM    DATA     BYTE      USBCON
      000000B5H   SFRSYM    DATA     BYTE      IP2
L251 LINKER/LOCATER V4.66.93.0                                                        11/25/2023  21:38:42  PAGE 82


      000000FFH   SFRSYM    DATA     BYTE      RSTCFG
      000000C7H   SFRSYM    DATA     BYTE      IAP_CONTR
      000000F9H   SFRSYM    DATA     BYTE      LINICR
      0000008EH   SFRSYM    DATA     BYTE      AUXR
      000000AFH   SFRSYM    DATA     BYTE      IE2
      000000C8H.2 SFRSYM    DATA     BIT       P52
      00000088H   SFRSYM    DATA     BYTE      TCON
      00000098H   SFRSYM    DATA     BYTE      SCON
      000000F1H   SFRSYM    DATA     BYTE      CANICR
      00000087H   SFRSYM    DATA     BYTE      PCON
      00000099H   SFRSYM    DATA     BYTE      SBUF
      000000BCH   SFRSYM    DATA     BYTE      ADC_CONTR
      000000E7H   SFRSYM    DATA     BYTE      CMPCR2
      000000E6H   SFRSYM    DATA     BYTE      CMPCR1
      000000B8H   SFRSYM    DATA     BYTE      IP
      0000008FH   SFRSYM    DATA     BYTE      INTCLKO
      000000EEH   SFRSYM    DATA     BYTE      IP3H
      000000B6H   SFRSYM    DATA     BYTE      IP2H
      000000A8H   SFRSYM    DATA     BYTE      IE
      000000BBH   SFRSYM    DATA     BYTE      P_SW3
      000000BAH   SFRSYM    DATA     BYTE      P_SW2
      000000A2H   SFRSYM    DATA     BYTE      P_SW1
      000000CEH   SFRSYM    DATA     BYTE      SPCTL
      000000F8H   SFRSYM    DATA     BYTE      P7
      000000E8H   SFRSYM    DATA     BYTE      P6
      000000C8H   SFRSYM    DATA     BYTE      P5
      000000C0H   SFRSYM    DATA     BYTE      P4
      000000B0H   SFRSYM    DATA     BYTE      P3
      000000A0H   SFRSYM    DATA     BYTE      P2
      00000090H   SFRSYM    DATA     BYTE      P1
      00000080H   SFRSYM    DATA     BYTE      P0

      00FF5E74H   BLOCK     CODE     ---       LVL=0
      00FF5E74H   LINE      CODE     ---       #31
      00FF5E8AH   LINE      CODE     ---       #33
      00FF5E97H   LINE      CODE     ---       #34
      00FF5EA0H   LINE      CODE     ---       #36
      00FF5EA6H   LINE      CODE     ---       #37
      00FF5EABH   LINE      CODE     ---       #38
      00FF5EABH   LINE      CODE     ---       #39
      00FF5EAEH   LINE      CODE     ---       #40
      00FF5EBBH   LINE      CODE     ---       #41
      00FF5EC4H   LINE      CODE     ---       #43
      00FF5EC7H   LINE      CODE     ---       #44
      00FF5ECCH   LINE      CODE     ---       #45
      00FF5ECCH   LINE      CODE     ---       #46
      00FF5ECFH   LINE      CODE     ---       #47
      00FF5EDBH   LINE      CODE     ---       #49
      00FF5EE1H   LINE      CODE     ---       #50
      00FF5EE7H   LINE      CODE     ---       #51
      00FF5EE7H   LINE      CODE     ---       #52
      00FF5EFEH   LINE      CODE     ---       #53
      ---         BLOCKEND  ---      ---       LVL=0

      00FF6C18H   BLOCK     CODE     ---       LVL=0
      00FF6C18H   LINE      CODE     ---       #56
      00FF6C1AH   LINE      CODE     ---       #58
      00FF6C1DH   LINE      CODE     ---       #59
      ---         BLOCKEND  ---      ---       LVL=0

      00FF000AH   BLOCK     CODE     ---       LVL=0
      00FF000AH   LINE      CODE     ---       #64
      00FF000AH   LINE      CODE     ---       #67
      ---         BLOCKEND  ---      ---       LVL=0

L251 LINKER/LOCATER V4.66.93.0                                                        11/25/2023  21:38:42  PAGE 83


      00FF6C00H   BLOCK     CODE     ---       LVL=0
      00FF6C00H   LINE      CODE     ---       #68
      00FF6C02H   LINE      CODE     ---       #70
      00FF6C05H   LINE      CODE     ---       #71
      ---         BLOCKEND  ---      ---       LVL=0

      00FF67E3H   BLOCK     CODE     ---       LVL=0
      00FF67E7H   BLOCK     CODE     NEAR LAB  LVL=1
      00000EC5H   SYMBOL    EDATA    BYTE      res
      00000DFBH   SYMBOL    EDATA    BYTE      dwon_count
      ---         BLOCKEND  ---      ---       LVL=1
      00FF67E3H   LINE      CODE     ---       #73
      00FF67E7H   LINE      CODE     ---       #74
      00FF67E7H   LINE      CODE     ---       #77
      00FF67ECH   LINE      CODE     ---       #79
      00FF67EFH   LINE      CODE     ---       #80
      00FF67F4H   LINE      CODE     ---       #81
      00FF67F4H   LINE      CODE     ---       #82
      00FF67F9H   LINE      CODE     ---       #84
      00FF67FCH   LINE      CODE     ---       #85
      00FF6802H   LINE      CODE     ---       #87
      00FF6807H   LINE      CODE     ---       #89
      00FF6819H   LINE      CODE     ---       #90
      00FF681DH   LINE      CODE     ---       #91
      00FF681FH   LINE      CODE     ---       #94
      00FF6824H   LINE      CODE     ---       #95
      00FF6824H   LINE      CODE     ---       #96
      ---         BLOCKEND  ---      ---       LVL=0

      00FF6B1AH   BLOCK     CODE     ---       LVL=0
      00FF6B1AH   LINE      CODE     ---       #100
      00FF6B1EH   LINE      CODE     ---       #102
      00FF6B23H   LINE      CODE     ---       #104
      00FF6B26H   LINE      CODE     ---       #105
      00FF6B2BH   LINE      CODE     ---       #106
      00FF6B2BH   LINE      CODE     ---       #107
      00FF6B30H   LINE      CODE     ---       #109
      00FF6B33H   LINE      CODE     ---       #112
      ---         BLOCKEND  ---      ---       LVL=0

      00FF6B38H   BLOCK     CODE     ---       LVL=0
      00FF6B38H   LINE      CODE     ---       #117
      00FF6B3CH   LINE      CODE     ---       #119
      00FF6B41H   LINE      CODE     ---       #121
      00FF6B44H   LINE      CODE     ---       #122
      00FF6B49H   LINE      CODE     ---       #123
      00FF6B49H   LINE      CODE     ---       #124
      00FF6B4EH   LINE      CODE     ---       #126
      00FF6B51H   LINE      CODE     ---       #129
      ---         BLOCKEND  ---      ---       LVL=0

      00FF613AH   BLOCK     CODE     ---       LVL=0
      00FF613AH   LINE      CODE     ---       #134
      00FF6150H   LINE      CODE     ---       #136
      00FF6155H   LINE      CODE     ---       #138
      00FF6158H   LINE      CODE     ---       #139
      00FF615DH   LINE      CODE     ---       #140
      00FF615DH   LINE      CODE     ---       #141
      00FF6162H   LINE      CODE     ---       #143
      00FF6165H   LINE      CODE     ---       #146
      00FF6171H   LINE      CODE     ---       #148
      00FF6174H   LINE      CODE     ---       #149
      00FF6176H   LINE      CODE     ---       #150
      00FF6182H   LINE      CODE     ---       #152
      00FF6185H   LINE      CODE     ---       #153
L251 LINKER/LOCATER V4.66.93.0                                                        11/25/2023  21:38:42  PAGE 84


      00FF6187H   LINE      CODE     ---       #154
      00FF6193H   LINE      CODE     ---       #156
      00FF6196H   LINE      CODE     ---       #157
      00FF6196H   LINE      CODE     ---       #159
      ---         BLOCKEND  ---      ---       LVL=0

      00FF0046H   BLOCK     CODE     ---       LVL=0
      00FF0046H   LINE      CODE     ---       #162
      00FF0048H   LINE      CODE     ---       #164
      00FF004BH   LINE      CODE     ---       #165
      ---         BLOCKEND  ---      ---       LVL=0

      00FF6C08H   BLOCK     CODE     ---       LVL=0
      00FF6C08H   LINE      CODE     ---       #167
      00FF6C0AH   LINE      CODE     ---       #169
      00FF6C0DH   LINE      CODE     ---       #170
      ---         BLOCKEND  ---      ---       LVL=0

      00FF6C10H   BLOCK     CODE     ---       LVL=0
      00FF6C10H   LINE      CODE     ---       #172
      00FF6C12H   LINE      CODE     ---       #174
      00FF6C15H   LINE      CODE     ---       #175
      ---         BLOCKEND  ---      ---       LVL=0

      00FF000EH   BLOCK     CODE     ---       LVL=0
      00FF000EH   LINE      CODE     ---       #177
      00FF000EH   LINE      CODE     ---       #180
      ---         BLOCKEND  ---      ---       LVL=0

      00FF6C20H   BLOCK     CODE     ---       LVL=0
      00FF6C20H   LINE      CODE     ---       #182
      00FF6C22H   LINE      CODE     ---       #184
      00FF6C25H   LINE      CODE     ---       #186
      ---         BLOCKEND  ---      ---       LVL=0

      00FF6C28H   BLOCK     CODE     ---       LVL=0
      00FF6C28H   LINE      CODE     ---       #188
      00FF6C2AH   LINE      CODE     ---       #190
      00FF6C2DH   LINE      CODE     ---       #193
      ---         BLOCKEND  ---      ---       LVL=0

      ---         MODULE    ---      ---       main
      00FF6BA4H   PUBLIC    CODE     ---       main
      000000D0H   SFRSYM    DATA     BYTE      PSW
      0000009DH   SFRSYM    DATA     BYTE      IRCBAND
      00000097H   SFRSYM    DATA     BYTE      AUXR2
      000000EFH   SFRSYM    DATA     BYTE      AUXINTIF
      000000FDH   SFRSYM    DATA     BYTE      S4CON
      000000ACH   SFRSYM    DATA     BYTE      S3CON
      0000009AH   SFRSYM    DATA     BYTE      S2CON
      000000B7H   SFRSYM    DATA     BYTE      IPH
      000000CDH   SFRSYM    DATA     BYTE      SPSTAT
      000000DDH   SFRSYM    DATA     BYTE      T4T3M
      000000C1H   SFRSYM    DATA     BYTE      WDT_CONTR
      000000DFH   SFRSYM    DATA     BYTE      IP3
      000000F4H   SFRSYM    DATA     BYTE      USBCON
      000000B5H   SFRSYM    DATA     BYTE      IP2
      000000FFH   SFRSYM    DATA     BYTE      RSTCFG
      000000F9H   SFRSYM    DATA     BYTE      LINICR
      0000008EH   SFRSYM    DATA     BYTE      AUXR
      000000AFH   SFRSYM    DATA     BYTE      IE2
      00000088H   SFRSYM    DATA     BYTE      TCON
      00000098H   SFRSYM    DATA     BYTE      SCON
      000000F1H   SFRSYM    DATA     BYTE      CANICR
      00000087H   SFRSYM    DATA     BYTE      PCON
L251 LINKER/LOCATER V4.66.93.0                                                        11/25/2023  21:38:42  PAGE 85


      000000BCH   SFRSYM    DATA     BYTE      ADC_CONTR
      000000E7H   SFRSYM    DATA     BYTE      CMPCR2
      000000E6H   SFRSYM    DATA     BYTE      CMPCR1
      000000B8H   SFRSYM    DATA     BYTE      IP
      0000008FH   SFRSYM    DATA     BYTE      INTCLKO
      000000EEH   SFRSYM    DATA     BYTE      IP3H
      000000B6H   SFRSYM    DATA     BYTE      IP2H
      000000A8H   SFRSYM    DATA     BYTE      IE
      000000BBH   SFRSYM    DATA     BYTE      P_SW3
      000000BAH   SFRSYM    DATA     BYTE      P_SW2
      000000A2H   SFRSYM    DATA     BYTE      P_SW1
      000000CEH   SFRSYM    DATA     BYTE      SPCTL
      000000F8H   SFRSYM    DATA     BYTE      P7
      000000E8H   SFRSYM    DATA     BYTE      P6
      000000C8H   SFRSYM    DATA     BYTE      P5
      000000C0H   SFRSYM    DATA     BYTE      P4
      000000B0H   SFRSYM    DATA     BYTE      P3
      000000A0H   SFRSYM    DATA     BYTE      P2
      00000090H   SFRSYM    DATA     BYTE      P1
      00000080H   SFRSYM    DATA     BYTE      P0

      00FF6BA4H   BLOCK     CODE     ---       LVL=0
      00FF6BA4H   LINE      CODE     ---       #33
      00FF6BA4H   LINE      CODE     ---       #35
      00FF6BA7H   LINE      CODE     ---       #36
      00FF6BAAH   LINE      CODE     ---       #37
      00FF6BB5H   LINE      CODE     ---       #39
      00FF6BB5H   LINE      CODE     ---       #41
      00FF6BB8H   LINE      CODE     ---       #42
      00FF6BBBH   LINE      CODE     ---       #43
      00FF6BBDH   LINE      CODE     ---       #44
      ---         BLOCKEND  ---      ---       LVL=0

      ---         MODULE    ---      ---       all_init
      00FF686EH   PUBLIC    CODE     ---       Tft_Printf
      00FF6ADCH   PUBLIC    CODE     ---       All_init
      00FF6045H   PUBLIC    CODE     ---       Tft_show
      000000D0H   SFRSYM    DATA     BYTE      PSW
      0000009DH   SFRSYM    DATA     BYTE      IRCBAND
      00000097H   SFRSYM    DATA     BYTE      AUXR2
      000000EFH   SFRSYM    DATA     BYTE      AUXINTIF
      000000FDH   SFRSYM    DATA     BYTE      S4CON
      000000ACH   SFRSYM    DATA     BYTE      S3CON
      0000009AH   SFRSYM    DATA     BYTE      S2CON
      000000B7H   SFRSYM    DATA     BYTE      IPH
      000000CDH   SFRSYM    DATA     BYTE      SPSTAT
      000000DDH   SFRSYM    DATA     BYTE      T4T3M
      000000C1H   SFRSYM    DATA     BYTE      WDT_CONTR
      000000DFH   SFRSYM    DATA     BYTE      IP3
      000000F4H   SFRSYM    DATA     BYTE      USBCON
      000000B5H   SFRSYM    DATA     BYTE      IP2
      000000FFH   SFRSYM    DATA     BYTE      RSTCFG
      000000F9H   SFRSYM    DATA     BYTE      LINICR
      0000008EH   SFRSYM    DATA     BYTE      AUXR
      000000AFH   SFRSYM    DATA     BYTE      IE2
      000000B0H.6 SFRSYM    DATA     BIT       P36
      00000088H   SFRSYM    DATA     BYTE      TCON
      00000098H   SFRSYM    DATA     BYTE      SCON
      000000F1H   SFRSYM    DATA     BYTE      CANICR
      00000087H   SFRSYM    DATA     BYTE      PCON
      000000BCH   SFRSYM    DATA     BYTE      ADC_CONTR
      000000E7H   SFRSYM    DATA     BYTE      CMPCR2
      000000E6H   SFRSYM    DATA     BYTE      CMPCR1
      000000B8H   SFRSYM    DATA     BYTE      IP
      0000008FH   SFRSYM    DATA     BYTE      INTCLKO
L251 LINKER/LOCATER V4.66.93.0                                                        11/25/2023  21:38:42  PAGE 86


      000000EEH   SFRSYM    DATA     BYTE      IP3H
      000000B6H   SFRSYM    DATA     BYTE      IP2H
      000000A8H   SFRSYM    DATA     BYTE      IE
      000000BBH   SFRSYM    DATA     BYTE      P_SW3
      000000BAH   SFRSYM    DATA     BYTE      P_SW2
      000000A2H   SFRSYM    DATA     BYTE      P_SW1
      000000CEH   SFRSYM    DATA     BYTE      SPCTL
      000000F8H   SFRSYM    DATA     BYTE      P7
      000000E8H   SFRSYM    DATA     BYTE      P6
      000000C8H   SFRSYM    DATA     BYTE      P5
      000000C0H   SFRSYM    DATA     BYTE      P4
      000000B0H   SFRSYM    DATA     BYTE      P3
      000000A0H   SFRSYM    DATA     BYTE      P2
      000000B1H   SFRSYM    DATA     BYTE      P3M1
      00000090H   SFRSYM    DATA     BYTE      P1
      000000B2H   SFRSYM    DATA     BYTE      P3M0
      00000080H   SFRSYM    DATA     BYTE      P0

      00FF6ADCH   BLOCK     CODE     ---       LVL=0
      00FF6ADCH   LINE      CODE     ---       #16
      00FF6ADCH   LINE      CODE     ---       #17
      00FF6ADFH   LINE      CODE     ---       #18
      00FF6AE2H   LINE      CODE     ---       #19
      00FF6AE5H   LINE      CODE     ---       #20
      00FF6AE8H   LINE      CODE     ---       #21
      00FF6AEBH   LINE      CODE     ---       #22
      00FF6AEEH   LINE      CODE     ---       #23
      00FF6AF1H   LINE      CODE     ---       #24
      00FF6AF7H   LINE      CODE     ---       #25
      00FF6AFAH   LINE      CODE     ---       #26
      ---         BLOCKEND  ---      ---       LVL=0

      00FF6045H   BLOCK     CODE     ---       LVL=0
      00FF6045H   LINE      CODE     ---       #28
      00FF6045H   LINE      CODE     ---       #29
      00FF6054H   LINE      CODE     ---       #30
      00FF6065H   LINE      CODE     ---       #31
      00FF6072H   LINE      CODE     ---       #33
      00FF6083H   LINE      CODE     ---       #34
      00FF6090H   LINE      CODE     ---       #40
      00FF60AAH   LINE      CODE     ---       #41
      00FF60B7H   LINE      CODE     ---       #42
      00FF60C4H   LINE      CODE     ---       #51
      ---         BLOCKEND  ---      ---       LVL=0

      00FF686EH   BLOCK     CODE     ---       LVL=0
      00FF686EH   LINE      CODE     ---       #52
      00FF686EH   LINE      CODE     ---       #54
      00FF68B1H   LINE      CODE     ---       #56
      ---         BLOCKEND  ---      ---       LVL=0

      ---         MODULE    ---      ---       bal
      00FF5F15H   PUBLIC    CODE     ---       All_PID_Init
      00FF679AH   PUBLIC    CODE     ---       Encoder_cal
      00FF57F4H   PUBLIC    CODE     ---       velocity_control
      00FF6413H   PUBLIC    CODE     ---       Bal_control
      00000313H   PUBLIC    EDATA    INT       Speed_Turn
      00000315H   PUBLIC    EDATA    FLOAT     Turn_OUT
      00000319H   PUBLIC    EDATA    INT       L_Speed_Last_Error
      0000031BH   PUBLIC    EDATA    FLOAT     angle
      0000031FH   PUBLIC    EDATA    INT       R_Speed_Last_Error
      00000321H   PUBLIC    EDATA    INT       L_Speed_Now_Error
      00000323H   PUBLIC    EDATA    ---       Angle_PID
      00000353H   PUBLIC    EDATA    INT       R_Speed_Now_Error
      00000355H   PUBLIC    EDATA    INT       L_target
L251 LINKER/LOCATER V4.66.93.0                                                        11/25/2023  21:38:42  PAGE 87


      00000357H   PUBLIC    EDATA    INT       Pulse_L
      00000359H   PUBLIC    EDATA    FLOAT     Speed_L_Out
      0000035DH   PUBLIC    EDATA    INT       R_target
      0000035FH   PUBLIC    EDATA    INT       Pulse_R
      00000361H   PUBLIC    EDATA    FLOAT     Speed_R_Out
      00000365H   PUBLIC    EDATA    INT       L_Speed_Now_car
      00000367H   PUBLIC    EDATA    INT       R_Speed_Now_car
      00000369H   PUBLIC    EDATA    INT       Speed_Target_car
      0000036BH   PUBLIC    EDATA    ---       L_Speed_PID
      0000039BH   PUBLIC    EDATA    ---       R_Speed_PID
      000003CBH   PUBLIC    EDATA    ---       Turn_PID
      000003FBH   PUBLIC    EDATA    INT       Angle_Turn
      000000D0H   SFRSYM    DATA     BYTE      PSW
      0000009DH   SFRSYM    DATA     BYTE      IRCBAND
      00000097H   SFRSYM    DATA     BYTE      AUXR2
      000000EFH   SFRSYM    DATA     BYTE      AUXINTIF
      000000FDH   SFRSYM    DATA     BYTE      S4CON
      000000ACH   SFRSYM    DATA     BYTE      S3CON
      0000009AH   SFRSYM    DATA     BYTE      S2CON
      000000B7H   SFRSYM    DATA     BYTE      IPH
      000000CDH   SFRSYM    DATA     BYTE      SPSTAT
      000000DDH   SFRSYM    DATA     BYTE      T4T3M
      000000C1H   SFRSYM    DATA     BYTE      WDT_CONTR
      000000DFH   SFRSYM    DATA     BYTE      IP3
      000000F4H   SFRSYM    DATA     BYTE      USBCON
      000000B5H   SFRSYM    DATA     BYTE      IP2
      000000FFH   SFRSYM    DATA     BYTE      RSTCFG
      000000F9H   SFRSYM    DATA     BYTE      LINICR
      0000008EH   SFRSYM    DATA     BYTE      AUXR
      000000AFH   SFRSYM    DATA     BYTE      IE2
      000000B0H.5 SFRSYM    DATA     BIT       P35
      000000C8H.3 SFRSYM    DATA     BIT       P53
      00000088H   SFRSYM    DATA     BYTE      TCON
      00000098H   SFRSYM    DATA     BYTE      SCON
      000000F1H   SFRSYM    DATA     BYTE      CANICR
      00000087H   SFRSYM    DATA     BYTE      PCON
      000000BCH   SFRSYM    DATA     BYTE      ADC_CONTR
      000000E7H   SFRSYM    DATA     BYTE      CMPCR2
      000000E6H   SFRSYM    DATA     BYTE      CMPCR1
      000000B8H   SFRSYM    DATA     BYTE      IP
      0000008FH   SFRSYM    DATA     BYTE      INTCLKO
      000000EEH   SFRSYM    DATA     BYTE      IP3H
      000000B6H   SFRSYM    DATA     BYTE      IP2H
      000000A8H   SFRSYM    DATA     BYTE      IE
      000000BBH   SFRSYM    DATA     BYTE      P_SW3
      000000BAH   SFRSYM    DATA     BYTE      P_SW2
      000000A2H   SFRSYM    DATA     BYTE      P_SW1
      000000CEH   SFRSYM    DATA     BYTE      SPCTL
      000000F8H   SFRSYM    DATA     BYTE      P7
      000000E8H   SFRSYM    DATA     BYTE      P6
      000000C8H   SFRSYM    DATA     BYTE      P5
      000000C0H   SFRSYM    DATA     BYTE      P4
      000000B0H   SFRSYM    DATA     BYTE      P3
      000000A0H   SFRSYM    DATA     BYTE      P2
      00000090H   SFRSYM    DATA     BYTE      P1
      00000080H   SFRSYM    DATA     BYTE      P0

      00FF5F15H   BLOCK     CODE     ---       LVL=0
      00FF5F15H   LINE      CODE     ---       #27
      00FF5F15H   LINE      CODE     ---       #29
      00FF5F1DH   LINE      CODE     ---       #31
      00FF5F24H   LINE      CODE     ---       #32
      00FF5F2BH   LINE      CODE     ---       #33
      00FF5F32H   LINE      CODE     ---       #34
      00FF5F39H   LINE      CODE     ---       #36
L251 LINKER/LOCATER V4.66.93.0                                                        11/25/2023  21:38:42  PAGE 88


      00FF5F43H   LINE      CODE     ---       #37
      00FF5F4FH   LINE      CODE     ---       #38
      00FF5F55H   LINE      CODE     ---       #40
      00FF5F5FH   LINE      CODE     ---       #41
      00FF5F6BH   LINE      CODE     ---       #42
      00FF5F71H   LINE      CODE     ---       #44
      00FF5F7DH   LINE      CODE     ---       #45
      00FF5F83H   LINE      CODE     ---       #46
      00FF5F8FH   LINE      CODE     ---       #48
      00FF5F9BH   LINE      CODE     ---       #49
      00FF5FA7H   LINE      CODE     ---       #50
      00FF5FADH   LINE      CODE     ---       #51
      ---         BLOCKEND  ---      ---       LVL=0

      00FF679AH   BLOCK     CODE     ---       LVL=0
      00FF679AH   LINE      CODE     ---       #53
      00FF679AH   LINE      CODE     ---       #55
      00FF67A3H   LINE      CODE     ---       #56
      00FF67A9H   LINE      CODE     ---       #57
      00FF67B4H   LINE      CODE     ---       #59
      00FF67BDH   LINE      CODE     ---       #61
      00FF67CBH   LINE      CODE     ---       #62
      00FF67CBH   LINE      CODE     ---       #63
      00FF67D4H   LINE      CODE     ---       #65
      00FF67E2H   LINE      CODE     ---       #66
      ---         BLOCKEND  ---      ---       LVL=0

      00FF6413H   BLOCK     CODE     ---       LVL=0
      00FF6413H   LINE      CODE     ---       #69
      00FF6413H   LINE      CODE     ---       #71
      00FF641CH   LINE      CODE     ---       #73
      00FF641FH   LINE      CODE     ---       #74
      00FF642AH   LINE      CODE     ---       #75
      00FF6447H   LINE      CODE     ---       #76
      00FF644CH   LINE      CODE     ---       #77
      00FF644CH   LINE      CODE     ---       #79
      00FF6455H   LINE      CODE     ---       #81
      00FF6464H   LINE      CODE     ---       #82
      00FF6469H   LINE      CODE     ---       #83
      00FF6469H   LINE      CODE     ---       #84
      00FF646CH   LINE      CODE     ---       #85
      ---         BLOCKEND  ---      ---       LVL=0

      00FF57F4H   BLOCK     CODE     ---       LVL=0
      00FF57F4H   LINE      CODE     ---       #88
      00FF57F4H   LINE      CODE     ---       #90
      00FF57FCH   LINE      CODE     ---       #91
      00FF5804H   LINE      CODE     ---       #94
      00FF5816H   LINE      CODE     ---       #95
      00FF582EH   LINE      CODE     ---       #96
      00FF5852H   LINE      CODE     ---       #97
      00FF5860H   LINE      CODE     ---       #98
      00FF586EH   LINE      CODE     ---       #100
      00FF587CH   LINE      CODE     ---       #101
      00FF588AH   LINE      CODE     ---       #103
      00FF589EH   LINE      CODE     ---       #104
      00FF58B2H   LINE      CODE     ---       #106
      00FF58B7H   LINE      CODE     ---       #107
      00FF58BEH   LINE      CODE     ---       #108
      ---         BLOCKEND  ---      ---       LVL=0

      ---         MODULE    ---      ---       electronic
      00FF69AEH   PUBLIC    CODE     ---       ADC_6_road_init
      00FF598AH   PUBLIC    CODE     ---       adc_data_convert
      00FF61ADH   PUBLIC    CODE     ---       adc_filter
L251 LINKER/LOCATER V4.66.93.0                                                        11/25/2023  21:38:42  PAGE 89


      00FF5C75H   PUBLIC    CODE     ---       InductorNormal
      00000529H   PUBLIC    EDATA    FLOAT     electro_error
      0000052DH   PUBLIC    EDATA    FLOAT     Limit
      00000531H   PUBLIC    EDATA    INT       MagneticField
      00000533H   PUBLIC    EDATA    CHAR      Turn_flag
      00000534H   PUBLIC    EDATA    FLOAT     weightA
      00000538H   PUBLIC    EDATA    FLOAT     weightB
      0000053CH   PUBLIC    EDATA    ---       ADC_DATA_CH0
      00000548H   PUBLIC    EDATA    ---       ADC_DATA_CH1
      00000554H   PUBLIC    EDATA    ---       ADC_DATA_CH2
      00000560H   PUBLIC    EDATA    ---       ADC_DATA_CH4
      0000056CH   PUBLIC    EDATA    ---       ADC_DATA_CH5
      00000578H   PUBLIC    EDATA    ---       LnowADC
      000000D0H   SFRSYM    DATA     BYTE      PSW
      0000009DH   SFRSYM    DATA     BYTE      IRCBAND
      00000097H   SFRSYM    DATA     BYTE      AUXR2
      000000EFH   SFRSYM    DATA     BYTE      AUXINTIF
      000000FDH   SFRSYM    DATA     BYTE      S4CON
      000000ACH   SFRSYM    DATA     BYTE      S3CON
      0000009AH   SFRSYM    DATA     BYTE      S2CON
      000000B7H   SFRSYM    DATA     BYTE      IPH
      000000CDH   SFRSYM    DATA     BYTE      SPSTAT
      000000DDH   SFRSYM    DATA     BYTE      T4T3M
      000000C1H   SFRSYM    DATA     BYTE      WDT_CONTR
      000000DFH   SFRSYM    DATA     BYTE      IP3
      000000F4H   SFRSYM    DATA     BYTE      USBCON
      000000B5H   SFRSYM    DATA     BYTE      IP2
      000000FFH   SFRSYM    DATA     BYTE      RSTCFG
      000000F9H   SFRSYM    DATA     BYTE      LINICR
      0000008EH   SFRSYM    DATA     BYTE      AUXR
      000000AFH   SFRSYM    DATA     BYTE      IE2
      00000088H   SFRSYM    DATA     BYTE      TCON
      00000098H   SFRSYM    DATA     BYTE      SCON
      000000F1H   SFRSYM    DATA     BYTE      CANICR
      00000087H   SFRSYM    DATA     BYTE      PCON
      000000BCH   SFRSYM    DATA     BYTE      ADC_CONTR
      000000E7H   SFRSYM    DATA     BYTE      CMPCR2
      000000E6H   SFRSYM    DATA     BYTE      CMPCR1
      000000B8H   SFRSYM    DATA     BYTE      IP
      0000008FH   SFRSYM    DATA     BYTE      INTCLKO
      000000EEH   SFRSYM    DATA     BYTE      IP3H
      000000B6H   SFRSYM    DATA     BYTE      IP2H
      000000A8H   SFRSYM    DATA     BYTE      IE
      000000BBH   SFRSYM    DATA     BYTE      P_SW3
      000000BAH   SFRSYM    DATA     BYTE      P_SW2
      000000A2H   SFRSYM    DATA     BYTE      P_SW1
      000000CEH   SFRSYM    DATA     BYTE      SPCTL
      000000F8H   SFRSYM    DATA     BYTE      P7
      000000E8H   SFRSYM    DATA     BYTE      P6
      000000C8H   SFRSYM    DATA     BYTE      P5
      000000C0H   SFRSYM    DATA     BYTE      P4
      000000B0H   SFRSYM    DATA     BYTE      P3
      000000A0H   SFRSYM    DATA     BYTE      P2
      00000090H   SFRSYM    DATA     BYTE      P1
      00000080H   SFRSYM    DATA     BYTE      P0

      00FF69AEH   BLOCK     CODE     ---       LVL=0
      00FF69AEH   LINE      CODE     ---       #38
      00FF69AEH   LINE      CODE     ---       #40
      00FF69B7H   LINE      CODE     ---       #41
      00FF69C0H   LINE      CODE     ---       #42
      00FF69C9H   LINE      CODE     ---       #43
      00FF69D2H   LINE      CODE     ---       #44
      00FF69DBH   LINE      CODE     ---       #45
      00FF69E4H   LINE      CODE     ---       #46
L251 LINKER/LOCATER V4.66.93.0                                                        11/25/2023  21:38:42  PAGE 90


      ---         BLOCKEND  ---      ---       LVL=0

      00FF5C75H   BLOCK     CODE     ---       LVL=0
      00FF5C75H   LINE      CODE     ---       #55
      00FF5C75H   LINE      CODE     ---       #57
      00FF5C78H   LINE      CODE     ---       #58
      00FF5C83H   LINE      CODE     ---       #59
      00FF5C8EH   LINE      CODE     ---       #60
      00FF5C99H   LINE      CODE     ---       #62
      00FF5CA4H   LINE      CODE     ---       #63
      00FF5CAFH   LINE      CODE     ---       #65
      00FF5CBDH   LINE      CODE     ---       #66
      00FF5D0AH   LINE      CODE     ---       #70
      00FF5D1BH   LINE      CODE     ---       #71
      00FF5D21H   LINE      CODE     ---       #72
      ---         BLOCKEND  ---      ---       LVL=0
      00000CB8H   SYMBOL    EDATA    INT       vadc_chn
      00010000H   SYMBOL    XDATA    BYTE      i
      00010001H   SYMBOL    XDATA    ---       a
      00000CBAH   SYMBOL    EDATA    INT       filter_temp
      00000CBCH   SYMBOL    EDATA    INT       out
      00000CBEH   SYMBOL    EDATA    INT       j

      00FF598AH   BLOCK     CODE     ---       LVL=0
      0001001CH   SYMBOL    XDATA    BYTE      i
      00FF598AH   LINE      CODE     ---       #116
      00FF598AH   LINE      CODE     ---       #117
      00FF598AH   LINE      CODE     ---       #120
      00FF5992H   LINE      CODE     ---       #122
      00FF59B2H   LINE      CODE     ---       #123
      00FF59D2H   LINE      CODE     ---       #125
      00FF59F2H   LINE      CODE     ---       #128
      00FF5A12H   LINE      CODE     ---       #129
      00FF5A32H   LINE      CODE     ---       #130
      00FF5A4CH   LINE      CODE     ---       #131
      ---         BLOCKEND  ---      ---       LVL=0

      00FF61ADH   BLOCK     CODE     ---       LVL=0
      00000DFCH   SYMBOL    EDATA    ---       a
      00FF61B1H   BLOCK     CODE     NEAR LAB  LVL=1
      00010019H   SYMBOL    XDATA    BYTE      i
      0001001AH   SYMBOL    XDATA    INT       out
      ---         BLOCKEND  ---      ---       LVL=1
      00FF61ADH   LINE      CODE     ---       #134
      00FF61B1H   LINE      CODE     ---       #135
      00FF61B1H   LINE      CODE     ---       #137
      00FF61B9H   LINE      CODE     ---       #139
      00FF61C0H   LINE      CODE     ---       #141
      00FF61DEH   LINE      CODE     ---       #142
      00FF61F5H   LINE      CODE     ---       #144
      00FF6216H   LINE      CODE     ---       #146
      00FF621CH   LINE      CODE     ---       #147
      ---         BLOCKEND  ---      ---       LVL=0

      ---         MODULE    ---      ---       element
      000000D0H   SFRSYM    DATA     BYTE      PSW
      0000009DH   SFRSYM    DATA     BYTE      IRCBAND
      00000097H   SFRSYM    DATA     BYTE      AUXR2
      000000EFH   SFRSYM    DATA     BYTE      AUXINTIF
      000000FDH   SFRSYM    DATA     BYTE      S4CON
      000000ACH   SFRSYM    DATA     BYTE      S3CON
      0000009AH   SFRSYM    DATA     BYTE      S2CON
      000000B7H   SFRSYM    DATA     BYTE      IPH
      000000CDH   SFRSYM    DATA     BYTE      SPSTAT
      000000DDH   SFRSYM    DATA     BYTE      T4T3M
L251 LINKER/LOCATER V4.66.93.0                                                        11/25/2023  21:38:42  PAGE 91


      000000C1H   SFRSYM    DATA     BYTE      WDT_CONTR
      000000DFH   SFRSYM    DATA     BYTE      IP3
      000000F4H   SFRSYM    DATA     BYTE      USBCON
      000000B5H   SFRSYM    DATA     BYTE      IP2
      000000FFH   SFRSYM    DATA     BYTE      RSTCFG
      000000F9H   SFRSYM    DATA     BYTE      LINICR
      0000008EH   SFRSYM    DATA     BYTE      AUXR
      000000AFH   SFRSYM    DATA     BYTE      IE2
      00000088H   SFRSYM    DATA     BYTE      TCON
      00000098H   SFRSYM    DATA     BYTE      SCON
      000000F1H   SFRSYM    DATA     BYTE      CANICR
      00000087H   SFRSYM    DATA     BYTE      PCON
      000000BCH   SFRSYM    DATA     BYTE      ADC_CONTR
      000000E7H   SFRSYM    DATA     BYTE      CMPCR2
      000000E6H   SFRSYM    DATA     BYTE      CMPCR1
      000000B8H   SFRSYM    DATA     BYTE      IP
      0000008FH   SFRSYM    DATA     BYTE      INTCLKO
      000000EEH   SFRSYM    DATA     BYTE      IP3H
      000000B6H   SFRSYM    DATA     BYTE      IP2H
      000000A8H   SFRSYM    DATA     BYTE      IE
      000000BBH   SFRSYM    DATA     BYTE      P_SW3
      000000BAH   SFRSYM    DATA     BYTE      P_SW2
      000000A2H   SFRSYM    DATA     BYTE      P_SW1
      000000CEH   SFRSYM    DATA     BYTE      SPCTL
      000000F8H   SFRSYM    DATA     BYTE      P7
      000000E8H   SFRSYM    DATA     BYTE      P6
      000000C8H   SFRSYM    DATA     BYTE      P5
      000000C0H   SFRSYM    DATA     BYTE      P4
      000000B0H   SFRSYM    DATA     BYTE      P3
      000000A0H   SFRSYM    DATA     BYTE      P2
      00000090H   SFRSYM    DATA     BYTE      P1
      00000080H   SFRSYM    DATA     BYTE      P0

      ---         MODULE    ---      ---       LQ_PID
      00FF58BFH   PUBLIC    CODE     ---       PidInit
      00FF6A1AH   PUBLIC    CODE     ---       constrain_float
      00FF525DH   PUBLIC    CODE     ---       PidIncCtrl
      00FF5106H   PUBLIC    CODE     ---       PidLocCtrl
      00000AF1H   PUBLIC    EDATA    BYTE      ?constrain_float?BYTE
      000000D0H   SFRSYM    DATA     BYTE      PSW
      0000009DH   SFRSYM    DATA     BYTE      IRCBAND
      00000097H   SFRSYM    DATA     BYTE      AUXR2
      000000EFH   SFRSYM    DATA     BYTE      AUXINTIF
      000000FDH   SFRSYM    DATA     BYTE      S4CON
      000000ACH   SFRSYM    DATA     BYTE      S3CON
      0000009AH   SFRSYM    DATA     BYTE      S2CON
      000000B7H   SFRSYM    DATA     BYTE      IPH
      000000CDH   SFRSYM    DATA     BYTE      SPSTAT
      000000DDH   SFRSYM    DATA     BYTE      T4T3M
      000000C1H   SFRSYM    DATA     BYTE      WDT_CONTR
      000000DFH   SFRSYM    DATA     BYTE      IP3
      000000F4H   SFRSYM    DATA     BYTE      USBCON
      000000B5H   SFRSYM    DATA     BYTE      IP2
      000000FFH   SFRSYM    DATA     BYTE      RSTCFG
      000000F9H   SFRSYM    DATA     BYTE      LINICR
      0000008EH   SFRSYM    DATA     BYTE      AUXR
      000000AFH   SFRSYM    DATA     BYTE      IE2
      00000088H   SFRSYM    DATA     BYTE      TCON
      00000098H   SFRSYM    DATA     BYTE      SCON
      000000F1H   SFRSYM    DATA     BYTE      CANICR
      00000087H   SFRSYM    DATA     BYTE      PCON
      000000BCH   SFRSYM    DATA     BYTE      ADC_CONTR
      000000E7H   SFRSYM    DATA     BYTE      CMPCR2
      000000E6H   SFRSYM    DATA     BYTE      CMPCR1
      000000B8H   SFRSYM    DATA     BYTE      IP
L251 LINKER/LOCATER V4.66.93.0                                                        11/25/2023  21:38:42  PAGE 92


      0000008FH   SFRSYM    DATA     BYTE      INTCLKO
      000000EEH   SFRSYM    DATA     BYTE      IP3H
      000000B6H   SFRSYM    DATA     BYTE      IP2H
      000000A8H   SFRSYM    DATA     BYTE      IE
      000000BBH   SFRSYM    DATA     BYTE      P_SW3
      000000BAH   SFRSYM    DATA     BYTE      P_SW2
      000000A2H   SFRSYM    DATA     BYTE      P_SW1
      000000CEH   SFRSYM    DATA     BYTE      SPCTL
      000000F8H   SFRSYM    DATA     BYTE      P7
      000000E8H   SFRSYM    DATA     BYTE      P6
      000000C8H   SFRSYM    DATA     BYTE      P5
      000000C0H   SFRSYM    DATA     BYTE      P4
      000000B0H   SFRSYM    DATA     BYTE      P3
      000000A0H   SFRSYM    DATA     BYTE      P2
      00000090H   SFRSYM    DATA     BYTE      P1
      00000080H   SFRSYM    DATA     BYTE      P0

      00FF6A1AH   BLOCK     CODE     ---       LVL=0
      00000AF1H   SYMBOL    EDATA    FLOAT     amt
      00000AF5H   SYMBOL    EDATA    FLOAT     low
      00000AF9H   SYMBOL    EDATA    FLOAT     high
      00FF6A1AH   LINE      CODE     ---       #34
      00FF6A22H   LINE      CODE     ---       #36
      00FF6A4CH   LINE      CODE     ---       #37
      ---         BLOCKEND  ---      ---       LVL=0

      00FF58BFH   BLOCK     CODE     ---       LVL=0
      00000E00H   SYMBOL    EDATA    ---       pid
      00FF58BFH   LINE      CODE     ---       #40
      00FF58C3H   LINE      CODE     ---       #42
      00FF58D0H   LINE      CODE     ---       #43
      00FF58DFH   LINE      CODE     ---       #44
      00FF58F0H   LINE      CODE     ---       #45
      00FF5901H   LINE      CODE     ---       #46
      00FF5912H   LINE      CODE     ---       #47
      00FF5923H   LINE      CODE     ---       #48
      00FF5934H   LINE      CODE     ---       #49
      00FF5945H   LINE      CODE     ---       #50
      00FF5956H   LINE      CODE     ---       #51
      00FF5967H   LINE      CODE     ---       #52
      00FF5978H   LINE      CODE     ---       #53
      00FF5989H   LINE      CODE     ---       #54
      ---         BLOCKEND  ---      ---       LVL=0

      00FF5106H   BLOCK     CODE     ---       LVL=0
      00000CC0H   SYMBOL    EDATA    ---       pid
      00000CC4H   SYMBOL    EDATA    FLOAT     error
      00FF5106H   LINE      CODE     ---       #66
      00FF510EH   LINE      CODE     ---       #69
      00FF512BH   LINE      CODE     ---       #72
      00FF5168H   LINE      CODE     ---       #75
      00FF518BH   LINE      CODE     ---       #76
      00FF51BBH   LINE      CODE     ---       #77
      00FF51F6H   LINE      CODE     ---       #79
      00FF5209H   LINE      CODE     ---       #81
      00FF524DH   LINE      CODE     ---       #83
      00FF525CH   LINE      CODE     ---       #84
      ---         BLOCKEND  ---      ---       LVL=0

      00FF525DH   BLOCK     CODE     ---       LVL=0
      00000CC8H   SYMBOL    EDATA    ---       pid
      00000CCCH   SYMBOL    EDATA    FLOAT     error
      00FF525DH   LINE      CODE     ---       #95
      00FF5265H   LINE      CODE     ---       #97
      00FF529CH   LINE      CODE     ---       #98
L251 LINKER/LOCATER V4.66.93.0                                                        11/25/2023  21:38:42  PAGE 93


      00FF52C1H   LINE      CODE     ---       #99
      00FF530EH   LINE      CODE     ---       #101
      00FF5335H   LINE      CODE     ---       #102
      00FF5348H   LINE      CODE     ---       #104
      00FF5396H   LINE      CODE     ---       #106
      00FF53A5H   LINE      CODE     ---       #107
      ---         BLOCKEND  ---      ---       LVL=0

      ---         MODULE    ---      ---       motor
      00FF6BD7H   PUBLIC    CODE     ---       encoder_get
      00FF6BBEH   PUBLIC    CODE     ---       Duty_Limit
      00FF6829H   PUBLIC    CODE     ---       Motor_Init
      00FF4FA9H   PUBLIC    CODE     ---       Motor_SpeedSet
      00FF6AFBH   PUBLIC    CODE     ---       Encoder_init
      000000D0H   SFRSYM    DATA     BYTE      PSW
      0000009DH   SFRSYM    DATA     BYTE      IRCBAND
      00000097H   SFRSYM    DATA     BYTE      AUXR2
      000000EFH   SFRSYM    DATA     BYTE      AUXINTIF
      000000FDH   SFRSYM    DATA     BYTE      S4CON
      000000ACH   SFRSYM    DATA     BYTE      S3CON
      0000009AH   SFRSYM    DATA     BYTE      S2CON
      000000B7H   SFRSYM    DATA     BYTE      IPH
      000000CDH   SFRSYM    DATA     BYTE      SPSTAT
      000000DDH   SFRSYM    DATA     BYTE      T4T3M
      000000C1H   SFRSYM    DATA     BYTE      WDT_CONTR
      000000DFH   SFRSYM    DATA     BYTE      IP3
      000000F4H   SFRSYM    DATA     BYTE      USBCON
      000000B5H   SFRSYM    DATA     BYTE      IP2
      000000FFH   SFRSYM    DATA     BYTE      RSTCFG
      000000F9H   SFRSYM    DATA     BYTE      LINICR
      0000008EH   SFRSYM    DATA     BYTE      AUXR
      000000AFH   SFRSYM    DATA     BYTE      IE2
      000000B0H.5 SFRSYM    DATA     BIT       P35
      000000C8H.3 SFRSYM    DATA     BIT       P53
      00000088H   SFRSYM    DATA     BYTE      TCON
      00000098H   SFRSYM    DATA     BYTE      SCON
      000000F1H   SFRSYM    DATA     BYTE      CANICR
      00000087H   SFRSYM    DATA     BYTE      PCON
      000000BCH   SFRSYM    DATA     BYTE      ADC_CONTR
      000000E7H   SFRSYM    DATA     BYTE      CMPCR2
      000000E6H   SFRSYM    DATA     BYTE      CMPCR1
      000000B8H   SFRSYM    DATA     BYTE      IP
      0000008FH   SFRSYM    DATA     BYTE      INTCLKO
      000000EEH   SFRSYM    DATA     BYTE      IP3H
      000000B6H   SFRSYM    DATA     BYTE      IP2H
      000000A8H   SFRSYM    DATA     BYTE      IE
      000000BBH   SFRSYM    DATA     BYTE      P_SW3
      000000BAH   SFRSYM    DATA     BYTE      P_SW2
      000000A2H   SFRSYM    DATA     BYTE      P_SW1
      000000CEH   SFRSYM    DATA     BYTE      SPCTL
      000000F8H   SFRSYM    DATA     BYTE      P7
      000000E8H   SFRSYM    DATA     BYTE      P6
      000000C8H   SFRSYM    DATA     BYTE      P5
      000000C0H   SFRSYM    DATA     BYTE      P4
      000000B0H   SFRSYM    DATA     BYTE      P3
      000000A0H   SFRSYM    DATA     BYTE      P2
      00000090H   SFRSYM    DATA     BYTE      P1
      00000080H   SFRSYM    DATA     BYTE      P0

      00FF6AFBH   BLOCK     CODE     ---       LVL=0
      00FF6AFBH   LINE      CODE     ---       #5
      00FF6AFBH   LINE      CODE     ---       #6
      00FF6B04H   LINE      CODE     ---       #7
      00FF6B0DH   LINE      CODE     ---       #8
      00FF6B14H   LINE      CODE     ---       #9
L251 LINKER/LOCATER V4.66.93.0                                                        11/25/2023  21:38:42  PAGE 94


      00FF6B19H   LINE      CODE     ---       #10
      ---         BLOCKEND  ---      ---       LVL=0

      00FF6BD7H   BLOCK     CODE     ---       LVL=0
      00000E04H   SYMBOL    EDATA    INT       pin
      00FF6BDBH   BLOCK     CODE     NEAR LAB  LVL=1
      00000E06H   SYMBOL    EDATA    INT       t
      ---         BLOCKEND  ---      ---       LVL=1
      00FF6BD7H   LINE      CODE     ---       #12
      00FF6BDBH   LINE      CODE     ---       #13
      00FF6BDBH   LINE      CODE     ---       #15
      00FF6BE2H   LINE      CODE     ---       #16
      00FF6BE9H   LINE      CODE     ---       #17
      00FF6BEDH   LINE      CODE     ---       #18
      ---         BLOCKEND  ---      ---       LVL=0

      00FF6829H   BLOCK     CODE     ---       LVL=0
      00FF6829H   LINE      CODE     ---       #20
      00FF6829H   LINE      CODE     ---       #22
      00FF683AH   LINE      CODE     ---       #23
      00FF684BH   LINE      CODE     ---       #24
      00FF685CH   LINE      CODE     ---       #25
      00FF686DH   LINE      CODE     ---       #26
      ---         BLOCKEND  ---      ---       LVL=0

      00FF4FA9H   BLOCK     CODE     ---       LVL=0
      00000E08H   SYMBOL    EDATA    INT       Duty_L
      00000E0AH   SYMBOL    EDATA    INT       Duty_R
      00FF4FA9H   LINE      CODE     ---       #28
      00FF4FB1H   LINE      CODE     ---       #30
      00FF4FBBH   LINE      CODE     ---       #32
      00FF4FE3H   LINE      CODE     ---       #33
      00FF4FE6H   LINE      CODE     ---       #34
      00FF4FEFH   LINE      CODE     ---       #35
      00FF4FFEH   LINE      CODE     ---       #36
      00FF5000H   LINE      CODE     ---       #37
      00FF500AH   LINE      CODE     ---       #39
      00FF5018H   LINE      CODE     ---       #40
      00FF5040H   LINE      CODE     ---       #41
      00FF5043H   LINE      CODE     ---       #42
      00FF5052H   LINE      CODE     ---       #43
      00FF505BH   LINE      CODE     ---       #44
      00FF505BH   LINE      CODE     ---       #46
      00FF5065H   LINE      CODE     ---       #48
      00FF508DH   LINE      CODE     ---       #49
      00FF5090H   LINE      CODE     ---       #50
      00FF509FH   LINE      CODE     ---       #51
      00FF50A8H   LINE      CODE     ---       #52
      00FF50AAH   LINE      CODE     ---       #53
      00FF50B4H   LINE      CODE     ---       #55
      00FF50C2H   LINE      CODE     ---       #56
      00FF50EAH   LINE      CODE     ---       #57
      00FF50EDH   LINE      CODE     ---       #58
      00FF50F6H   LINE      CODE     ---       #59
      00FF5105H   LINE      CODE     ---       #60
      ---         BLOCKEND  ---      ---       LVL=0

      00FF6BBEH   BLOCK     CODE     ---       LVL=0
      00000EACH   SYMBOL    EDATA    INT       Duty
      00FF6BBEH   LINE      CODE     ---       #62
      00FF6BC2H   LINE      CODE     ---       #63
      00FF6BCEH   LINE      CODE     ---       #65
      00FF6BD6H   LINE      CODE     ---       #66
      ---         BLOCKEND  ---      ---       LVL=0

L251 LINKER/LOCATER V4.66.93.0                                                        11/25/2023  21:38:42  PAGE 95


      ---         MODULE    ---      ---       SEEKFREE_CONFIG
      00FF00A6H   PUBLIC    CODE     ---       imu660ra_config_file

      ---         MODULE    ---      ---       ?C?FPADD
      00FF2EB4H   PUBLIC    CODE     ---       ?C?FPADD
      00FF2EB1H   PUBLIC    CODE     ---       ?C?FPSUB

      ---         MODULE    ---      ---       ?C?FPMUL
      00FF2F6CH   PUBLIC    CODE     ---       ?C?FPMUL

      ---         MODULE    ---      ---       ?C?FPDIV
      00FF300CH   PUBLIC    CODE     ---       ?C?FPDIV

      ---         MODULE    ---      ---       ?C?FPCMP
      00FF308FH   PUBLIC    CODE     ---       ?C?FPCMP
      00FF308DH   PUBLIC    CODE     ---       ?C?FPCMP3

      ---         MODULE    ---      ---       ?C?FPNEG
      00FF30D3H   PUBLIC    CODE     ---       ?C?FPNEG

      ---         MODULE    ---      ---       ?C?FCAST
      00FF30EBH   PUBLIC    CODE     NEAR LAB  ?C?FCASTC
      00FF30E6H   PUBLIC    CODE     NEAR LAB  ?C?FCASTI
      00FF30E1H   PUBLIC    CODE     NEAR LAB  ?C?FCASTL

      ---         MODULE    ---      ---       ?C?CASTF
      00FF311EH   PUBLIC    CODE     NEAR LAB  ?C?CASTF

      ---         MODULE    ---      ---       PRINTF
      00000902H   PUBLIC    EDATA    ---       ?PRINTF?BYTE
      00FF315BH   PUBLIC    CODE     NEAR LAB  PRINTF

      ---         MODULE    ---      ---       ?C?FPGETOPN
      00FF3187H   PUBLIC    CODE     ---       ?C?FPGETOPN2
      00FF31C4H   PUBLIC    CODE     ---       ?C?FPNANRESULT
      00FF31CCH   PUBLIC    CODE     ---       ?C?FPOVERFLOW
      00FF31A0H   PUBLIC    CODE     ---       ?C?FPRESULT
      00FF31B6H   PUBLIC    CODE     ---       ?C?FPRESULT2
      00FF31C9H   PUBLIC    CODE     ---       ?C?FPUNDERFLOW

      ---         MODULE    ---      ---       ?C?PRNFMT
      00FF3205H   PUBLIC    CODE     ---       ?C?PRNFMT

      ---         MODULE    ---      ---       ?C?FPCONVERT
      00FF3622H   PUBLIC    CODE     ---       ?C?FPCONVERT
      00FF36DAH   PUBLIC    CODE     ---       ?C?FPROUND

      ---         MODULE    ---      ---       ?C?FTNPWR
      00FF374DH   PUBLIC    CODE     ---       ?C?FTNPWR

      ---         MODULE    ---      ---       ?C_START
      00FF0000H   PUBLIC    CODE     ---       ?C?STARTUP
      00FF0000H   PUBLIC    CODE     ---       ?C_STARTUP

      ---         MODULE    ---      ---       ?C?INITEDATA
      00FF6906H   PUBLIC    CODE     ---       ?C?INITEDATA

      ---         MODULE    ---      ---       ?C?SIDIV
      00FF3784H   PUBLIC    CODE     ---       ?C?SIDIV

      ---         MODULE    ---      ---       ?C?LMUL
      00FF37B6H   PUBLIC    CODE     ---       ?C?LMUL

      ---         MODULE    ---      ---       ?C?LIMUL
      00FF37C7H   PUBLIC    CODE     ---       ?C?LIMUL
L251 LINKER/LOCATER V4.66.93.0                                                        11/25/2023  21:38:42  PAGE 96



      ---         MODULE    ---      ---       ?C?ULDIV
      00FF37D2H   PUBLIC    CODE     NEAR LAB  ?C?ULDIV
      00FF37D0H   PUBLIC    CODE     NEAR LAB  ?C?ULIDIV

      ---         MODULE    ---      ---       ?C?SLDIV
      00FF3823H   PUBLIC    CODE     NEAR LAB  ?C?SLDIV

      ---         MODULE    ---      ---       memcpy
      00FF6A73H   PUBLIC    CODE     ---       memcpy?_

      ---         MODULE    ---      ---       memset

      ---         MODULE    ---      ---       ?C?INITEDATA_END
      00FE00E9H   PUBLIC    HCONST   WORD      ?C?INITEDATA_END

Program Size: data=8.0 edata+hdata=4030 xdata=29 const=539 code=27642
L251 RUN COMPLETE.  0 WARNING(S),  0 ERROR(S)
