L251 LINKER/LOCATER V4.66.93.0                                                          07/17/2023  20:23:02  PAGE 1


L251 LINKER/LOCATER V4.66.93.0, INVOKED BY:
E:\KEIL5\C251\BIN\L251.EXE .\Out_File\board.obj, .\Out_File\common.obj, .\Out_File\zf_adc.obj, .\Out_File\zf_delay.obj, 
>> .\Out_File\zf_eeprom.obj, .\Out_File\zf_exti.obj, .\Out_File\zf_gpio.obj, .\Out_File\zf_iic.obj, .\Out_File\zf_nvic.o
>> bj, .\Out_File\zf_pwm.obj, .\Out_File\zf_spi.obj, .\Out_File\zf_tim.obj, .\Out_File\zf_uart.obj, .\Out_File\zf_fifo.o
>> bj, .\Out_File\SEEKFREE_18TFT.obj, .\Out_File\SEEKFREE_ABSOLUTE_ENCODER.obj, .\Out_File\SEEKFREE_AT24C02.obj, .\Out_F
>> ile\SEEKFREE_BLUETOOTH_CH9141.obj, ..\..\Libraries\seekfree_peripheral\SEEKFREE_CONFIG.LIB, .\Out_File\SEEKFREE_DL1A.
>> obj, .\Out_File\SEEKFREE_FONT.obj, .\Out_File\SEEKFREE_ICM20602.obj, .\Out_File\SEEKFREE_IPS114_SPI.obj, .\Out_File\S
>> EEKFREE_MPU6050.obj, .\Out_File\SEEKFREE_OLED.obj, .\Out_File\SEEKFREE_PRINTF.obj, .\Out_File\SEEKFREE_TSL1401.obj, .
>> \Out_File\SEEKFREE_VIRSCO.obj, .\Out_File\SEEKFREE_WIRELESS.obj, .\Out_File\SEEKFREE_WIRELESS_CH573.obj, .\Out_File\S
>> EEKFREE_IMU660RA.obj, .\Out_File\isr.obj, .\Out_File\main.obj, .\Out_File\all_init.obj, .\Out_File\bal.obj, .\Out_Fil
>> e\electronic.obj, .\Out_File\element.obj, .\Out_File\LQ_PID.obj, .\Out_File\motor.obj TO .\Out_File\SEEKFREE PRINT (.
>> \Out_File\SEEKFREE.map) CASE DISABLEWARNING (16, 57) REMOVEUNUSED CLASSES (EDATA (0X0-0XFFF), HDATA (0X0-0XFFF), HCON
>> ST (0XFE0000-0XFFFFFF), ECODE (0XFE0000-0XFFFFFF))


CPU MODE:     251 SOURCE MODE
INTR FRAME:   2 BYTES SAVED ON INTERRUPT
MEMORY MODEL: XSMALL WITH FLOATING POINT ARITHMETIC


INPUT MODULES INCLUDED:
  .\Out_File\board.obj (board)
         COMMENT TYPE 0: C251 V5.60.0
  .\Out_File\common.obj (common)
         COMMENT TYPE 0: C251 V5.60.0
  .\Out_File\zf_adc.obj (zf_adc)
         COMMENT TYPE 0: C251 V5.60.0
  .\Out_File\zf_delay.obj (zf_delay)
         COMMENT TYPE 0: C251 V5.60.0
  .\Out_File\zf_eeprom.obj (zf_eeprom)
         COMMENT TYPE 0: C251 V5.60.0
  .\Out_File\zf_exti.obj (zf_exti)
         COMMENT TYPE 0: C251 V5.60.0
  .\Out_File\zf_gpio.obj (zf_gpio)
         COMMENT TYPE 0: C251 V5.60.0
  .\Out_File\zf_iic.obj (zf_iic)
         COMMENT TYPE 0: C251 V5.60.0
  .\Out_File\zf_nvic.obj (zf_nvic)
         COMMENT TYPE 0: C251 V5.60.0
  .\Out_File\zf_pwm.obj (zf_pwm)
         COMMENT TYPE 0: C251 V5.60.0
  .\Out_File\zf_spi.obj (zf_spi)
         COMMENT TYPE 0: C251 V5.60.0
  .\Out_File\zf_tim.obj (zf_tim)
         COMMENT TYPE 0: C251 V5.60.0
  .\Out_File\zf_uart.obj (zf_uart)
         COMMENT TYPE 0: C251 V5.60.0
  .\Out_File\zf_fifo.obj (zf_fifo)
         COMMENT TYPE 0: C251 V5.60.0
  .\Out_File\SEEKFREE_18TFT.obj (SEEKFREE_18TFT)
         COMMENT TYPE 0: C251 V5.60.0
  .\Out_File\SEEKFREE_ABSOLUTE_ENCODER.obj (SEEKFREE_ABSOLUTE_ENCODER)
         COMMENT TYPE 0: C251 V5.60.0
  .\Out_File\SEEKFREE_AT24C02.obj (SEEKFREE_AT24C02)
         COMMENT TYPE 0: C251 V5.60.0
  .\Out_File\SEEKFREE_BLUETOOTH_CH9141.obj (SEEKFREE_BLUETOOTH_CH9141)
         COMMENT TYPE 0: C251 V5.60.0
  .\Out_File\SEEKFREE_DL1A.obj (SEEKFREE_DL1A)
         COMMENT TYPE 0: C251 V5.60.0
  .\Out_File\SEEKFREE_FONT.obj (SEEKFREE_FONT)
         COMMENT TYPE 0: C251 V5.60.0
  .\Out_File\SEEKFREE_ICM20602.obj (SEEKFREE_ICM20602)
         COMMENT TYPE 0: C251 V5.60.0
  .\Out_File\SEEKFREE_IPS114_SPI.obj (SEEKFREE_IPS114_SPI)
         COMMENT TYPE 0: C251 V5.60.0
  .\Out_File\SEEKFREE_MPU6050.obj (SEEKFREE_MPU6050)
L251 LINKER/LOCATER V4.66.93.0                                                        07/17/2023  20:23:02  PAGE 2


         COMMENT TYPE 0: C251 V5.60.0
  .\Out_File\SEEKFREE_OLED.obj (SEEKFREE_OLED)
         COMMENT TYPE 0: C251 V5.60.0
  .\Out_File\SEEKFREE_PRINTF.obj (SEEKFREE_PRINTF)
         COMMENT TYPE 0: C251 V5.60.0
  .\Out_File\SEEKFREE_TSL1401.obj (SEEKFREE_TSL1401)
         COMMENT TYPE 0: C251 V5.60.0
  .\Out_File\SEEKFREE_VIRSCO.obj (SEEKFREE_VIRSCO)
         COMMENT TYPE 0: C251 V5.60.0
  .\Out_File\SEEKFREE_WIRELESS.obj (SEEKFREE_WIRELESS)
         COMMENT TYPE 0: C251 V5.60.0
  .\Out_File\SEEKFREE_WIRELESS_CH573.obj (SEEKFREE_WIRELESS_CH573)
         COMMENT TYPE 0: C251 V5.60.0
  .\Out_File\SEEKFREE_IMU660RA.obj (SEEKFREE_IMU660RA)
         COMMENT TYPE 0: C251 V5.60.0
  .\Out_File\isr.obj (isr)
         COMMENT TYPE 0: C251 V5.60.0
  .\Out_File\main.obj (main)
         COMMENT TYPE 0: C251 V5.60.0
  .\Out_File\all_init.obj (all_init)
         COMMENT TYPE 0: C251 V5.60.0
  .\Out_File\bal.obj (bal)
         COMMENT TYPE 0: C251 V5.60.0
  .\Out_File\electronic.obj (electronic)
         COMMENT TYPE 0: C251 V5.60.0
  .\Out_File\element.obj (element)
         COMMENT TYPE 0: C251 V5.60.0
  .\Out_File\LQ_PID.obj (LQ_PID)
         COMMENT TYPE 0: C251 V5.60.0
  .\Out_File\motor.obj (motor)
         COMMENT TYPE 0: C251 V5.60.0
  ..\..\Libraries\seekfree_peripheral\SEEKFREE_CONFIG.LIB (SEEKFREE_CONFIG)
         COMMENT TYPE 0: C251 V5.60.0
  E:\KEIL5\C251\LIB\C2SFPXS.LIB (?C?FPADD)
         COMMENT TYPE 0: A251 V4.69.6.0
  E:\KEIL5\C251\LIB\C2SFPXS.LIB (?C?FPMUL)
         COMMENT TYPE 0: A251 V4.69.6.0
  E:\KEIL5\C251\LIB\C2SFPXS.LIB (?C?FPDIV)
         COMMENT TYPE 0: A251 V4.69.6.0
  E:\KEIL5\C251\LIB\C2SFPXS.LIB (?C?FPCMP)
         COMMENT TYPE 0: A251 V4.69.6.0
  E:\KEIL5\C251\LIB\C2SFPXS.LIB (?C?FPNEG)
         COMMENT TYPE 0: A251 V4.69.6.0
  E:\KEIL5\C251\LIB\C2SFPXS.LIB (?C?FCAST)
         COMMENT TYPE 0: A251 V4.69.6.0
  E:\KEIL5\C251\LIB\C2SFPXS.LIB (?C?CASTF)
         COMMENT TYPE 0: A251 V4.69.6.0
  E:\KEIL5\C251\LIB\C2SFPXS.LIB (PRINTF)
         COMMENT TYPE 0: A251 V4.69.6.0
  E:\KEIL5\C251\LIB\C2SFPXS.LIB (FABS)
         COMMENT TYPE 0: A251 V4.69.6.0
  E:\KEIL5\C251\LIB\C2SFPXS.LIB (?C?FPGETOPN)
         COMMENT TYPE 0: A251 V4.69.6.0
  E:\KEIL5\C251\LIB\C2SFPXS.LIB (?C?PRNFMT)
         COMMENT TYPE 0: A251 V4.69.6.0
  E:\KEIL5\C251\LIB\C2SFPXS.LIB (?C?FPCONVERT)
         COMMENT TYPE 0: A251 V4.69.6.0
  E:\KEIL5\C251\LIB\C2SFPXS.LIB (?C?FTNPWR)
         COMMENT TYPE 0: A251 V4.69.6.0
  E:\KEIL5\C251\LIB\C2SXS.LIB (?C_START)
         COMMENT TYPE 0: A251 V4.69.6.0
  E:\KEIL5\C251\LIB\C2SXS.LIB (?C?INITEDATA)
         COMMENT TYPE 0: A251 V4.69.6.0
  E:\KEIL5\C251\LIB\C2SXS.LIB (?C?SIDIV)
         COMMENT TYPE 0: A251 V4.69.6.0
L251 LINKER/LOCATER V4.66.93.0                                                        07/17/2023  20:23:02  PAGE 3


  E:\KEIL5\C251\LIB\C2SXS.LIB (?C?LMUL)
         COMMENT TYPE 0: A251 V4.69.6.0
  E:\KEIL5\C251\LIB\C2SXS.LIB (?C?LIMUL)
         COMMENT TYPE 0: A251 V4.69.6.0
  E:\KEIL5\C251\LIB\C2SXS.LIB (?C?ULDIV)
         COMMENT TYPE 0: A251 V4.69.6.0
  E:\KEIL5\C251\LIB\C2SXS.LIB (?C?SLDIV)
         COMMENT TYPE 0: A251 V4.69.6.0
  E:\KEIL5\C251\LIB\C2SXS.LIB (memcpy)
         COMMENT TYPE 0: C251 V5.58.7
  E:\KEIL5\C251\LIB\C2SXS.LIB (memset)
         COMMENT TYPE 0: C251 V5.58.7
  E:\KEIL5\C251\LIB\C2SXS.LIB (?C?INITEDATA_END)
         COMMENT TYPE 0: A251 V4.69.6.0


ACTIVE MEMORY CLASSES OF MODULE:  .\Out_File\SEEKFREE (board)

BASE        START       END         USED      MEMORY CLASS
==========================================================
000000H     000000H     000FFFH     000FC6H   EDATA
000000H     000000H     000FFFH               HDATA
000000H     FE0000H     FFFFFFH     0002BFH   HCONST
000000H     FE0000H     FFFFFFH               ECODE
FF0000H     FF0000H     FFFFFFH     007AFEH   CODE
010000H     010000H     01FFFFH     00001DH   XDATA
000020H.0   000020H.0   00002FH.7   000000H.2 BIT
FF0000H     FF0000H     FFFFFFH     000004H   CONST
000000H     000000H     00007FH     000008H   DATA


MEMORY MAP OF MODULE:  .\Out_File\SEEKFREE (board)


START     STOP      LENGTH    ALIGN  RELOC    MEMORY CLASS   SEGMENT NAME
=========================================================================
000000H   000007H   000008H   ---    AT..     DATA           "REG BANK 0"
000008H   00001CH   000015H   BYTE   UNIT     EDATA          ?ED?DL1A_INIT?SEEKFREE_DL1A
00001DH   00001FH   000003H   BYTE   UNIT     EDATA          ?ED?IIC_DELAY_US?ZF_IIC
000020H.0 000020H.1 000000H.2 BIT    UNIT     BIT            ?BI?ELEMENT
000020H.2 000020H   000000H.6 ---    ---      **GAP**
000021H   00022AH   00020AH   BYTE   UNIT     EDATA          ?ED?EXTERN_IAP_WRITE_BYTES?ZF_EEPROM
00022BH   00032BH   000101H   BYTE   UNIT     EDATA          ?ED?SEEKFREE_TSL1401
00032CH   000403H   0000D8H   BYTE   UNIT     EDATA          ?ED?BAL
000404H   0004D0H   0000CDH   BYTE   UNIT     EDATA          ?ED?ZF_UART
0004D1H   000555H   000085H   BYTE   UNIT     EDATA          ?ED?ELECTRONIC
000556H   0005B4H   00005FH   BYTE   UNIT     EDATA          ?ED?ZF_SPRINTF?SEEKFREE_PRINTF
0005B5H   000609H   000055H   BYTE   UNIT     EDATA          ?ED?SEEKFREE_BLUETOOTH_CH9141
00060AH   00065EH   000055H   BYTE   UNIT     EDATA          ?ED?SEEKFREE_WIRELESS
00065FH   0006B3H   000055H   BYTE   UNIT     EDATA          ?ED?SEEKFREE_WIRELESS_CH573
0006B4H   0006E3H   000030H   BYTE   UNIT     EDATA          ?ED?LCD_SHOWFLOAT_SIMSPI?SEEKFREE_18TFT
0006E4H   000713H   000030H   BYTE   UNIT     EDATA          ?ED?LCD_SHOWFLOAT?SEEKFREE_18TFT
000714H   000743H   000030H   BYTE   UNIT     EDATA          ?ED?IPS114_SHOWFLOAT_SIMSPI?SEEKFREE_IPS114_SPI
000744H   000773H   000030H   BYTE   UNIT     EDATA          ?ED?IPS114_SHOWFLOAT?SEEKFREE_IPS114_SPI
000774H   0007A3H   000030H   BYTE   UNIT     EDATA          ?ED?OLED_PRINTF_FLOAT?SEEKFREE_OLED
0007A4H   0007D3H   000030H   BYTE   UNIT     EDATA          ?ED?OLED_PRINTF_FLOAT_SPI?SEEKFREE_OLED
0007D4H   000802H   00002FH   BYTE   UNIT     EDATA          ?ED?DL1A_SET_MEASUREMENT_TIMING_BUDGET?SEEKFREE_DL1A
000803H   00082EH   00002CH   BYTE   UNIT     EDATA          ?ED?LCD_SHOWINT32_SIMSPI?SEEKFREE_18TFT
00082FH   00085AH   00002CH   BYTE   UNIT     EDATA          ?ED?LCD_SHOWINT32?SEEKFREE_18TFT
00085BH   000886H   00002CH   BYTE   UNIT     EDATA          ?ED?IPS114_SHOWINT32_SIMSPI?SEEKFREE_IPS114_SPI
000887H   0008B2H   00002CH   BYTE   UNIT     EDATA          ?ED?IPS114_SHOWINT32?SEEKFREE_IPS114_SPI
0008B3H   0008DEH   00002CH   BYTE   UNIT     EDATA          ?ED?OLED_PRINTF_INT32?SEEKFREE_OLED
0008DFH   00090AH   00002CH   BYTE   UNIT     EDATA          ?ED?OLED_PRINTF_INT32_SPI?SEEKFREE_OLED
00090BH   000929H   00001FH   BYTE   UNIT     EDATA          ?ED?DL1A_GET_MEASUREMENT_TIMING_BUDGET?SEEKFREE_DL1A
00092AH   000942H   000019H   BYTE   UNIT     EDATA          ?ED?ELEMENT
L251 LINKER/LOCATER V4.66.93.0                                                        07/17/2023  20:23:02  PAGE 4


000943H   000956H   000014H   BYTE   UNIT     EDATA          ?ED?PWM_INIT?ZF_PWM
000957H   00096AH   000014H   BYTE   UNIT     EDATA          ?ED?PWM_FREQ?ZF_PWM
00096BH   00097EH   000014H   BYTE   UNIT     EDATA          ?ED?NUMBER_CONVERSION_ASCII?SEEKFREE_PRINTF
00097FH   000991H   000013H   BYTE   UNIT     EDATA          ?ED?FIFO_READ_BUFFER?ZF_FIFO
000992H   0009A3H   000012H   BYTE   UNIT     EDATA          ?ED?OLED_DIS_BMP?SEEKFREE_OLED
0009A4H   0009B5H   000012H   BYTE   UNIT     EDATA          ?ED?OLED_DIS_BMP_SPI?SEEKFREE_OLED
0009B6H   0009C5H   000010H   BYTE   UNIT     EDATA          ?ED?FIFO_WRITE_BUFFER?ZF_FIFO
0009C6H   0009D3H   00000EH   BYTE   UNIT     EDATA          ?ED?PWM_DUTY?ZF_PWM
0009D4H   0009E1H   00000EH   BYTE   UNIT     EDATA          ?ED?UART_INIT?ZF_UART
0009E2H   0009EFH   00000EH   BYTE   UNIT     EDATA          ?ED?OLED_PRINT_CHINESE?SEEKFREE_OLED
0009F0H   0009FDH   00000EH   BYTE   UNIT     EDATA          ?ED?OLED_PRINT_CHINESE_SPI?SEEKFREE_OLED
0009FEH   000A0BH   00000EH   BYTE   UNIT     EDATA          ?ED?DATA_CONVERSION?SEEKFREE_VIRSCO
000A0CH   000A18H   00000DH   BYTE   UNIT     EDATA          ?ED?ICM20602_SIMSPI_R_REG_BYTES?SEEKFREE_ICM20602
000A19H   000A25H   00000DH   BYTE   UNIT     EDATA          ?ED?PRINTF_REVERSE_ORDER?SEEKFREE_PRINTF
000A26H   000A31H   00000CH   BYTE   UNIT     EDATA          ?ED?FIFO_INIT?ZF_FIFO
000A32H   000A3DH   00000CH   BYTE   UNIT     EDATA          ?ED?LCD_SHOWINT16_SIMSPI?SEEKFREE_18TFT
000A3EH   000A49H   00000CH   BYTE   UNIT     EDATA          ?ED?LCD_SHOWUINT16_SIMSPI?SEEKFREE_18TFT
000A4AH   000A55H   00000CH   BYTE   UNIT     EDATA          ?ED?LCD_SHOWINT16?SEEKFREE_18TFT
000A56H   000A61H   00000CH   BYTE   UNIT     EDATA          ?ED?LCD_SHOWUINT16?SEEKFREE_18TFT
000A62H   000A6DH   00000CH   BYTE   UNIT     EDATA          ?ED?SHOWIMAGE?SEEKFREE_18TFT
000A6EH   000A79H   00000CH   BYTE   UNIT     EDATA          ?ED?BLUETOOTH_CH9141_READ_BUFF?SEEKFREE_BLUETOOTH_CH9141
000A7AH   000A85H   00000CH   BYTE   UNIT     EDATA          ?ED?DL1A_GET_SPAD_INFO?SEEKFREE_DL1A
000A86H   000A91H   00000CH   BYTE   UNIT     EDATA          ?ED?DL1A_GET_SEQUENCE_STEP_TIMEOUTS?SEEKFREE_DL1A
000A92H   000A9DH   00000CH   BYTE   UNIT     EDATA          ?ED?SEEKFREE_ICM20602
000A9EH   000AA9H   00000CH   BYTE   UNIT     EDATA          ?ED?IPS114_SHOWINT16_SIMSPI?SEEKFREE_IPS114_SPI
000AAAH   000AB5H   00000CH   BYTE   UNIT     EDATA          ?ED?IPS114_SHOWUINT16_SIMSPI?SEEKFREE_IPS114_SPI
000AB6H   000AC1H   00000CH   BYTE   UNIT     EDATA          ?ED?IPS114_SHOWINT16?SEEKFREE_IPS114_SPI
000AC2H   000ACDH   00000CH   BYTE   UNIT     EDATA          ?ED?IPS114_SHOWUINT16?SEEKFREE_IPS114_SPI
000ACEH   000AD9H   00000CH   BYTE   UNIT     EDATA          ?ED?SEEKFREE_MPU6050
000ADAH   000AE5H   00000CH   BYTE   UNIT     EDATA          ?ED?WIRELESS_UART_READ_BUFF?SEEKFREE_WIRELESS
000AE6H   000AF1H   00000CH   BYTE   UNIT     EDATA          ?ED?WIRELESS_CH573_READ_BUFF?SEEKFREE_WIRELESS_CH573
000AF2H   000AFDH   00000CH   BYTE   UNIT     EDATA          ?ED?SEEKFREE_IMU660RA
000AFEH   000B09H   00000CH   BYTE   UNIT     EDATA          ?ED?CONSTRAIN_FLOAT?LQ_PID
000B0AH   000B14H   00000BH   BYTE   UNIT     EDATA          ?ED?OLED_UINT16?SEEKFREE_OLED
000B15H   000B1FH   00000BH   BYTE   UNIT     EDATA          ?ED?OLED_INT16?SEEKFREE_OLED
000B20H   000B2AH   00000BH   BYTE   UNIT     EDATA          ?ED?OLED_UINT16_SPI?SEEKFREE_OLED
000B2BH   000B35H   00000BH   BYTE   UNIT     EDATA          ?ED?OLED_INT16_SPI?SEEKFREE_OLED
000B36H   000B3FH   00000AH   BYTE   UNIT     EDATA          ?ED?LCD_SHOWSTR_SIMSPI?SEEKFREE_18TFT
000B40H   000B49H   00000AH   BYTE   UNIT     EDATA          ?ED?LCD_SHOWSTR?SEEKFREE_18TFT
000B4AH   000B53H   00000AH   BYTE   UNIT     EDATA          ?ED?BLUETOOTH_CH9141_SEND_BUFF?SEEKFREE_BLUETOOTH_CH9141
000B54H   000B5DH   00000AH   BYTE   UNIT     EDATA          ?ED?DL1A_SIMIIC_READ_REGS?SEEKFREE_DL1A
000B5EH   000B67H   00000AH   BYTE   UNIT     EDATA          ?ED?DL1A_SIMIIC_READ_REGS_1?SEEKFREE_DL1A
000B68H   000B71H   00000AH   BYTE   UNIT     EDATA          ?ED?DL1A_ENCODE_TIMEOUT?SEEKFREE_DL1A
000B72H   000B7BH   00000AH   BYTE   UNIT     EDATA          ?ED?IPS114_SHOWSTR_SIMSPI?SEEKFREE_IPS114_SPI
000B7CH   000B85H   00000AH   BYTE   UNIT     EDATA          ?ED?IPS114_SHOWSTR?SEEKFREE_IPS114_SPI
000B86H   000B8FH   00000AH   BYTE   UNIT     EDATA          ?ED?SEEKFREE_VIRSCO
000B90H   000B98H   000009H   BYTE   UNIT     EDATA          ?ED?LCD_SHOWINT8_SIMSPI?SEEKFREE_18TFT
000B99H   000BA1H   000009H   BYTE   UNIT     EDATA          ?ED?LCD_SHOWUINT8_SIMSPI?SEEKFREE_18TFT
000BA2H   000BAAH   000009H   BYTE   UNIT     EDATA          ?ED?LCD_SHOWINT8?SEEKFREE_18TFT
000BABH   000BB3H   000009H   BYTE   UNIT     EDATA          ?ED?LCD_SHOWUINT8?SEEKFREE_18TFT
000BB4H   000BBCH   000009H   BYTE   UNIT     EDATA          ?ED?DL1A_SIMIIC_WRITE_DATS?SEEKFREE_DL1A
000BBDH   000BC5H   000009H   BYTE   UNIT     EDATA          ?ED?DL1A_TIMEOUT_MICROSECONDS_TO_MCLKS?SEEKFREE_DL1A
000BC6H   000BCEH   000009H   BYTE   UNIT     EDATA          ?ED?DL1A_SET_SIGNAL_RATE_LIMIT?SEEKFREE_DL1A
000BCFH   000BD7H   000009H   BYTE   UNIT     EDATA          ?ED?ICM20602_READ_REGISTERS?SEEKFREE_ICM20602
000BD8H   000BE0H   000009H   BYTE   UNIT     EDATA          ?ED?IPS114_SHOWINT8_SIMSPI?SEEKFREE_IPS114_SPI
000BE1H   000BE9H   000009H   BYTE   UNIT     EDATA          ?ED?IPS114_SHOWUINT8_SIMSPI?SEEKFREE_IPS114_SPI
000BEAH   000BF2H   000009H   BYTE   UNIT     EDATA          ?ED?IPS114_SHOWINT8?SEEKFREE_IPS114_SPI
000BF3H   000BFBH   000009H   BYTE   UNIT     EDATA          ?ED?IPS114_SHOWUINT8?SEEKFREE_IPS114_SPI
000BFCH   000C04H   000009H   BYTE   UNIT     EDATA          ?ED?OLED_P6X8STR?SEEKFREE_OLED
000C05H   000C0DH   000009H   BYTE   UNIT     EDATA          ?ED?OLED_P8X16STR?SEEKFREE_OLED
000C0EH   000C16H   000009H   BYTE   UNIT     EDATA          ?ED?OLED_P6X8STR_SPI?SEEKFREE_OLED
000C17H   000C1FH   000009H   BYTE   UNIT     EDATA          ?ED?OLED_P8X16STR_SPI?SEEKFREE_OLED
000C20H   000C28H   000009H   BYTE   UNIT     EDATA          ?ED?CRC_CHECK?SEEKFREE_VIRSCO
000C29H   000C31H   000009H   BYTE   UNIT     EDATA          ?ED?IMU660RA_SIMSPI_W_REG_BYTES?SEEKFREE_IMU660RA
000C32H   000C3AH   000009H   BYTE   UNIT     EDATA          ?ED?IMU660RA_SIMSPI_R_REG_BYTES?SEEKFREE_IMU660RA
L251 LINKER/LOCATER V4.66.93.0                                                        07/17/2023  20:23:02  PAGE 5


000C3BH   000C43H   000009H   BYTE   UNIT     EDATA          ?ED?IMU660RA_WRITE_REGISTERS?SEEKFREE_IMU660RA
000C44H   000C4CH   000009H   BYTE   UNIT     EDATA          ?ED?IMU660RA_READ_REGISTERS?SEEKFREE_IMU660RA
000C4DH   000C54H   000008H   BYTE   UNIT     EDATA          ?ED?IAP_READ_BYTES?ZF_EEPROM
000C55H   000C5CH   000008H   BYTE   UNIT     EDATA          ?ED?IAP_WRITE_BYTES?ZF_EEPROM
000C5DH   000C64H   000008H   BYTE   UNIT     EDATA          ?ED?UART_PUTBUFF?ZF_UART
000C65H   000C6CH   000008H   BYTE   UNIT     EDATA          ?ED?FIFO_HEAD_OFFSET?ZF_FIFO
000C6DH   000C74H   000008H   BYTE   UNIT     EDATA          ?ED?FIFO_END_OFFSET?ZF_FIFO
000C75H   000C7CH   000008H   BYTE   UNIT     EDATA          ?ED?LCD_SET_REGION_SIMSPI?SEEKFREE_18TFT
000C7DH   000C84H   000008H   BYTE   UNIT     EDATA          ?ED?LCD_SHOWCHAR_SIMSPI?SEEKFREE_18TFT
000C85H   000C8CH   000008H   BYTE   UNIT     EDATA          ?ED?LCD_SET_REGION?SEEKFREE_18TFT
000C8DH   000C94H   000008H   BYTE   UNIT     EDATA          ?ED?LCD_SHOWCHAR?SEEKFREE_18TFT
000C95H   000C9CH   000008H   BYTE   UNIT     EDATA          ?ED?IPS114_SET_REGION_SIMSPI?SEEKFREE_IPS114_SPI
000C9DH   000CA4H   000008H   BYTE   UNIT     EDATA          ?ED?IPS114_SHOWCHAR_SIMSPI?SEEKFREE_IPS114_SPI
000CA5H   000CACH   000008H   BYTE   UNIT     EDATA          ?ED?IPS114_SET_REGION?SEEKFREE_IPS114_SPI
000CADH   000CB4H   000008H   BYTE   UNIT     EDATA          ?ED?IPS114_SHOWCHAR?SEEKFREE_IPS114_SPI
000CB5H   000CBCH   000008H   BYTE   UNIT     EDATA          ?ED?OLED_HEXASCII?SEEKFREE_OLED
000CBDH   000CC4H   000008H   BYTE   UNIT     EDATA          ?ED?OLED_HEXASCII_SPI?SEEKFREE_OLED
000CC5H   000CCCH   000008H   BYTE   UNIT     EDATA          ?ED?ADC_MEAN_FILTER_CONVERT?ELECTRONIC
000CCDH   000CD4H   000008H   BYTE   UNIT     EDATA          ?ED?PIDLOCCTRL?LQ_PID
000CD5H   000CDCH   000008H   BYTE   UNIT     EDATA          ?ED?PIDINCCTRL?LQ_PID
000CDDH   000CE3H   000007H   BYTE   UNIT     EDATA          ?ED?IIC_READ_REG_BYTES?ZF_IIC
000CE4H   000CEAH   000007H   BYTE   UNIT     EDATA          ?ED?SPI_INIT?ZF_SPI
000CEBH   000CF1H   000007H   BYTE   UNIT     EDATA          ?ED?DL1A_TIMEOUT_MCLKS_TO_MICROSECONDS?SEEKFREE_DL1A
000CF2H   000CF8H   000007H   BYTE   UNIT     EDATA          ?ED?MPU6050_SIMIIC_READ_REGS?SEEKFREE_MPU6050
000CF9H   000CFFH   000007H   BYTE   UNIT     EDATA          ?ED?CCD_SEND_DATA?SEEKFREE_TSL1401
000D00H   000D06H   000007H   BYTE   UNIT     EDATA          ?ED?IMU660RA_GET_ACC?SEEKFREE_IMU660RA
000D07H   000D0DH   000007H   BYTE   UNIT     EDATA          ?ED?IMU660RA_GET_GYRO?SEEKFREE_IMU660RA
000D0EH   000D13H   000006H   BYTE   UNIT     EDATA          ?ED?ADC_ONCE?ZF_ADC
000D14H   000D19H   000006H   BYTE   UNIT     EDATA          ?ED?DELAY_US?ZF_DELAY
000D1AH   000D1FH   000006H   BYTE   UNIT     EDATA          ?ED?IIC_INIT?ZF_IIC
000D20H   000D25H   000006H   BYTE   UNIT     EDATA          ?ED?IIC_READ_REG?ZF_IIC
000D26H   000D2BH   000006H   BYTE   UNIT     EDATA          ?ED?PIT_TIMER_MS?ZF_TIM
000D2CH   000D31H   000006H   BYTE   UNIT     EDATA          ?ED?UART_PUTSTR?ZF_UART
000D32H   000D37H   000006H   BYTE   UNIT     EDATA          ?ED?LCD_DRAWPOINT_SIMSPI?SEEKFREE_18TFT
000D38H   000D3DH   000006H   BYTE   UNIT     EDATA          ?ED?LCD_DRAWPOINT?SEEKFREE_18TFT
000D3EH   000D43H   000006H   BYTE   UNIT     EDATA          ?ED?AT24C02_WRITE_BYTES?SEEKFREE_AT24C02
000D44H   000D49H   000006H   BYTE   UNIT     EDATA          ?ED?AT24C02_READ_BYTES?SEEKFREE_AT24C02
000D4AH   000D4FH   000006H   BYTE   UNIT     EDATA          ?ED?ICM20602_GET_ACC?SEEKFREE_ICM20602
000D50H   000D55H   000006H   BYTE   UNIT     EDATA          ?ED?ICM20602_GET_GYRO?SEEKFREE_ICM20602
000D56H   000D5BH   000006H   BYTE   UNIT     EDATA          ?ED?ICM20602_ACC_TRANSITION?SEEKFREE_ICM20602
000D5CH   000D61H   000006H   BYTE   UNIT     EDATA          ?ED?ICM20602_GYRO_TRANSITION?SEEKFREE_ICM20602
000D62H   000D67H   000006H   BYTE   UNIT     EDATA          ?ED?IPS114_CLEAR_SIMSPI?SEEKFREE_IPS114_SPI
000D68H   000D6DH   000006H   BYTE   UNIT     EDATA          ?ED?IPS114_DRAWPOINT_SIMSPI?SEEKFREE_IPS114_SPI
000D6EH   000D73H   000006H   BYTE   UNIT     EDATA          ?ED?IPS114_CLEAR?SEEKFREE_IPS114_SPI
000D74H   000D79H   000006H   BYTE   UNIT     EDATA          ?ED?IPS114_DRAWPOINT?SEEKFREE_IPS114_SPI
000D7AH   000D7FH   000006H   BYTE   UNIT     EDATA          ?ED?MPU6050_GET_ACCDATA?SEEKFREE_MPU6050
000D80H   000D85H   000006H   BYTE   UNIT     EDATA          ?ED?MPU6050_GET_GYRO?SEEKFREE_MPU6050
000D86H   000D8BH   000006H   BYTE   UNIT     EDATA          ?ED?WIRELESS_UART_SEND_BUFF?SEEKFREE_WIRELESS
000D8CH   000D91H   000006H   BYTE   UNIT     EDATA          ?ED?WIRELESS_CH573_SEND_BUFF?SEEKFREE_WIRELESS_CH573
000D92H   000D97H   000006H   BYTE   UNIT     EDATA          ?ED?IMU660RA_ACC_TRANSITION?SEEKFREE_IMU660RA
000D98H   000D9DH   000006H   BYTE   UNIT     EDATA          ?ED?IMU660RA_GYRO_TRANSITION?SEEKFREE_IMU660RA
000D9EH   000DA2H   000005H   BYTE   UNIT     EDATA          ?ED?SIMSPI_R_REG_BYTE?SEEKFREE_ABSOLUTE_ENCODER
000DA3H   000DA7H   000005H   BYTE   UNIT     EDATA          ?ED?ENCODER_SIMSPI_R_REG_BYTE?SEEKFREE_ABSOLUTE_ENCODER
000DA8H   000DACH   000005H   BYTE   UNIT     EDATA          ?ED?SPI_R_REG_BYTE?SEEKFREE_ABSOLUTE_ENCODER
000DADH   000DB1H   000005H   BYTE   UNIT     EDATA          ?ED?ENCODER_SPI_R_REG_BYTE?SEEKFREE_ABSOLUTE_ENCODER
000DB2H   000DB6H   000005H   BYTE   UNIT     EDATA          ?ED?DL1A_GET_SEQUENCE_STEP_ENABLES?SEEKFREE_DL1A
000DB7H   000DBBH   000005H   BYTE   UNIT     EDATA          ?ED?DL1A_PERFORM_SINGLE_REF_CALIBRATION?SEEKFREE_DL1A
000DBCH   000DC0H   000005H   BYTE   UNIT     EDATA          ?ED?ICM20602_SIMSPI_R_REG_BYTE?SEEKFREE_ICM20602
000DC1H   000DC5H   000005H   BYTE   UNIT     EDATA          ?ED?ISR
000DC6H   000DC9H   000004H   BYTE   UNIT     EDATA          ?ED?BOARD
000DCAH   000DCDH   000004H   BYTE   UNIT     EDATA          ?ED?ADC_INIT?ZF_ADC
000DCEH   000DD1H   000004H   BYTE   UNIT     EDATA          ?ED?ZF_DELAY
000DD2H   000DD5H   000004H   BYTE   UNIT     EDATA          ?ED?DELAY_MS?ZF_DELAY
000DD6H   000DD9H   000004H   BYTE   UNIT     EDATA          ?ED?EXIT_INIT?ZF_EXTI
000DDAH   000DDDH   000004H   BYTE   UNIT     EDATA          ?ED?GPIO_PULL_SET?ZF_GPIO
L251 LINKER/LOCATER V4.66.93.0                                                        07/17/2023  20:23:02  PAGE 6


000DDEH   000DE1H   000004H   BYTE   UNIT     EDATA          ?ED?GPIO_MODE?ZF_GPIO
000DE2H   000DE5H   000004H   BYTE   UNIT     EDATA          ?ED?CTIMER_COUNT_READ?ZF_TIM
000DE6H   000DE9H   000004H   BYTE   UNIT     EDATA          ?ED?FIFO_CLEAR?ZF_FIFO
000DEAH   000DEDH   000004H   BYTE   UNIT     EDATA          ?ED?FIFO_USED?ZF_FIFO
000DEEH   000DF1H   000004H   BYTE   UNIT     EDATA          ?ED?LCD_CLEAR_SIMSPI?SEEKFREE_18TFT
000DF2H   000DF5H   000004H   BYTE   UNIT     EDATA          ?ED?LCD_WRITEDATA_16BIT?SEEKFREE_18TFT
000DF6H   000DF9H   000004H   BYTE   UNIT     EDATA          ?ED?LCD_CLEAR?SEEKFREE_18TFT
000DFAH   000DFDH   000004H   BYTE   UNIT     EDATA          ?ED?ICM20602_SELF_CHECK?SEEKFREE_ICM20602
000DFEH   000E01H   000004H   BYTE   UNIT     EDATA          ?ED?ICM20602_INIT?SEEKFREE_ICM20602
000E02H   000E05H   000004H   BYTE   UNIT     EDATA          ?ED?IPS114_WRITEDATA_16BIT?SEEKFREE_IPS114_SPI
000E06H   000E09H   000004H   BYTE   UNIT     EDATA          ?ED?IMU660RA_SELF_CHECK?SEEKFREE_IMU660RA
000E0AH   000E0DH   000004H   BYTE   UNIT     EDATA          ?ED?ADC_FILTER?ELECTRONIC
000E0EH   000E11H   000004H   BYTE   UNIT     EDATA          ?ED?PIDINIT?LQ_PID
000E12H   000E15H   000004H   BYTE   UNIT     EDATA          ?ED?ENCODER_GET?MOTOR
000E16H   000E19H   000004H   BYTE   UNIT     EDATA          ?ED?MOTOR_SPEEDSET?MOTOR
000E1AH   000E1CH   000003H   BYTE   UNIT     EDATA          ?ED?WAIT?ZF_IIC
000E1DH   000E1FH   000003H   BYTE   UNIT     EDATA          ?ED?IIC_WRITE_REG?ZF_IIC
000E20H   000E22H   000003H   BYTE   UNIT     EDATA          ?ED?NVIC_SETPRIORITY?ZF_NVIC
000E23H   000E25H   000003H   BYTE   UNIT     EDATA          ?ED?UART_PUTCHAR?ZF_UART
000E26H   000E28H   000003H   BYTE   UNIT     EDATA          ?ED?LCD_WRITEDATA_16BIT_SIMSPI?SEEKFREE_18TFT
000E29H   000E2BH   000003H   BYTE   UNIT     EDATA          ?ED?ENCODER_SIMSPI_W_REG_BYTE?SEEKFREE_ABSOLUTE_ENCODER
000E2CH   000E2EH   000003H   BYTE   UNIT     EDATA          ?ED?ENCODER_SPI_W_REG_BYTE?SEEKFREE_ABSOLUTE_ENCODER
000E2FH   000E31H   000003H   BYTE   UNIT     EDATA          ?ED?AT24C02_READ_CH?SEEKFREE_AT24C02
000E32H   000E34H   000003H   BYTE   UNIT     EDATA          ?ED?AT24C02_SIMIIC_WRITE_REG?SEEKFREE_AT24C02
000E35H   000E37H   000003H   BYTE   UNIT     EDATA          ?ED?AT24C02_SIMIIC_READ_REG?SEEKFREE_AT24C02
000E38H   000E3AH   000003H   BYTE   UNIT     EDATA          ?ED?SEEKFREE_DL1A
000E3BH   000E3DH   000003H   BYTE   UNIT     EDATA          ?ED?DL1A_READ_CH?SEEKFREE_DL1A
000E3EH   000E40H   000003H   BYTE   UNIT     EDATA          ?ED?DL1A_SIMIIC_WRITE_REG?SEEKFREE_DL1A
000E41H   000E43H   000003H   BYTE   UNIT     EDATA          ?ED?DL1A_SIMIIC_READ_REG?SEEKFREE_DL1A
000E44H   000E46H   000003H   BYTE   UNIT     EDATA          ?ED?DL1A_GET_VCSEL_PULSE_PERIOD?SEEKFREE_DL1A
000E47H   000E49H   000003H   BYTE   UNIT     EDATA          ?ED?DL1A_GET_DISTANCE?SEEKFREE_DL1A
000E4AH   000E4CH   000003H   BYTE   UNIT     EDATA          ?ED?IPS114_WRITEDATAI_16BIT_SIMSPI?SEEKFREE_IPS114_SPI
000E4DH   000E4FH   000003H   BYTE   UNIT     EDATA          ?ED?MPU6050_READ_CH?SEEKFREE_MPU6050
000E50H   000E52H   000003H   BYTE   UNIT     EDATA          ?ED?MPU6050_SIMIIC_WRITE_REG?SEEKFREE_MPU6050
000E53H   000E55H   000003H   BYTE   UNIT     EDATA          ?ED?MPU6050_SIMIIC_READ_REG?SEEKFREE_MPU6050
000E56H   000E58H   000003H   BYTE   UNIT     EDATA          ?ED?OLED_FILL?SEEKFREE_OLED
000E59H   000E5BH   000003H   BYTE   UNIT     EDATA          ?ED?OLED_PUTPIXEL?SEEKFREE_OLED
000E5CH   000E5EH   000003H   BYTE   UNIT     EDATA          ?ED?OLED_FILL_SPI?SEEKFREE_OLED
000E5FH   000E61H   000003H   BYTE   UNIT     EDATA          ?ED?OLED_PUTPIXEL_SPI?SEEKFREE_OLED
000E62H   000E64H   000003H   BYTE   UNIT     EDATA          ?ED?IMU660RA_READ_REGISTER?SEEKFREE_IMU660RA
000E65H   000E66H   000002H   BYTE   UNIT     EDATA          ?ED?COMMON
000E67H   000E68H   000002H   BYTE   UNIT     EDATA          ?ED?IAP_ERASE_PAGE?ZF_EEPROM
000E69H   000E6AH   000002H   BYTE   UNIT     EDATA          ?ED?SEND_DATA?ZF_IIC
000E6BH   000E6CH   000002H   BYTE   UNIT     EDATA          ?ED?IIC_CHANGE_PIN?ZF_IIC
000E6DH   000E6EH   000002H   BYTE   UNIT     EDATA          ?ED?PWM_SET_GPIO?ZF_PWM
000E6FH   000E70H   000002H   BYTE   UNIT     EDATA          ?ED?SPI_CHANGE_PIN?ZF_SPI
000E71H   000E72H   000002H   BYTE   UNIT     EDATA          ?ED?CTIMER_COUNT_INIT?ZF_TIM
000E73H   000E74H   000002H   BYTE   UNIT     EDATA          ?ED?CTIMER_COUNT_CLEAN?ZF_TIM
000E75H   000E76H   000002H   BYTE   UNIT     EDATA          ?ED?LCD_WRITEINDEX_SIMSPI?SEEKFREE_18TFT
000E77H   000E78H   000002H   BYTE   UNIT     EDATA          ?ED?LCD_WRITEDATA_SIMSPI?SEEKFREE_18TFT
000E79H   000E7AH   000002H   BYTE   UNIT     EDATA          ?ED?ENCODER_DELAY_US?SEEKFREE_ABSOLUTE_ENCODER
000E7BH   000E7CH   000002H   BYTE   UNIT     EDATA          ?ED?SIMSPI_WR_BYTE?SEEKFREE_ABSOLUTE_ENCODER
000E7DH   000E7EH   000002H   BYTE   UNIT     EDATA          ?ED?SIMSPI_W_REG_BYTE?SEEKFREE_ABSOLUTE_ENCODER
000E7FH   000E80H   000002H   BYTE   UNIT     EDATA          ?ED?SET_ZERO_POSITION_SIMSPI?SEEKFREE_ABSOLUTE_ENCODER
000E81H   000E82H   000002H   BYTE   UNIT     EDATA          ?ED?ENCODER_ANGLE_SIMSPI?SEEKFREE_ABSOLUTE_ENCODER
000E83H   000E84H   000002H   BYTE   UNIT     EDATA          ?ED?SPI_W_REG_BYTE?SEEKFREE_ABSOLUTE_ENCODER
000E85H   000E86H   000002H   BYTE   UNIT     EDATA          ?ED?SET_ZERO_POSITION_SPI?SEEKFREE_ABSOLUTE_ENCODER
000E87H   000E88H   000002H   BYTE   UNIT     EDATA          ?ED?ENCODER_ANGLE_SPI?SEEKFREE_ABSOLUTE_ENCODER
000E89H   000E8AH   000002H   BYTE   UNIT     EDATA          ?ED?AT24C02_SIMIIC_DELAY?SEEKFREE_AT24C02
000E8BH   000E8CH   000002H   BYTE   UNIT     EDATA          ?ED?AT24C02_SEND_CH?SEEKFREE_AT24C02
000E8DH   000E8EH   000002H   BYTE   UNIT     EDATA          ?ED?AT24C02_WRITE_BYTE?SEEKFREE_AT24C02
000E8FH   000E90H   000002H   BYTE   UNIT     EDATA          ?ED?DL1A_SIMIIC_DELAY?SEEKFREE_DL1A
000E91H   000E92H   000002H   BYTE   UNIT     EDATA          ?ED?DL1A_SEND_CH?SEEKFREE_DL1A
000E93H   000E94H   000002H   BYTE   UNIT     EDATA          ?ED?DL1A_DECODE_TIMEOUT?SEEKFREE_DL1A
000E95H   000E96H   000002H   BYTE   UNIT     EDATA          ?ED?ICM20602_SIMSPI_WR_BYTE?SEEKFREE_ICM20602
L251 LINKER/LOCATER V4.66.93.0                                                        07/17/2023  20:23:02  PAGE 7


000E97H   000E98H   000002H   BYTE   UNIT     EDATA          ?ED?ICM20602_SIMSPI_W_REG_BYTE?SEEKFREE_ICM20602
000E99H   000E9AH   000002H   BYTE   UNIT     EDATA          ?ED?ICM20602_WRITE_REGISTER?SEEKFREE_ICM20602
000E9BH   000E9CH   000002H   BYTE   UNIT     EDATA          ?ED?ICM20602_READ_REGISTER?SEEKFREE_ICM20602
000E9DH   000E9EH   000002H   BYTE   UNIT     EDATA          ?ED?IPS114_WRITEINDEX_SIMSPI?SEEKFREE_IPS114_SPI
000E9FH   000EA0H   000002H   BYTE   UNIT     EDATA          ?ED?IPS114_WRITEDATA_SIMSPI?SEEKFREE_IPS114_SPI
000EA1H   000EA2H   000002H   BYTE   UNIT     EDATA          ?ED?MPU6050_SIMIIC_DELAY?SEEKFREE_MPU6050
000EA3H   000EA4H   000002H   BYTE   UNIT     EDATA          ?ED?MPU6050_SEND_CH?SEEKFREE_MPU6050
000EA5H   000EA6H   000002H   BYTE   UNIT     EDATA          ?ED?OLED_WRDAT?SEEKFREE_OLED
000EA7H   000EA8H   000002H   BYTE   UNIT     EDATA          ?ED?OLED_WRCMD?SEEKFREE_OLED
000EA9H   000EAAH   000002H   BYTE   UNIT     EDATA          ?ED?OLED_SET_POS?SEEKFREE_OLED
000EABH   000EACH   000002H   BYTE   UNIT     EDATA          ?ED?OLED_CLRPIXEL?SEEKFREE_OLED
000EADH   000EAEH   000002H   BYTE   UNIT     EDATA          ?ED?OLED_SET_POS_SPI?SEEKFREE_OLED
000EAFH   000EB0H   000002H   BYTE   UNIT     EDATA          ?ED?OLED_CLRPIXEL_SPI?SEEKFREE_OLED
000EB1H   000EB2H   000002H   BYTE   UNIT     EDATA          ?ED?IMU660RA_SIMSPI_WR_BYTE?SEEKFREE_IMU660RA
000EB3H   000EB4H   000002H   BYTE   UNIT     EDATA          ?ED?IMU660RA_SIMSPI_W_REG_BYTE?SEEKFREE_IMU660RA
000EB5H   000EB6H   000002H   BYTE   UNIT     EDATA          ?ED?IMU660RA_WRITE_REGISTER?SEEKFREE_IMU660RA
000EB7H   000EB7H   000001H   BYTE   UNIT     EDATA          ?ED?PUTCHAR?BOARD
000EB8H   000EB8H   000001H   BYTE   UNIT     EDATA          ?ED?IAP_SET_TPS?ZF_EEPROM
000EB9H   000EB9H   000001H   BYTE   UNIT     EDATA          ?ED?START?ZF_IIC
000EBAH   000EBAH   000001H   BYTE   UNIT     EDATA          ?ED?RECV_ACK?ZF_IIC
000EBBH   000EBBH   000001H   BYTE   UNIT     EDATA          ?ED?SEND_ACK?ZF_IIC
000EBCH   000EBCH   000001H   BYTE   UNIT     EDATA          ?ED?STOP?ZF_IIC
000EBDH   000EBDH   000001H   BYTE   UNIT     EDATA          ?ED?SPI_MOSI?ZF_SPI
000EBEH   000EBEH   000001H   BYTE   UNIT     EDATA          ?ED?SPI_CHANGE_MODE?ZF_SPI
000EBFH   000EBFH   000001H   BYTE   UNIT     EDATA          ?ED?LCD_WRITEINDEX?SEEKFREE_18TFT
000EC0H   000EC0H   000001H   BYTE   UNIT     EDATA          ?ED?LCD_WRITEDATA?SEEKFREE_18TFT
000EC1H   000EC1H   000001H   BYTE   UNIT     EDATA          ?ED?ENCODER_SELF4_CHECK?SEEKFREE_ABSOLUTE_ENCODER
000EC2H   000EC2H   000001H   BYTE   UNIT     EDATA          ?ED?SPI_WR_BYTE?SEEKFREE_ABSOLUTE_ENCODER
000EC3H   000EC3H   000001H   BYTE   UNIT     EDATA          ?ED?ENCODER_SELF5_CHECK?SEEKFREE_ABSOLUTE_ENCODER
000EC4H   000EC4H   000001H   BYTE   UNIT     EDATA          ?ED?AT24C02_SIMIIC_SENDACK?SEEKFREE_AT24C02
000EC5H   000EC5H   000001H   BYTE   UNIT     EDATA          ?ED?AT24C02_READ_BYTE?SEEKFREE_AT24C02
000EC6H   000EC6H   000001H   BYTE   UNIT     EDATA          ?ED?DL1A_SIMIIC_SENDACK?SEEKFREE_DL1A
000EC7H   000EC7H   000001H   BYTE   UNIT     EDATA          ?ED?IPS114_WRITEINDEX?SEEKFREE_IPS114_SPI
000EC8H   000EC8H   000001H   BYTE   UNIT     EDATA          ?ED?IPS114_WRITEDATA?SEEKFREE_IPS114_SPI
000EC9H   000EC9H   000001H   BYTE   UNIT     EDATA          ?ED?MPU6050_SIMIIC_SENDACK?SEEKFREE_MPU6050
000ECAH   000ECAH   000001H   BYTE   UNIT     EDATA          ?ED?OLED_WRDAT_SPI?SEEKFREE_OLED
000ECBH   000ECBH   000001H   BYTE   UNIT     EDATA          ?ED?OLED_WRCMD_SPI?SEEKFREE_OLED
000ECCH   000ECCH   000001H   BYTE   UNIT     EDATA          ?ED?CCD_COLLECT?SEEKFREE_TSL1401
000ECDH   000ECDH   000001H   BYTE   UNIT     EDATA          ?ED?IMU660RA_INIT?SEEKFREE_IMU660RA
000ECEH   000ECEH   000001H   BYTE   UNIT     EDATA          ?ED?UART1_ISR?ISR
000ECFH   000FCEH   000100H   BYTE   UNIT     EDATA          ?STACK
000FCFH   00FFFFH   00F031H   ---    ---      **GAP**
010000H   010018H   000019H   BYTE   UNIT     XDATA          ?XD?ADC_MEAN_FILTER_CONVERT?ELECTRONIC
010019H   01001BH   000003H   BYTE   UNIT     XDATA          ?XD?ADC_FILTER?ELECTRONIC
01001CH   01001CH   000001H   BYTE   UNIT     XDATA          ?XD?ADC_DATA_CONVERT?ELECTRONIC
01001DH   FDFFFFH   FCFFE3H   ---    ---      **GAP**
FE0000H   FE01B9H   0001BAH   BYTE   UNIT     HCONST         ?C_INITEDATA
FE01BAH   FE0211H   000058H   BYTE   UNIT     HCONST         ?HC?ZF_PWM
FE0212H   FE0245H   000034H   BYTE   UNIT     HCONST         ?HC?SEEKFREE_IMU660RA
FE0246H   FE0278H   000033H   BYTE   UNIT     HCONST         ?HC?SEEKFREE_ICM20602
FE0279H   FE028EH   000016H   BYTE   UNIT     HCONST         ?HC?SEEKFREE_MPU6050
FE028FH   FE02A1H   000013H   BYTE   UNIT     HCONST         ?HC?SEEKFREE_DL1A
FE02A2H   FE02ABH   00000AH   BYTE   UNIT     HCONST         ?HC?SEEKFREE_OLED
FE02ACH   FE02B2H   000007H   BYTE   UNIT     HCONST         ?HC?ALL_INIT
FE02B3H   FE02B8H   000006H   BYTE   UNIT     HCONST         ?HC?SEEKFREE_18TFT
FE02B9H   FE02BEH   000006H   BYTE   UNIT     HCONST         ?HC?SEEKFREE_IPS114_SPI
FE02BFH   FEFFFFH   00FD41H   ---    ---      **GAP**
FF0000H   FF0002H   000003H   ---    OFFS..   CODE           ?CO?start251?4
FF0003H   FF0005H   000003H   ---    OFFS..   CODE           ?PR?IV?0
FF0006H   FF0009H   000004H   BYTE   INSEG    CODE           ?PR?ENABLEGLOBALIRQ?BOARD
FF000AH   FF000AH   000001H   BYTE   INSEG    CODE           ?PR?INT1_ISR?ISR
FF000BH   FF000DH   000003H   ---    OFFS..   CODE           ?PR?IV?1
FF000EH   FF000EH   000001H   BYTE   INSEG    CODE           ?PR?TM0_ISR?ISR
FF000FH   FF0012H   000004H   BYTE   UNIT     CONST          ?CO?PRINTF
FF0013H   FF0015H   000003H   ---    OFFS..   CODE           ?PR?IV?2
L251 LINKER/LOCATER V4.66.93.0                                                        07/17/2023  20:23:02  PAGE 8


FF0016H   FF001AH   000005H   ---    ---      **GAP**
FF001BH   FF001DH   000003H   ---    OFFS..   CODE           ?PR?IV?3
FF001EH   FF0022H   000005H   ---    ---      **GAP**
FF0023H   FF0025H   000003H   ---    OFFS..   CODE           ?PR?IV?4
FF0026H   FF0042H   00001DH   BYTE   INSEG    CODE           ?PR?MPU6050_SIMIIC_DELAY?SEEKFREE_MPU6050
FF0043H   FF0045H   000003H   ---    OFFS..   CODE           ?PR?IV?8
FF0046H   FF0052H   00000DH   BYTE   INSEG    CODE           ?PR?ENCODER_INIT?MOTOR
FF0053H   FF0055H   000003H   ---    OFFS..   CODE           ?PR?IV?10
FF0056H   FF005AH   000005H   ---    ---      **GAP**
FF005BH   FF005DH   000003H   ---    OFFS..   CODE           ?PR?IV?11
FF005EH   FF0062H   000005H   ---    ---      **GAP**
FF0063H   FF0065H   000003H   ---    OFFS..   CODE           ?PR?IV?12
FF0066H   FF007FH   00001AH   BYTE   INSEG    CODE           ?PR?BLUETOOTH_CH9141_UART_CALLBACK?SEEKFREE_BLUETOOTH_CH91
                                                             -41
FF0080H   FF0082H   000003H   ---    ---      **GAP**
FF0083H   FF0085H   000003H   ---    OFFS..   CODE           ?PR?IV?16
FF0086H   FF008AH   000005H   ---    ---      **GAP**
FF008BH   FF008DH   000003H   ---    OFFS..   CODE           ?PR?IV?17
FF008EH   FF0092H   000005H   ---    ---      **GAP**
FF0093H   FF0095H   000003H   ---    OFFS..   CODE           ?PR?IV?18
FF0096H   FF009AH   000005H   ---    ---      **GAP**
FF009BH   FF009DH   000003H   ---    OFFS..   CODE           ?PR?IV?19
FF009EH   FF00A2H   000005H   ---    ---      **GAP**
FF00A3H   FF00A5H   000003H   ---    OFFS..   CODE           ?PR?IV?20
FF00A6H   FF20A5H   002000H   BYTE   UNIT     CODE           ?CO?SEEKFREE_CONFIG
FF20A6H   FF2EADH   000E08H   BYTE   UNIT     CODE           ?CO?SEEKFREE_FONT
FF2EAEH   FF3865H   0009B8H   BYTE   UNIT     CODE           ?C?LIB_CODE
FF3866H   FF4172H   00090DH   BYTE   INSEG    CODE           ?PR?GPIO_MODE?ZF_GPIO
FF4173H   FF47C3H   000651H   BYTE   INSEG    CODE           ?PR?ZF_SPRINTF?SEEKFREE_PRINTF
FF47C4H   FF4B9DH   0003DAH   BYTE   INSEG    CODE           ?PR?PWM_INIT?ZF_PWM
FF4B9EH   FF4F55H   0003B8H   BYTE   INSEG    CODE           ?PR?PWM_SET_GPIO?ZF_PWM
FF4F56H   FF5207H   0002B2H   BYTE   INSEG    CODE           ?PR?UART_INIT?ZF_UART
FF5208H   FF5446H   00023FH   BYTE   INSEG    CODE           ?PR?VELOCITY_CONTROL?BAL
FF5447H   FF564CH   000206H   BYTE   INSEG    CODE           ?PR?SET_CLK?BOARD
FF564DH   FF5847H   0001FBH   BYTE   INSEG    CODE           ?PR?LCD_INIT_SIMSPI?SEEKFREE_18TFT
FF5848H   FF59B0H   000169H   BYTE   INSEG    CODE           ?PR?DL1A_GET_SEQUENCE_STEP_TIMEOUTS?SEEKFREE_DL1A
FF59B1H   FF5AF9H   000149H   BYTE   INSEG    CODE           ?PR?PIDINCCTRL?LQ_PID
FF5AFAH   FF5C3EH   000145H   BYTE   INSEG    CODE           ?PR?LCD_SHOWFLOAT_SIMSPI?SEEKFREE_18TFT
FF5C3FH   FF5D76H   000138H   BYTE   INSEG    CODE           ?PR?FIFO_WRITE_BUFFER?ZF_FIFO
FF5D77H   FF5E8EH   000118H   BYTE   INSEG    CODE           ?PR?PWM_DUTY?ZF_PWM
FF5E8FH   FF5FA5H   000117H   BYTE   INSEG    CODE           ?PR?NUMBER_CONVERSION_ASCII?SEEKFREE_PRINTF
FF5FA6H   FF6092H   0000EDH   BYTE   INSEG    CODE           ?PR?MOTOR_SPEEDSET?MOTOR
FF6093H   FF6177H   0000E5H   BYTE   INSEG    CODE           ?PR?PIT_TIMER_MS?ZF_TIM
FF6178H   FF6242H   0000CBH   BYTE   INSEG    CODE           ?PR?PIDINIT?LQ_PID
FF6243H   FF6301H   0000BFH   BYTE   INSEG    CODE           ?PR?LCD_SHOWCHAR_SIMSPI?SEEKFREE_18TFT
FF6302H   FF63B6H   0000B5H   BYTE   INSEG    CODE           ?PR?ADC_INIT?ZF_ADC
FF63B7H   FF646AH   0000B4H   BYTE   INSEG    CODE           ?PR?CTIMER_COUNT_READ?ZF_TIM
FF646BH   FF6501H   000097H   BYTE   INSEG    CODE           ?PR?BOARD_INIT?BOARD
FF6502H   FF6598H   000097H   BYTE   INSEG    CODE           ?PR?BAL_CONTROL?BAL
FF6599H   FF662FH   000097H   BYTE   INSEG    CODE           ?PR?INDUCTORNORMAL?ELECTRONIC
FF6630H   FF66C4H   000095H   BYTE   INSEG    CODE           ?PR?PRINTF_REVERSE_ORDER?SEEKFREE_PRINTF
FF66C5H   FF6752H   00008EH   BYTE   INSEG    CODE           ?PR?DL1A_GET_SEQUENCE_STEP_ENABLES?SEEKFREE_DL1A
FF6753H   FF67D4H   000082H   BYTE   INSEG    CODE           ?PR?JUDGE_GAME?ELEMENT
FF67D5H   FF6853H   00007FH   BYTE   INSEG    CODE           ?PR?DL1A_ENCODE_TIMEOUT?SEEKFREE_DL1A
FF6854H   FF68D2H   00007FH   BYTE   INSEG    CODE           ?PR?ADC_DATA_CONVERT?ELECTRONIC
FF68D3H   FF694CH   00007AH   BYTE   INSEG    CODE           ?PR?DL1A_GET_VCSEL_PULSE_PERIOD?SEEKFREE_DL1A
FF694DH   FF69C1H   000075H   BYTE   INSEG    CODE           ?PR?UART_PUTCHAR?ZF_UART
FF69C2H   FF6A34H   000073H   BYTE   INSEG    CODE           ?PR?UART4_ISR?ISR
FF6A35H   FF6AA2H   00006EH   BYTE   INSEG    CODE           ?PR?ALL_PID_INIT?BAL
FF6AA3H   FF6B0EH   00006CH   BYTE   INSEG    CODE           ?PR?MAIN?MAIN
FF6B0FH   FF6B78H   00006AH   BYTE   INSEG    CODE           ?PR?FIFO_HEAD_OFFSET?ZF_FIFO
FF6B79H   FF6BE2H   00006AH   BYTE   INSEG    CODE           ?PR?DL1A_READ_CH?SEEKFREE_DL1A
FF6BE3H   FF6C4AH   000068H   BYTE   INSEG    CODE           ?PR?DL1A_SIMIIC_READ_REGS?SEEKFREE_DL1A
FF6C4BH   FF6CAFH   000065H   BYTE   INSEG    CODE           ?PR?GO_4_RING?ELEMENT
FF6CB0H   FF6D13H   000064H   BYTE   INSEG    CODE           ?PR?LCD_SET_REGION_SIMSPI?SEEKFREE_18TFT
L251 LINKER/LOCATER V4.66.93.0                                                        07/17/2023  20:23:02  PAGE 9


FF6D14H   FF6D77H   000064H   BYTE   INSEG    CODE           ?PR?LCD_SET_REGION?SEEKFREE_18TFT
FF6D78H   FF6DD6H   00005FH   BYTE   INSEG    CODE           ?PR?ADC_FILTER?ELECTRONIC
FF6DD7H   FF6E33H   00005DH   BYTE   INSEG    CODE           ?PR?CTIMER_COUNT_CLEAN?ZF_TIM
FF6E34H   FF6E90H   00005DH   BYTE   INSEG    CODE           ?PR?LCD_SHOWSTR_SIMSPI?SEEKFREE_18TFT
FF6E91H   FF6EE9H   000059H   BYTE   INSEG    CODE           ?PR?ICM20602_SIMSPI_WR_BYTE?SEEKFREE_ICM20602
FF6EEAH   FF6F42H   000059H   BYTE   INSEG    CODE           ?PR?IMU660RA_SIMSPI_WR_BYTE?SEEKFREE_IMU660RA
FF6F43H   FF6F99H   000057H   BYTE   INSEG    CODE           ?PR?WAIT?ZF_IIC
FF6F9AH   FF6FF0H   000057H   BYTE   INSEG    CODE           ?PR?LCD_CLEAR_SIMSPI?SEEKFREE_18TFT
FF6FF1H   FF7046H   000056H   BYTE   INSEG    CODE           ?PR?ADC_ONCE?ZF_ADC
FF7047H   FF709BH   000055H   BYTE   INSEG    CODE           ?PR?LCD_WRITEDATA_16BIT_SIMSPI?SEEKFREE_18TFT
FF709CH   FF70F0H   000055H   BYTE   INSEG    CODE           ?PR?IPS114_WRITEDATAI_16BIT_SIMSPI?SEEKFREE_IPS114_SPI
FF70F1H   FF7144H   000054H   BYTE   INSEG    CODE           ?PR?CTIMER_COUNT_INIT?ZF_TIM
FF7145H   FF7197H   000053H   BYTE   INSEG    CODE           ?PR?DL1A_TIMEOUT_MCLKS_TO_MICROSECONDS?SEEKFREE_DL1A
FF7198H   FF71E8H   000051H   BYTE   INSEG    CODE           ?PR?DL1A_TIMEOUT_MICROSECONDS_TO_MCLKS?SEEKFREE_DL1A
FF71E9H   FF7239H   000051H   BYTE   INSEG    CODE           ?PR?ICM20602_SIMSPI_R_REG_BYTES?SEEKFREE_ICM20602
FF723AH   FF7287H   00004EH   BYTE   INSEG    CODE           ?PR?TM1_ISR?ISR
FF7288H   FF72D3H   00004CH   BYTE   INSEG    CODE           ?PR?LCD_WRITEINDEX_SIMSPI?SEEKFREE_18TFT
FF72D4H   FF731FH   00004CH   BYTE   INSEG    CODE           ?PR?LCD_WRITEDATA_SIMSPI?SEEKFREE_18TFT
FF7320H   FF736BH   00004CH   BYTE   INSEG    CODE           ?PR?IPS114_WRITEINDEX_SIMSPI?SEEKFREE_IPS114_SPI
FF736CH   FF73B7H   00004CH   BYTE   INSEG    CODE           ?PR?OLED_WRCMD?SEEKFREE_OLED
FF73B8H   FF7403H   00004CH   BYTE   INSEG    CODE           ?PR?OLED_WRDAT?SEEKFREE_OLED
FF7404H   FF744EH   00004BH   BYTE   INSEG    CODE           ?PR?IMU660RA_SIMSPI_R_REG_BYTES?SEEKFREE_IMU660RA
FF744FH   FF7497H   000049H   BYTE   INSEG    CODE           ?PR?DL1A_SEND_CH?SEEKFREE_DL1A
FF7498H   FF74DDH   000046H   BYTE   INSEG    CODE           ?PR?UART1_ISR?ISR
FF74DEH   FF7522H   000045H   BYTE   INSEG    CODE           ?PR?MOTOR_INIT?MOTOR
FF7523H   FF7535H   000013H   BYTE   UNIT     CODE           ?C_C51STARTUP
FF7536H   FF7539H   000004H   BYTE   UNIT     CODE           ?C_C51STARTUP?1
FF753AH   FF7562H   000029H   BYTE   UNIT     CODE           ?C_C51STARTUP?2
FF7563H   FF7565H   000003H   BYTE   UNIT     CODE           ?C_C51STARTUP?3
FF7566H   FF75A7H   000042H   BYTE   INSEG    CODE           ?PR?DL1A_SIMIIC_WRITE_DATS?SEEKFREE_DL1A
FF75A8H   FF75E8H   000041H   BYTE   INSEG    CODE           ?PR?DELAY_INIT?ZF_DELAY
FF75E9H   FF761FH   000037H   BYTE   INSEG    CODE           ?PR?ADC_6_ROAD_INIT?ELECTRONIC
FF7620H   FF7655H   000036H   BYTE   INSEG    CODE           ?PR?OLED_SET_POS_SPI?SEEKFREE_OLED
FF7656H   FF768AH   000035H   BYTE   INSEG    CODE           ?PR?DELAY_MS?ZF_DELAY
FF768BH   FF76BFH   000035H   BYTE   INSEG    CODE           ?PR?IIC_DELAY_US?ZF_IIC
FF76C0H   FF76F4H   000035H   BYTE   INSEG    CODE           ?PR?OLED_SET_POS?SEEKFREE_OLED
FF76F5H   FF7729H   000035H   BYTE   INSEG    CODE           ?PR?OUT_GARAGE?ELEMENT
FF772AH   FF775CH   000033H   BYTE   INSEG    CODE           ?PR?DELAY_US?ZF_DELAY
FF775DH   FF7786H   00002AH   BYTE   INSEG    CODE           ?PR?LCD_WRITEDATA_16BIT?SEEKFREE_18TFT
FF7787H   FF77B0H   00002AH   BYTE   INSEG    CODE           ?PR?DL1A_DECODE_TIMEOUT?SEEKFREE_DL1A
FF77B1H   FF77DAH   00002AH   BYTE   INSEG    CODE           ?PR?IPS114_WRITEDATA_16BIT?SEEKFREE_IPS114_SPI
FF77DBH   FF7802H   000028H   BYTE   INSEG    CODE           ?PR?AT24C02_SIMIIC_SENDACK?SEEKFREE_AT24C02
FF7803H   FF782AH   000028H   BYTE   INSEG    CODE           ?PR?DL1A_SIMIIC_SENDACK?SEEKFREE_DL1A
FF782BH   FF7852H   000028H   BYTE   INSEG    CODE           ?PR?MPU6050_SIMIIC_SENDACK?SEEKFREE_MPU6050
FF7853H   FF7879H   000027H   BYTE   INSEG    CODE           ?PR?ICM20602_SIMSPI_R_REG_BYTE?SEEKFREE_ICM20602
FF787AH   FF789EH   000025H   BYTE   INSEG    CODE           ?PR?MEMCPY?_?MEMCPY
FF789FH   FF78C0H   000022H   BYTE   INSEG    CODE           ?PR?IMU660RA_READ_REGISTER?SEEKFREE_IMU660RA
FF78C1H   FF78E1H   000021H   BYTE   INSEG    CODE           ?PR?DL1A_SCCB_WAITACK?SEEKFREE_DL1A
FF78E2H   FF7900H   00001FH   BYTE   INSEG    CODE           ?PR?AT24C02_SIMIIC_DELAY?SEEKFREE_AT24C02
FF7901H   FF791FH   00001FH   BYTE   INSEG    CODE           ?PR?DL1A_SIMIIC_DELAY?SEEKFREE_DL1A
FF7920H   FF793DH   00001EH   BYTE   INSEG    CODE           ?PR?ICM20602_READ_REGISTER?SEEKFREE_ICM20602
FF793EH   FF795BH   00001EH   BYTE   INSEG    CODE           ?PR?UART2_ISR?ISR
FF795CH   FF7979H   00001EH   BYTE   INSEG    CODE           ?PR?UART3_ISR?ISR
FF797AH   FF7993H   00001AH   BYTE   INSEG    CODE           ?PR?WIRELESS_UART_CALLBACK?SEEKFREE_WIRELESS
FF7994H   FF79ADH   00001AH   BYTE   INSEG    CODE           ?PR?WIRELESS_CH573_CALLBACK?SEEKFREE_WIRELESS_CH573
FF79AEH   FF79C6H   000019H   BYTE   INSEG    CODE           ?PR?ALL_INIT?ALL_INIT
FF79C7H   FF79DEH   000018H   BYTE   INSEG    CODE           ?PR?EEPROM_TRIG?ZF_EEPROM
FF79DFH   FF79F5H   000017H   BYTE   INSEG    CODE           ?PR?ENCODER_GET?MOTOR
FF79F6H   FF7A0BH   000016H   BYTE   INSEG    CODE           ?PR?AT24C02_SIMIIC_STOP?SEEKFREE_AT24C02
FF7A0CH   FF7A21H   000016H   BYTE   INSEG    CODE           ?PR?DL1A_SIMIIC_STOP?SEEKFREE_DL1A
FF7A22H   FF7A37H   000016H   BYTE   INSEG    CODE           ?PR?MPU6050_SIMIIC_STOP?SEEKFREE_MPU6050
FF7A38H   FF7A4CH   000015H   BYTE   INSEG    CODE           ?PR?LCD_WRITEINDEX?SEEKFREE_18TFT
FF7A4DH   FF7A61H   000015H   BYTE   INSEG    CODE           ?PR?LCD_WRITEDATA?SEEKFREE_18TFT
FF7A62H   FF7A76H   000015H   BYTE   INSEG    CODE           ?PR?IPS114_WRITEINDEX?SEEKFREE_IPS114_SPI
FF7A77H   FF7A8BH   000015H   BYTE   INSEG    CODE           ?PR?OLED_WRCMD_SPI?SEEKFREE_OLED
L251 LINKER/LOCATER V4.66.93.0                                                        07/17/2023  20:23:02  PAGE 10


FF7A8CH   FF7AA0H   000015H   BYTE   INSEG    CODE           ?PR?OLED_WRDAT_SPI?SEEKFREE_OLED
FF7AA1H   FF7AB3H   000013H   BYTE   INSEG    CODE           ?PR?DL1A_SIMIIC_START?SEEKFREE_DL1A
FF7AB4H   FF7AC6H   000013H   BYTE   INSEG    CODE           ?PR?MPU6050_SIMIIC_START?SEEKFREE_MPU6050
FF7AC7H   FF7AD8H   000012H   BYTE   INSEG    CODE           ?PR?PUTCHAR?BOARD
FF7AD9H   FF7AEAH   000012H   BYTE   INSEG    CODE           ?PR?SPI_MOSI?ZF_SPI
FF7AEBH   FF7AF4H   00000AH   BYTE   INSEG    CODE           ?PR?ENCODER_DELAY_US?SEEKFREE_ABSOLUTE_ENCODER
FF7AF5H   FF7AFCH   000008H   BYTE   INSEG    CODE           ?PR?INT0_ISR?ISR
FF7AFDH   FF7B04H   000008H   BYTE   INSEG    CODE           ?PR?INT2_ISR?ISR
FF7B05H   FF7B0CH   000008H   BYTE   INSEG    CODE           ?PR?INT3_ISR?ISR
FF7B0DH   FF7B14H   000008H   BYTE   INSEG    CODE           ?PR?INT4_ISR?ISR
FF7B15H   FF7B1CH   000008H   BYTE   INSEG    CODE           ?PR?TM2_ISR?ISR
FF7B1DH   FF7B24H   000008H   BYTE   INSEG    CODE           ?PR?TM3_ISR?ISR
FF7B25H   FF7B2CH   000008H   BYTE   INSEG    CODE           ?PR?TM4_ISR?ISR

* * * * * * * * *   R E M O V E D     S E G M E N T S   * * * * * * * *
   *DEL*:           000004H   BYTE   INSEG    CODE           ?PR?DISABLEGLOBALIRQ?BOARD
   *DEL*:           000020H   BYTE   INSEG    CODE           ?PR?IAP_SET_TPS?ZF_EEPROM
   *DEL*:           00001CH   BYTE   INSEG    CODE           ?PR?IAP_ERASE_PAGE?ZF_EEPROM
   *DEL*:           000004H   BYTE   INSEG    CODE           ?PR?IAP_IDLE?ZF_EEPROM
   *DEL*:           000060H   BYTE   INSEG    CODE           ?PR?IAP_READ_BYTES?ZF_EEPROM
   *DEL*:           0000B4H   BYTE   INSEG    CODE           ?PR?EXTERN_IAP_WRITE_BYTES?ZF_EEPROM
   *DEL*:           000007H   BYTE   INSEG    CODE           ?PR?IAP_INIT?ZF_EEPROM
   *DEL*:           00005CH   BYTE   INSEG    CODE           ?PR?IAP_WRITE_BYTES?ZF_EEPROM
   *DEL*:           000012H   BYTE   INSEG    CODE           ?PR?IAP_GET_CMD_STATE?ZF_EEPROM
   *DEL*:           000066H   BYTE   INSEG    CODE           ?PR?EXIT_INIT?ZF_EXTI
   *DEL*:           000095H   BYTE   INSEG    CODE           ?PR?GPIO_PULL_SET?ZF_GPIO
   *DEL*:           000028H   BYTE   INSEG    CODE           ?PR?SEND_DATA?ZF_IIC
   *DEL*:           000037H   BYTE   INSEG    CODE           ?PR?IIC_CHANGE_PIN?ZF_IIC
   *DEL*:           00001CH   BYTE   INSEG    CODE           ?PR?RECV_DATA?ZF_IIC
   *DEL*:           000015H   BYTE   INSEG    CODE           ?PR?START?ZF_IIC
   *DEL*:           000021H   BYTE   INSEG    CODE           ?PR?SEND_ACK?ZF_IIC
   *DEL*:           000015H   BYTE   INSEG    CODE           ?PR?RECV_ACK?ZF_IIC
   *DEL*:           000015H   BYTE   INSEG    CODE           ?PR?STOP?ZF_IIC
   *DEL*:           00001EH   BYTE   INSEG    CODE           ?PR?SEND_NAK?ZF_IIC
   *DEL*:           00007AH   BYTE   INSEG    CODE           ?PR?IIC_INIT?ZF_IIC
   *DEL*:           000099H   BYTE   INSEG    CODE           ?PR?IIC_READ_REG?ZF_IIC
   *DEL*:           0000D4H   BYTE   INSEG    CODE           ?PR?IIC_READ_REG_BYTES?ZF_IIC
   *DEL*:           00007CH   BYTE   INSEG    CODE           ?PR?IIC_WRITE_REG?ZF_IIC
   *DEL*:           0000B9H   BYTE   INSEG    CODE           ?PR?NVIC_SETPRIORITY?ZF_NVIC
   *DEL*:           0001ABH   BYTE   INSEG    CODE           ?PR?PWM_FREQ?ZF_PWM
   *DEL*:           000026H   BYTE   INSEG    CODE           ?PR?SPI_CHANGE_MODE?ZF_SPI
   *DEL*:           0000CCH   BYTE   INSEG    CODE           ?PR?SPI_CHANGE_PIN?ZF_SPI
   *DEL*:           0000F5H   BYTE   INSEG    CODE           ?PR?SPI_INIT?ZF_SPI
   *DEL*:           000039H   BYTE   INSEG    CODE           ?PR?UART_PUTBUFF?ZF_UART
   *DEL*:           00002BH   BYTE   INSEG    CODE           ?PR?UART_PUTSTR?ZF_UART
   *DEL*:           000183H   BYTE   INSEG    CODE           ?PR?FIFO_READ_BUFFER?ZF_FIFO
   *DEL*:           000043H   BYTE   INSEG    CODE           ?PR?FIFO_CLEAR?ZF_FIFO
   *DEL*:           000070H   BYTE   INSEG    CODE           ?PR?FIFO_END_OFFSET?ZF_FIFO
   *DEL*:           000025H   BYTE   INSEG    CODE           ?PR?FIFO_USED?ZF_FIFO
   *DEL*:           00006EH   BYTE   INSEG    CODE           ?PR?FIFO_INIT?ZF_FIFO
   *DEL*:           0000CDH   BYTE   INSEG    CODE           ?PR?LCD_SHOWUINT16?SEEKFREE_18TFT
   *DEL*:           0000CEH   BYTE   INSEG    CODE           ?PR?LCD_SHOWINT32_SIMSPI?SEEKFREE_18TFT
   *DEL*:           000119H   BYTE   INSEG    CODE           ?PR?LCD_SHOWINT16_SIMSPI?SEEKFREE_18TFT
   *DEL*:           0000CEH   BYTE   INSEG    CODE           ?PR?LCD_SHOWINT32?SEEKFREE_18TFT
   *DEL*:           000119H   BYTE   INSEG    CODE           ?PR?LCD_SHOWINT16?SEEKFREE_18TFT
   *DEL*:           000057H   BYTE   INSEG    CODE           ?PR?LCD_CLEAR?SEEKFREE_18TFT
   *DEL*:           00005DH   BYTE   INSEG    CODE           ?PR?LCD_SHOWSTR?SEEKFREE_18TFT
   *DEL*:           0000ECH   BYTE   INSEG    CODE           ?PR?SHOWIMAGE?SEEKFREE_18TFT
   *DEL*:           0001F3H   BYTE   INSEG    CODE           ?PR?LCD_INIT?SEEKFREE_18TFT
   *DEL*:           0000A9H   BYTE   INSEG    CODE           ?PR?LCD_SHOWUINT8_SIMSPI?SEEKFREE_18TFT
   *DEL*:           0000A9H   BYTE   INSEG    CODE           ?PR?LCD_SHOWUINT8?SEEKFREE_18TFT
   *DEL*:           0000EBH   BYTE   INSEG    CODE           ?PR?LCD_SHOWINT8_SIMSPI?SEEKFREE_18TFT
   *DEL*:           0000EBH   BYTE   INSEG    CODE           ?PR?LCD_SHOWINT8?SEEKFREE_18TFT
   *DEL*:           000023H   BYTE   INSEG    CODE           ?PR?LCD_DRAWPOINT_SIMSPI?SEEKFREE_18TFT
   *DEL*:           000145H   BYTE   INSEG    CODE           ?PR?LCD_SHOWFLOAT?SEEKFREE_18TFT
L251 LINKER/LOCATER V4.66.93.0                                                        07/17/2023  20:23:02  PAGE 11


   *DEL*:           000023H   BYTE   INSEG    CODE           ?PR?LCD_DRAWPOINT?SEEKFREE_18TFT
   *DEL*:           0000BFH   BYTE   INSEG    CODE           ?PR?LCD_SHOWCHAR?SEEKFREE_18TFT
   *DEL*:           0000CDH   BYTE   INSEG    CODE           ?PR?LCD_SHOWUINT16_SIMSPI?SEEKFREE_18TFT
   *DEL*:           000013H   BYTE   INSEG    CODE           ?PR?ENCODER_SELF4_CHECK?SEEKFREE_ABSOLUTE_ENCODER
   *DEL*:           000013H   BYTE   INSEG    CODE           ?PR?ENCODER_SELF5_CHECK?SEEKFREE_ABSOLUTE_ENCODER
   *DEL*:           000042H   BYTE   INSEG    CODE           ?PR?ENCODER_SPI_R_REG_BYTE?SEEKFREE_ABSOLUTE_ENCODER
   *DEL*:           000053H   BYTE   INSEG    CODE           ?PR?ENCODER_SPI_W_REG_BYTE?SEEKFREE_ABSOLUTE_ENCODER
   *DEL*:           00002DH   BYTE   INSEG    CODE           ?PR?SIMSPI_R_REG_BYTE?SEEKFREE_ABSOLUTE_ENCODER
   *DEL*:           000029H   BYTE   INSEG    CODE           ?PR?SIMSPI_W_REG_BYTE?SEEKFREE_ABSOLUTE_ENCODER
   *DEL*:           000030H   BYTE   INSEG    CODE           ?PR?ENCODER_INIT_SPI?SEEKFREE_ABSOLUTE_ENCODER
   *DEL*:           00000CH   BYTE   INSEG    CODE           ?PR?SPI_WR_BYTE?SEEKFREE_ABSOLUTE_ENCODER
   *DEL*:           000032H   BYTE   INSEG    CODE           ?PR?SET_ZERO_POSITION_SIMSPI?SEEKFREE_ABSOLUTE_ENCODER
   *DEL*:           000035H   BYTE   INSEG    CODE           ?PR?ENCODER_ANGLE_SIMSPI?SEEKFREE_ABSOLUTE_ENCODER
   *DEL*:           00002DH   BYTE   INSEG    CODE           ?PR?SPI_R_REG_BYTE?SEEKFREE_ABSOLUTE_ENCODER
   *DEL*:           000029H   BYTE   INSEG    CODE           ?PR?SPI_W_REG_BYTE?SEEKFREE_ABSOLUTE_ENCODER
   *DEL*:           000042H   BYTE   INSEG    CODE           ?PR?ENCODER_SIMSPI_R_REG_BYTE?SEEKFREE_ABSOLUTE_ENCODER
   *DEL*:           000053H   BYTE   INSEG    CODE           ?PR?ENCODER_SIMSPI_W_REG_BYTE?SEEKFREE_ABSOLUTE_ENCODER
   *DEL*:           000010H   BYTE   INSEG    CODE           ?PR?ENCODER_INIT_SIMSPI?SEEKFREE_ABSOLUTE_ENCODER
   *DEL*:           000032H   BYTE   INSEG    CODE           ?PR?SET_ZERO_POSITION_SPI?SEEKFREE_ABSOLUTE_ENCODER
   *DEL*:           000053H   BYTE   INSEG    CODE           ?PR?SIMSPI_WR_BYTE?SEEKFREE_ABSOLUTE_ENCODER
   *DEL*:           000035H   BYTE   INSEG    CODE           ?PR?ENCODER_ANGLE_SPI?SEEKFREE_ABSOLUTE_ENCODER
   *DEL*:           00003BH   BYTE   INSEG    CODE           ?PR?AT24C02_SIMIIC_READ_REG?SEEKFREE_AT24C02
   *DEL*:           000081H   BYTE   INSEG    CODE           ?PR?AT24C02_READ_BYTES?SEEKFREE_AT24C02
   *DEL*:           00002AH   BYTE   INSEG    CODE           ?PR?AT24C02_SIMIIC_WRITE_REG?SEEKFREE_AT24C02
   *DEL*:           000015H   BYTE   INSEG    CODE           ?PR?AT24C02_READ_BYTE?SEEKFREE_AT24C02
   *DEL*:           000092H   BYTE   INSEG    CODE           ?PR?AT24C02_WRITE_BYTES?SEEKFREE_AT24C02
   *DEL*:           00001DH   BYTE   INSEG    CODE           ?PR?AT24C02_WRITE_BYTE?SEEKFREE_AT24C02
   *DEL*:           00006AH   BYTE   INSEG    CODE           ?PR?AT24C02_READ_CH?SEEKFREE_AT24C02
   *DEL*:           000049H   BYTE   INSEG    CODE           ?PR?AT24C02_SEND_CH?SEEKFREE_AT24C02
   *DEL*:           000021H   BYTE   INSEG    CODE           ?PR?AT24C02_SCCB_WAITACK?SEEKFREE_AT24C02
   *DEL*:           000013H   BYTE   INSEG    CODE           ?PR?AT24C02_SIMIIC_START?SEEKFREE_AT24C02
   *DEL*:           00002EH   BYTE   INSEG    CODE           ?PR?BLUETOOTH_CH9141_READ_BUFF?SEEKFREE_BLUETOOTH_CH9141
   *DEL*:           0000CCH   BYTE   INSEG    CODE           ?PR?BLUETOOTH_CH9141_SEND_BUFF?SEEKFREE_BLUETOOTH_CH9141
   *DEL*:           00003CH   BYTE   INSEG    CODE           ?PR?BLUETOOTH_CH9141_INIT?SEEKFREE_BLUETOOTH_CH9141
   *DEL*:           00003EH   BYTE   INSEG    CODE           ?PR?DL1A_SET_SIGNAL_RATE_LIMIT?SEEKFREE_DL1A
   *DEL*:           000195H   BYTE   INSEG    CODE           ?PR?DL1A_GET_SPAD_INFO?SEEKFREE_DL1A
   *DEL*:           00006CH   BYTE   INSEG    CODE           ?PR?DL1A_GET_DISTANCE?SEEKFREE_DL1A
   *DEL*:           0000ABH   BYTE   INSEG    CODE           ?PR?DL1A_PERFORM_SINGLE_REF_CALIBRATION?SEEKFREE_DL1A
   *DEL*:           0000B6H   BYTE   INSEG    CODE           ?PR?DL1A_GET_MEASUREMENT_TIMING_BUDGET?SEEKFREE_DL1A
   *DEL*:           00003BH   BYTE   INSEG    CODE           ?PR?DL1A_SIMIIC_READ_REG?SEEKFREE_DL1A
   *DEL*:           000068H   BYTE   INSEG    CODE           ?PR?DL1A_SIMIIC_READ_REGS_1?SEEKFREE_DL1A
   *DEL*:           000149H   BYTE   INSEG    CODE           ?PR?DL1A_SET_MEASUREMENT_TIMING_BUDGET?SEEKFREE_DL1A
   *DEL*:           00002AH   BYTE   INSEG    CODE           ?PR?DL1A_SIMIIC_WRITE_REG?SEEKFREE_DL1A
   *DEL*:           0006AEH   BYTE   INSEG    CODE           ?PR?DL1A_INIT?SEEKFREE_DL1A
   *DEL*:           00008DH   BYTE   INSEG    CODE           ?PR?ICM20602_GYRO_TRANSITION?SEEKFREE_ICM20602
   *DEL*:           00001AH   BYTE   INSEG    CODE           ?PR?ICM20602_WRITE_REGISTER?SEEKFREE_ICM20602
   *DEL*:           00004EH   BYTE   INSEG    CODE           ?PR?ICM20602_SELF_CHECK?SEEKFREE_ICM20602
   *DEL*:           00001BH   BYTE   INSEG    CODE           ?PR?ICM20602_SIMSPI_W_REG_BYTE?SEEKFREE_ICM20602
   *DEL*:           0000C2H   BYTE   INSEG    CODE           ?PR?ICM20602_INIT?SEEKFREE_ICM20602
   *DEL*:           000050H   BYTE   INSEG    CODE           ?PR?ICM20602_GET_ACC?SEEKFREE_ICM20602
   *DEL*:           000089H   BYTE   INSEG    CODE           ?PR?ICM20602_ACC_TRANSITION?SEEKFREE_ICM20602
   *DEL*:           000026H   BYTE   INSEG    CODE           ?PR?ICM20602_READ_REGISTERS?SEEKFREE_ICM20602
   *DEL*:           000050H   BYTE   INSEG    CODE           ?PR?ICM20602_GET_GYRO?SEEKFREE_ICM20602
   *DEL*:           0000A9H   BYTE   INSEG    CODE           ?PR?IPS114_SHOWUINT8_SIMSPI?SEEKFREE_IPS114_SPI
   *DEL*:           0000A5H   BYTE   INSEG    CODE           ?PR?IPS114_SHOWUINT8?SEEKFREE_IPS114_SPI
   *DEL*:           0000EBH   BYTE   INSEG    CODE           ?PR?IPS114_SHOWINT8_SIMSPI?SEEKFREE_IPS114_SPI
   *DEL*:           0000E7H   BYTE   INSEG    CODE           ?PR?IPS114_SHOWINT8?SEEKFREE_IPS114_SPI
   *DEL*:           000145H   BYTE   INSEG    CODE           ?PR?IPS114_SHOWFLOAT_SIMSPI?SEEKFREE_IPS114_SPI
   *DEL*:           000023H   BYTE   INSEG    CODE           ?PR?IPS114_DRAWPOINT_SIMSPI?SEEKFREE_IPS114_SPI
   *DEL*:           000145H   BYTE   INSEG    CODE           ?PR?IPS114_SHOWFLOAT?SEEKFREE_IPS114_SPI
   *DEL*:           000023H   BYTE   INSEG    CODE           ?PR?IPS114_DRAWPOINT?SEEKFREE_IPS114_SPI
   *DEL*:           0000BFH   BYTE   INSEG    CODE           ?PR?IPS114_SHOWCHAR_SIMSPI?SEEKFREE_IPS114_SPI
   *DEL*:           0000BFH   BYTE   INSEG    CODE           ?PR?IPS114_SHOWCHAR?SEEKFREE_IPS114_SPI
   *DEL*:           0000CDH   BYTE   INSEG    CODE           ?PR?IPS114_SHOWUINT16_SIMSPI?SEEKFREE_IPS114_SPI
   *DEL*:           0000CDH   BYTE   INSEG    CODE           ?PR?IPS114_SHOWUINT16?SEEKFREE_IPS114_SPI
L251 LINKER/LOCATER V4.66.93.0                                                        07/17/2023  20:23:02  PAGE 12


   *DEL*:           0000CEH   BYTE   INSEG    CODE           ?PR?IPS114_SHOWINT32_SIMSPI?SEEKFREE_IPS114_SPI
   *DEL*:           000119H   BYTE   INSEG    CODE           ?PR?IPS114_SHOWINT16_SIMSPI?SEEKFREE_IPS114_SPI
   *DEL*:           0000CEH   BYTE   INSEG    CODE           ?PR?IPS114_SHOWINT32?SEEKFREE_IPS114_SPI
   *DEL*:           000115H   BYTE   INSEG    CODE           ?PR?IPS114_SHOWINT16?SEEKFREE_IPS114_SPI
   *DEL*:           00005FH   BYTE   INSEG    CODE           ?PR?IPS114_CLEAR_SIMSPI?SEEKFREE_IPS114_SPI
   *DEL*:           00005FH   BYTE   INSEG    CODE           ?PR?IPS114_CLEAR?SEEKFREE_IPS114_SPI
   *DEL*:           00005DH   BYTE   INSEG    CODE           ?PR?IPS114_SHOWSTR_SIMSPI?SEEKFREE_IPS114_SPI
   *DEL*:           00005DH   BYTE   INSEG    CODE           ?PR?IPS114_SHOWSTR?SEEKFREE_IPS114_SPI
   *DEL*:           00004CH   BYTE   INSEG    CODE           ?PR?IPS114_WRITEDATA_SIMSPI?SEEKFREE_IPS114_SPI
   *DEL*:           000015H   BYTE   INSEG    CODE           ?PR?IPS114_WRITEDATA?SEEKFREE_IPS114_SPI
   *DEL*:           000054H   BYTE   INSEG    CODE           ?PR?IPS114_SET_REGION_SIMSPI?SEEKFREE_IPS114_SPI
   *DEL*:           000154H   BYTE   INSEG    CODE           ?PR?IPS114_INIT_SIMSPI?SEEKFREE_IPS114_SPI
   *DEL*:           000054H   BYTE   INSEG    CODE           ?PR?IPS114_SET_REGION?SEEKFREE_IPS114_SPI
   *DEL*:           000174H   BYTE   INSEG    CODE           ?PR?IPS114_INIT?SEEKFREE_IPS114_SPI
   *DEL*:           00006CH   BYTE   INSEG    CODE           ?PR?MPU6050_SIMIIC_READ_REGS?SEEKFREE_MPU6050
   *DEL*:           00003BH   BYTE   INSEG    CODE           ?PR?MPU6050_SIMIIC_READ_REG?SEEKFREE_MPU6050
   *DEL*:           00002AH   BYTE   INSEG    CODE           ?PR?MPU6050_SIMIIC_WRITE_REG?SEEKFREE_MPU6050
   *DEL*:           000060H   BYTE   INSEG    CODE           ?PR?MPU6050_INIT?SEEKFREE_MPU6050
   *DEL*:           000033H   BYTE   INSEG    CODE           ?PR?MPU6050_SELF1_CHECK?SEEKFREE_MPU6050
   *DEL*:           00006AH   BYTE   INSEG    CODE           ?PR?MPU6050_READ_CH?SEEKFREE_MPU6050
   *DEL*:           000049H   BYTE   INSEG    CODE           ?PR?MPU6050_SEND_CH?SEEKFREE_MPU6050
   *DEL*:           000052H   BYTE   INSEG    CODE           ?PR?MPU6050_GET_GYRO?SEEKFREE_MPU6050
   *DEL*:           000021H   BYTE   INSEG    CODE           ?PR?MPU6050_SCCB_WAITACK?SEEKFREE_MPU6050
   *DEL*:           000052H   BYTE   INSEG    CODE           ?PR?MPU6050_GET_ACCDATA?SEEKFREE_MPU6050
   *DEL*:           000047H   BYTE   INSEG    CODE           ?PR?OLED_PUTPIXEL?SEEKFREE_OLED
   *DEL*:           00006FH   BYTE   INSEG    CODE           ?PR?OLED_HEXASCII_SPI?SEEKFREE_OLED
   *DEL*:           00044DH   BYTE   INSEG    CODE           ?PR?OLED_DIS_BMP_SPI?SEEKFREE_OLED
   *DEL*:           000145H   BYTE   INSEG    CODE           ?PR?OLED_PRINTF_FLOAT?SEEKFREE_OLED
   *DEL*:           000121H   BYTE   INSEG    CODE           ?PR?OLED_P8X16STR_SPI?SEEKFREE_OLED
   *DEL*:           000041H   BYTE   INSEG    CODE           ?PR?OLED_CLRPIXEL_SPI?SEEKFREE_OLED
   *DEL*:           0000C0H   BYTE   INSEG    CODE           ?PR?OLED_PRINT_CHINESE_SPI?SEEKFREE_OLED
   *DEL*:           00005DH   BYTE   INSEG    CODE           ?PR?OLED_FILL?SEEKFREE_OLED
   *DEL*:           0000CEH   BYTE   INSEG    CODE           ?PR?OLED_PRINTF_INT32?SEEKFREE_OLED
   *DEL*:           000027H   BYTE   INSEG    CODE           ?PR?OLED_UINT16?SEEKFREE_OLED
   *DEL*:           000048H   BYTE   INSEG    CODE           ?PR?OLED_PUTPIXEL_SPI?SEEKFREE_OLED
   *DEL*:           0000D1H   BYTE   INSEG    CODE           ?PR?OLED_P6X8STR?SEEKFREE_OLED
   *DEL*:           000073H   BYTE   INSEG    CODE           ?PR?OLED_INT16?SEEKFREE_OLED
   *DEL*:           0000A8H   BYTE   INSEG    CODE           ?PR?OLED_INIT?SEEKFREE_OLED
   *DEL*:           000145H   BYTE   INSEG    CODE           ?PR?OLED_PRINTF_FLOAT_SPI?SEEKFREE_OLED
   *DEL*:           00006FH   BYTE   INSEG    CODE           ?PR?OLED_HEXASCII?SEEKFREE_OLED
   *DEL*:           00005DH   BYTE   INSEG    CODE           ?PR?OLED_FILL_SPI?SEEKFREE_OLED
   *DEL*:           0000CEH   BYTE   INSEG    CODE           ?PR?OLED_PRINTF_INT32_SPI?SEEKFREE_OLED
   *DEL*:           000027H   BYTE   INSEG    CODE           ?PR?OLED_UINT16_SPI?SEEKFREE_OLED
   *DEL*:           0000D1H   BYTE   INSEG    CODE           ?PR?OLED_P6X8STR_SPI?SEEKFREE_OLED
   *DEL*:           000073H   BYTE   INSEG    CODE           ?PR?OLED_INT16_SPI?SEEKFREE_OLED
   *DEL*:           00046AH   BYTE   INSEG    CODE           ?PR?OLED_DIS_BMP?SEEKFREE_OLED
   *DEL*:           0000C5H   BYTE   INSEG    CODE           ?PR?OLED_INIT_SPI?SEEKFREE_OLED
   *DEL*:           000121H   BYTE   INSEG    CODE           ?PR?OLED_P8X16STR?SEEKFREE_OLED
   *DEL*:           000040H   BYTE   INSEG    CODE           ?PR?OLED_CLRPIXEL?SEEKFREE_OLED
   *DEL*:           0000C0H   BYTE   INSEG    CODE           ?PR?OLED_PRINT_CHINESE?SEEKFREE_OLED
   *DEL*:           00008AH   BYTE   INSEG    CODE           ?PR?CCD_SEND_DATA?SEEKFREE_TSL1401
   *DEL*:           000017H   BYTE   INSEG    CODE           ?PR?CCD_INIT?SEEKFREE_TSL1401
   *DEL*:           00005FH   BYTE   INSEG    CODE           ?PR?CCD_COLLECT?SEEKFREE_TSL1401
   *DEL*:           00009AH   BYTE   INSEG    CODE           ?PR?CRC_CHECK?SEEKFREE_VIRSCO
   *DEL*:           0000DCH   BYTE   INSEG    CODE           ?PR?DATA_CONVERSION?SEEKFREE_VIRSCO
   *DEL*:           00002EH   BYTE   INSEG    CODE           ?PR?WIRELESS_UART_READ_BUFF?SEEKFREE_WIRELESS
   *DEL*:           000073H   BYTE   INSEG    CODE           ?PR?WIRELESS_UART_SEND_BUFF?SEEKFREE_WIRELESS
   *DEL*:           00003EH   BYTE   INSEG    CODE           ?PR?WIRELESS_UART_INIT?SEEKFREE_WIRELESS
   *DEL*:           00002EH   BYTE   INSEG    CODE           ?PR?WIRELESS_CH573_READ_BUFF?SEEKFREE_WIRELESS_CH573
   *DEL*:           000073H   BYTE   INSEG    CODE           ?PR?WIRELESS_CH573_SEND_BUFF?SEEKFREE_WIRELESS_CH573
   *DEL*:           00003EH   BYTE   INSEG    CODE           ?PR?WIRELESS_CH573_INIT?SEEKFREE_WIRELESS_CH573
   *DEL*:           000050H   BYTE   INSEG    CODE           ?PR?IMU660RA_GET_GYRO?SEEKFREE_IMU660RA
   *DEL*:           000022H   BYTE   INSEG    CODE           ?PR?IMU660RA_WRITE_REGISTERS?SEEKFREE_IMU660RA
   *DEL*:           0000A8H   BYTE   INSEG    CODE           ?PR?IMU660RA_GYRO_TRANSITION?SEEKFREE_IMU660RA
   *DEL*:           00001AH   BYTE   INSEG    CODE           ?PR?IMU660RA_WRITE_REGISTER?SEEKFREE_IMU660RA
L251 LINKER/LOCATER V4.66.93.0                                                        07/17/2023  20:23:02  PAGE 13


   *DEL*:           00004BH   BYTE   INSEG    CODE           ?PR?IMU660RA_SELF_CHECK?SEEKFREE_IMU660RA
   *DEL*:           00003EH   BYTE   INSEG    CODE           ?PR?IMU660RA_SIMSPI_W_REG_BYTES?SEEKFREE_IMU660RA
   *DEL*:           00001BH   BYTE   INSEG    CODE           ?PR?IMU660RA_SIMSPI_W_REG_BYTE?SEEKFREE_IMU660RA
   *DEL*:           0000AAH   BYTE   INSEG    CODE           ?PR?IMU660RA_INIT?SEEKFREE_IMU660RA
   *DEL*:           000050H   BYTE   INSEG    CODE           ?PR?IMU660RA_GET_ACC?SEEKFREE_IMU660RA
   *DEL*:           00007CH   BYTE   INSEG    CODE           ?PR?IMU660RA_ACC_TRANSITION?SEEKFREE_IMU660RA
   *DEL*:           000026H   BYTE   INSEG    CODE           ?PR?IMU660RA_READ_REGISTERS?SEEKFREE_IMU660RA
   *DEL*:           000010H   BYTE   INSEG    CODE           ?PR?TFT_SHOW?ALL_INIT
   *DEL*:           000192H   BYTE   INSEG    CODE           ?PR?ADC_MEAN_FILTER_CONVERT?ELECTRONIC
   *DEL*:           000013H   BYTE   INSEG    CODE           ?PR?IN_GARAGE?ELEMENT
   *DEL*:           0000D7H   BYTE   INSEG    CODE           ?PR?GO_RING?ELEMENT
   *DEL*:           000033H   BYTE   INSEG    CODE           ?PR?CONSTRAIN_FLOAT?LQ_PID
   *DEL*:           000157H   BYTE   INSEG    CODE           ?PR?PIDLOCCTRL?LQ_PID
   *DEL*:           000028H   BYTE   UNIT     EDATA          ?ED?PRINTF
   *DEL*:           00001AH   BYTE   INSEG    CODE           ?PR?MEMSET?_?MEMSET



OVERLAY MAP OF MODULE:   .\Out_File\SEEKFREE (board)


FUNCTION/MODULE                                BIT_GROUP   DATA_GROUP 
--> CALLED FUNCTION/MODULE                    START  STOP  START  STOP
======================================================================
UART1_Isr/isr                                 ----- -----  ----- -----

*** NEW ROOT ********************************

UART2_Isr/isr                                 ----- -----  ----- -----

*** NEW ROOT ********************************

UART3_Isr/isr                                 ----- -----  ----- -----

*** NEW ROOT ********************************

UART4_Isr/isr                                 ----- -----  ----- -----
  +--> wireless_uart_callback/SEEKFREE_WIRELESS
  +--> bluetooth_ch9141_uart_callback/SEEKFREE_BLUETOOTH_CH9141
  +--> wireless_ch573_callback/SEEKFREE_WIRELESS_CH573

wireless_uart_callback/SEEKFREE_WIRELESS      ----- -----  ----- -----
  +--> fifo_write_buffer/zf_fifo

fifo_write_buffer/zf_fifo                     ----- -----  ----- -----
  +--> memcpy?_/memcpy
  +--> fifo_head_offset/zf_fifo

memcpy?_/memcpy                               ----- -----  ----- -----

fifo_head_offset/zf_fifo                      ----- -----  ----- -----

bluetooth_ch9141_uart_callback/SEEKFREE_+     ----- -----  ----- -----
... BLUETOOTH_CH9141
  +--> fifo_write_buffer/zf_fifo

wireless_ch573_callback/SEEKFREE_WIRELES+     ----- -----  ----- -----
... S_CH573
  +--> fifo_write_buffer/zf_fifo

*** NEW ROOT ********************************

INT0_Isr/isr                                  ----- -----  ----- -----

*** NEW ROOT ********************************
L251 LINKER/LOCATER V4.66.93.0                                                        07/17/2023  20:23:02  PAGE 14



INT1_Isr/isr                                  ----- -----  ----- -----

*** NEW ROOT ********************************

INT2_Isr/isr                                  ----- -----  ----- -----

*** NEW ROOT ********************************

INT3_Isr/isr                                  ----- -----  ----- -----

*** NEW ROOT ********************************

INT4_Isr/isr                                  ----- -----  ----- -----

*** NEW ROOT ********************************

TM0_Isr/isr                                   ----- -----  ----- -----

*** NEW ROOT ********************************

TM1_Isr/isr                                   ----- -----  ----- -----
  +--> InductorNormal/electronic
  +--> Judge_Game/element

InductorNormal/electronic                     ----- -----  ----- -----
  +--> adc_data_convert/electronic
  +--> adc_filter/electronic

adc_data_convert/electronic                   ----- -----  ----- -----
  +--> adc_once/zf_adc

adc_once/zf_adc                               ----- -----  ----- -----

adc_filter/electronic                         ----- -----  ----- -----

Judge_Game/element                            ----- -----  ----- -----
  +--> Bal_control/bal
  +--> go_4_ring/element
  +--> Motor_SpeedSet/motor
  +--> FABS?_/FABS

Bal_control/bal                               ----- -----  ----- -----
  +--> PidIncCtrl/LQ_PID
  +--> velocity_control/bal

PidIncCtrl/LQ_PID                             ----- -----  ----- -----

velocity_control/bal                          ----- -----  ----- -----
  +--> encoder_get/motor
  +--> PidIncCtrl/LQ_PID
  +--> ctimer_count_clean/zf_tim

encoder_get/motor                             ----- -----  ----- -----
  +--> ctimer_count_read/zf_tim
  +--> ctimer_count_clean/zf_tim

ctimer_count_read/zf_tim                      ----- -----  ----- -----

ctimer_count_clean/zf_tim                     ----- -----  ----- -----

go_4_ring/element                             ----- -----  ----- -----

Motor_SpeedSet/motor                          ----- -----  ----- -----
  +--> pwm_duty/zf_pwm
L251 LINKER/LOCATER V4.66.93.0                                                        07/17/2023  20:23:02  PAGE 15



pwm_duty/zf_pwm                               ----- -----  ----- -----

FABS?_/FABS                                   ----- -----  ----- -----

*** NEW ROOT ********************************

TM2_Isr/isr                                   ----- -----  ----- -----

*** NEW ROOT ********************************

TM3_Isr/isr                                   ----- -----  ----- -----

*** NEW ROOT ********************************

TM4_Isr/isr                                   ----- -----  ----- -----

*** NEW ROOT ********************************

?C_C51STARTUP?1                               ----- -----  ----- -----

*** NEW ROOT ********************************

?C_C51STARTUP                                 ----- -----  ----- -----

*** NEW ROOT ********************************

?C_C51STARTUP?3                               ----- -----  ----- -----
  +--> main/main

main/main                                     ----- -----  ----- -----
  +--> board_init/board
  +--> All_init/all_init
  +--> pit_timer_ms/zf_tim
  +--> out_garage/element
  +--> lcd_showfloat_simspi/SEEKFREE_18TFT

board_init/board                              ----- -----  ----- -----
  +--> set_clk/board
  +--> delay_init/zf_delay
  +--> uart_init/zf_uart
  +--> EnableGlobalIRQ/board

set_clk/board                                 ----- -----  ----- -----

delay_init/zf_delay                           ----- -----  ----- -----
  +--> ?C?SLDIV/?C?SLDIV

?C?SLDIV/?C?SLDIV                             ----- -----  ----- -----
  +--> ?C?ULIDIV/?C?ULDIV

?C?ULIDIV/?C?ULDIV                            ----- -----  ----- -----

uart_init/zf_uart                             ----- -----  ----- -----
  +--> ?C?ULIDIV/?C?ULDIV

EnableGlobalIRQ/board                         ----- -----  ----- -----

All_init/all_init                             ----- -----  ----- -----
  +--> Motor_Init/motor
  +--> Encoder_init/motor
  +--> All_PID_Init/bal
  +--> ADC_6_road_init/electronic
  +--> lcd_init_simspi/SEEKFREE_18TFT

L251 LINKER/LOCATER V4.66.93.0                                                        07/17/2023  20:23:02  PAGE 16


Motor_Init/motor                              ----- -----  ----- -----
  +--> pwm_init/zf_pwm

pwm_init/zf_pwm                               ----- -----  ----- -----
  +--> pwm_set_gpio/zf_pwm
  +--> ?C?ULIDIV/?C?ULDIV

pwm_set_gpio/zf_pwm                           ----- -----  ----- -----
  +--> gpio_mode/zf_gpio

gpio_mode/zf_gpio                             ----- -----  ----- -----

Encoder_init/motor                            ----- -----  ----- -----
  +--> ctimer_count_init/zf_tim

ctimer_count_init/zf_tim                      ----- -----  ----- -----

All_PID_Init/bal                              ----- -----  ----- -----
  +--> PidInit/LQ_PID

PidInit/LQ_PID                                ----- -----  ----- -----

ADC_6_road_init/electronic                    ----- -----  ----- -----
  +--> adc_init/zf_adc

adc_init/zf_adc                               ----- -----  ----- -----

lcd_init_simspi/SEEKFREE_18TFT                ----- -----  ----- -----
  +--> delay_ms/zf_delay
  +--> lcd_writeIndex_simspi/SEEKFREE_18TFT
  +--> lcd_writeData_simspi/SEEKFREE_18TFT
  +--> lcd_clear_simspi/SEEKFREE_18TFT

delay_ms/zf_delay                             ----- -----  ----- -----

lcd_writeIndex_simspi/SEEKFREE_18TFT          ----- -----  ----- -----

lcd_writeData_simspi/SEEKFREE_18TFT           ----- -----  ----- -----

lcd_clear_simspi/SEEKFREE_18TFT               ----- -----  ----- -----
  +--> lcd_set_region_simspi/SEEKFREE_18TFT
  +--> lcd_writeData_16bit_simspi/SEEKFREE_18TFT

lcd_set_region_simspi/SEEKFREE_18TFT          ----- -----  ----- -----
  +--> lcd_writeIndex_simspi/SEEKFREE_18TFT
  +--> lcd_writeData_simspi/SEEKFREE_18TFT

lcd_writeData_16bit_simspi/SEEKFREE_18TF+     ----- -----  ----- -----
... T

pit_timer_ms/zf_tim                           ----- -----  ----- -----
  +--> ?C?SLDIV/?C?SLDIV

out_garage/element                            ----- -----  ----- -----
  +--> Motor_SpeedSet/motor
  +--> delay_ms/zf_delay

lcd_showfloat_simspi/SEEKFREE_18TFT           ----- -----  ----- -----
  +--> zf_sprintf/SEEKFREE_PRINTF
  +--> lcd_showstr_simspi/SEEKFREE_18TFT

zf_sprintf/SEEKFREE_PRINTF                    ----- -----  ----- -----
  +--> number_conversion_ascii/SEEKFREE_PRINTF
  +--> printf_reverse_order/SEEKFREE_PRINTF
  +--> memcpy?_/memcpy
L251 LINKER/LOCATER V4.66.93.0                                                        07/17/2023  20:23:02  PAGE 17



number_conversion_ascii/SEEKFREE_PRINTF       ----- -----  ----- -----
  +--> ?C?SLDIV/?C?SLDIV
  +--> ?C?ULIDIV/?C?ULDIV

printf_reverse_order/SEEKFREE_PRINTF          ----- -----  ----- -----

lcd_showstr_simspi/SEEKFREE_18TFT             ----- -----  ----- -----
  +--> lcd_showchar_simspi/SEEKFREE_18TFT

lcd_showchar_simspi/SEEKFREE_18TFT            ----- -----  ----- -----
  +--> lcd_set_region_simspi/SEEKFREE_18TFT
  +--> lcd_writeData_16bit_simspi/SEEKFREE_18TFT

*** NEW ROOT ********************************

?C_C51STARTUP?2                               ----- -----  ----- -----



PUBLIC SYMBOLS OF MODULE:  .\Out_File\SEEKFREE (board)


      VALUE       CLASS    TYPE      PUBLIC SYMBOL NAME
      =================================================
      00FF311EH   CODE     NEAR LAB  ?C?CASTF
      000000FFH   NUMBER   ---       ?C?CODESEG
      00FF30EBH   CODE     NEAR LAB  ?C?FCASTC
      00FF30E6H   CODE     NEAR LAB  ?C?FCASTI
      00FF30E1H   CODE     NEAR LAB  ?C?FCASTL
      00FF2EB4H   CODE     ---       ?C?FPADD
      00FF308FH   CODE     ---       ?C?FPCMP
      00FF308DH   CODE     ---       ?C?FPCMP3
      00FF3631H   CODE     ---       ?C?FPCONVERT
      00FF300CH   CODE     ---       ?C?FPDIV
      00FF3196H   CODE     ---       ?C?FPGETOPN2
      00FF2F6CH   CODE     ---       ?C?FPMUL
      00FF31D3H   CODE     ---       ?C?FPNANRESULT
      00FF30D3H   CODE     ---       ?C?FPNEG
      00FF31DBH   CODE     ---       ?C?FPOVERFLOW
      00FF31AFH   CODE     ---       ?C?FPRESULT
      00FF31C5H   CODE     ---       ?C?FPRESULT2
      00FF36E9H   CODE     ---       ?C?FPROUND
      00FF2EB1H   CODE     ---       ?C?FPSUB
      00FF31D8H   CODE     ---       ?C?FPUNDERFLOW
      00FF375CH   CODE     ---       ?C?FTNPWR
      00FF753AH   CODE     ---       ?C?INITEDATA
      00FE01B8H   HCONST   WORD      ?C?INITEDATA_END
      00FF37D6H   CODE     ---       ?C?LIMUL
      00FF37C5H   CODE     ---       ?C?LMUL
      00FF3214H   CODE     ---       ?C?PRNFMT
      00FF3793H   CODE     ---       ?C?SIDIV
      00FF3832H   CODE     NEAR LAB  ?C?SLDIV
      00FF0000H   CODE     ---       ?C?STARTUP
      00FF37E1H   CODE     NEAR LAB  ?C?ULDIV
      00FF37DFH   CODE     NEAR LAB  ?C?ULIDIV
      00000001H   NUMBER   ---       ?C?XDATASEG
      00FF0000H   CODE     ---       ?C_STARTUP
      00000AFEH   EDATA    BYTE      ?constrain_float?BYTE
      000009FEH   EDATA    BYTE      ?data_conversion?BYTE
      00000A26H   EDATA    BYTE      ?fifo_init?BYTE
      0000097FH   EDATA    BYTE      ?fifo_read_buffer?BYTE
      000009B6H   EDATA    BYTE      ?fifo_write_buffer?BYTE
      00000D16H   EDATA    BYTE      ?iic_init?BYTE
      00000744H   EDATA    BYTE      ?ips114_showfloat?BYTE
L251 LINKER/LOCATER V4.66.93.0                                                        07/17/2023  20:23:02  PAGE 18


      00000714H   EDATA    BYTE      ?ips114_showfloat_simspi?BYTE
      000006E4H   EDATA    BYTE      ?lcd_showfloat?BYTE
      000006B4H   EDATA    BYTE      ?lcd_showfloat_simspi?BYTE
      0000096BH   EDATA    BYTE      ?number_conversion_ascii?BYTE
      00000774H   EDATA    BYTE      ?oled_printf_float?BYTE
      000007A4H   EDATA    BYTE      ?oled_printf_float_spi?BYTE
*DEL*:00000028H   EDATA    ---       ?printf?BYTE
      00000957H   EDATA    BYTE      ?pwm_freq?BYTE
      00000943H   EDATA    BYTE      ?pwm_init?BYTE
      00000CDEH   EDATA    BYTE      ?spi_init?BYTE
      000009D4H   EDATA    BYTE      ?uart_init?BYTE
      0000057EH   EDATA    BYTE      ?zf_sprintf?BYTE
      0000054CH   EDATA    INT       ad_max_heng
      000004E7H   EDATA    INT       ad_max_shu
      000004E3H   EDATA    INT       ad_max_xie
      0000054AH   EDATA    INT       ad_min_heng
      000004E5H   EDATA    INT       ad_min_shu
      000004DFH   EDATA    INT       ad_min_xie
      00FF75E9H   CODE     ---       ADC_6_road_init
*SFR* 000000BCH   DATA     BYTE      ADC_CONTR
      000004F6H   EDATA    ---       ADC_DATA_CH0
      0000050EH   EDATA    ---       ADC_DATA_CH2
      00000526H   EDATA    ---       ADC_DATA_CH5
      00FF6854H   CODE     ---       adc_data_convert
      00FF6D78H   CODE     ---       adc_filter
      00FF6302H   CODE     ---       adc_init
*DEL*:00000000H   CODE     ---       adc_mean_filter_convert
      00FF6FF1H   CODE     ---       adc_once
*SFR* 000000BDH   DATA     BYTE      ADC_RES
*SFR* 000000BEH   DATA     BYTE      ADC_RESL
*SFR* 000000DEH   DATA     BYTE      ADCCFG
      0000032CH   EDATA    INT       AddSpeed
      00000934H   EDATA    CHAR      after_ring_in_garage
      00FF79AEH   CODE     ---       All_init
      00FF6A35H   CODE     ---       All_PID_Init
*DEL*:00000000H   CODE     ---       at24c02_read_byte
*DEL*:00000000H   CODE     ---       at24c02_read_bytes
*DEL*:00000000H   CODE     ---       at24c02_write_byte
*DEL*:00000000H   CODE     ---       at24c02_write_bytes
*SFR* 000000EFH   DATA     BYTE      AUXINTIF
*SFR* 0000008EH   DATA     BYTE      AUXR
*SFR* 00000097H   DATA     BYTE      AUXR2
      00FF6502H   CODE     ---       Bal_control
      0000093DH   EDATA    CHAR      bal_stop
      000003CCH   EDATA    INT       Basic_L_Speed
      000003FEH   EDATA    INT       Basic_R_Speed
*DEL*:00000000H   CODE     ---       bluetooth_ch9141_init
*DEL*:00000000H   CODE     ---       bluetooth_ch9141_read_buff
*DEL*:00000000H   CODE     ---       bluetooth_ch9141_send_buff
      00FF0066H   CODE     ---       bluetooth_ch9141_uart_callback
      00FF646BH   CODE     ---       board_init
      0000034EH   EDATA    WORD      Brake_CNT
      00000364H   EDATA    WORD      Brake_Flag
      000004CCH   EDATA    ---       busy
*SFR* 000000F1H   DATA     BYTE      CANICR
*DEL*:00000000H   CODE     ---       ccd_collect
      0000022CH   EDATA    ---       ccd_data
*DEL*:00000000H   CODE     ---       ccd_init
*DEL*:00000000H   CODE     ---       ccd_send_data
*SFR* 000000EAH   DATA     BYTE      CKCON
*SFR* 000000E6H   DATA     BYTE      CMPCR1
*SFR* 000000E7H   DATA     BYTE      CMPCR2
      00000DC3H   EDATA    CHAR      cnt
      00000DC4H   EDATA    CHAR      cnt2
*DEL*:00000000H   CODE     ---       constrain_float
L251 LINKER/LOCATER V4.66.93.0                                                        07/17/2023  20:23:02  PAGE 19


*DEL*:00000000H   CODE     ---       CRC_CHECK
      00FF6DD7H   CODE     ---       ctimer_count_clean
      00FF70F1H   CODE     ---       ctimer_count_init
      00FF63B7H   CODE     ---       ctimer_count_read
*DEL*:00000000H   CODE     ---       data_conversion
      00FF75A8H   CODE     ---       delay_init
      00FF7656H   CODE     ---       delay_ms
      00FF772AH   CODE     ---       delay_us
*DEL*:00000000H   CODE     ---       DisableGlobalIRQ
      00000E38H   EDATA    WORD      dl1a_distance_mm
      00000E3AH   EDATA    BYTE      dl1a_finsh_flag
*DEL*:00000000H   CODE     ---       dl1a_get_distance
*DEL*:00000000H   CODE     ---       dl1a_init
*SFR* 000000A8H.7 DATA     BIT       EA
*SFR* 000000BAH.7 DATA     BIT       EAXFR
      00FF79C7H   CODE     ---       eeprom_trig
      000004D1H   EDATA    FLOAT     electro_error
      00FF0006H   CODE     ---       EnableGlobalIRQ
*DEL*:00000000H   CODE     ---       encoder_angle_simspi
*DEL*:00000000H   CODE     ---       encoder_angle_spi
      00FF7AEBH   CODE     ---       encoder_delay_us
      00FF79DFH   CODE     ---       encoder_get
      00FF0046H   CODE     ---       Encoder_init
*DEL*:00000000H   CODE     ---       encoder_init_simspi
*DEL*:00000000H   CODE     ---       encoder_init_spi
*DEL*:00000000H   CODE     ---       encoder_self4_check
*DEL*:00000000H   CODE     ---       encoder_self5_check
*DEL*:00000000H   CODE     ---       encoder_simspi_r_reg_byte
*DEL*:00000000H   CODE     ---       encoder_simspi_w_reg_byte
*DEL*:00000000H   CODE     ---       encoder_spi_r_reg_byte
*DEL*:00000000H   CODE     ---       encoder_spi_w_reg_byte
*SFR* 000000A8H.4 DATA     BIT       ES
*SFR* 000000A8H.1 DATA     BIT       ET0
*SFR* 000000A8H.3 DATA     BIT       ET1
*SFR* 000000A8H.0 DATA     BIT       EX0
*SFR* 000000A8H.2 DATA     BIT       EX1
*DEL*:00000000H   CODE     ---       exit_init
*DEL*:00000000H   CODE     ---       extern_iap_write_bytes
*SFR* 000000D0H.5 DATA     BIT       F0
      00FF3187H   CODE     NEAR LAB  fabs?_
*DEL*:00000000H   CODE     ---       fifo_clear
*DEL*:00000000H   CODE     ---       fifo_end_offset
      00FF6B0FH   CODE     ---       fifo_head_offset
*DEL*:00000000H   CODE     ---       fifo_init
*DEL*:00000000H   CODE     ---       fifo_read_buffer
*DEL*:00000000H   CODE     ---       fifo_used
      00FF5C3FH   CODE     ---       fifo_write_buffer
      00000020H.0 BIT      BIT       flag_electronic
      0000092BH   EDATA    INT       flag_element_L
      0000092DH   EDATA    INT       flag_element_R
      00000942H   EDATA    CHAR      flag_garage
      00000DC1H   EDATA    INT       flag_stop
      0000093BH   EDATA    INT       flag_stop_ring
      00000348H   EDATA    INT       global_L_Speed_Now_car
      0000032EH   EDATA    FLOAT     global_pid_ki_out
      00000340H   EDATA    FLOAT     global_pid_kp_out
      0000034CH   EDATA    INT       global_R_Speed_Now_car
      00FF6C4BH   CODE     ---       go_4_ring
*DEL*:00000000H   CODE     ---       go_ring
      00FF3866H   CODE     ---       gpio_mode
*DEL*:00000000H   CODE     ---       gpio_pull_set
*SFR* 000000F6H   DATA     BYTE      IAP_ADDRE
*SFR* 000000C3H   DATA     BYTE      IAP_ADDRH
*SFR* 000000C4H   DATA     BYTE      IAP_ADDRL
*SFR* 000000C5H   DATA     BYTE      IAP_CMD
L251 LINKER/LOCATER V4.66.93.0                                                        07/17/2023  20:23:02  PAGE 20


*SFR* 000000C7H   DATA     BYTE      IAP_CONTR
*SFR* 000000C2H   DATA     BYTE      IAP_DATA
*DEL*:00000000H   CODE     ---       iap_erase_page
*DEL*:00000000H   CODE     ---       iap_get_cmd_state
*DEL*:00000000H   CODE     ---       iap_idle
*DEL*:00000000H   CODE     ---       iap_init
*DEL*:00000000H   CODE     ---       iap_read_bytes
*DEL*:00000000H   CODE     ---       iap_set_tps
*SFR* 000000F5H   DATA     BYTE      IAP_TPS
*SFR* 000000C6H   DATA     BYTE      IAP_TRIG
*DEL*:00000000H   CODE     ---       iap_write_bytes
*DEL*:00000000H   CODE     ---       icm20602_acc_transition
      00000A92H   EDATA    INT       icm20602_acc_x
      00000A94H   EDATA    INT       icm20602_acc_y
      00000A96H   EDATA    INT       icm20602_acc_z
*DEL*:00000000H   CODE     ---       icm20602_get_acc
*DEL*:00000000H   CODE     ---       icm20602_get_gyro
*DEL*:00000000H   CODE     ---       icm20602_gyro_transition
      00000A98H   EDATA    INT       icm20602_gyro_x
      00000A9AH   EDATA    INT       icm20602_gyro_y
      00000A9CH   EDATA    INT       icm20602_gyro_z
*DEL*:00000000H   CODE     ---       icm20602_init
*SFR* 000000A8H   DATA     BYTE      IE
*SFR* 000000AFH   DATA     BYTE      IE2
*DEL*:00000000H   CODE     ---       iic_change_pin
      00FF768BH   CODE     ---       iic_delay_us
*DEL*:00000000H   CODE     ---       iic_init
*DEL*:00000000H   CODE     ---       iic_read_reg
*DEL*:00000000H   CODE     ---       iic_read_reg_bytes
*DEL*:00000000H   CODE     ---       iic_write_reg
*DEL*:00000000H   CODE     ---       imu660ra_acc_transition
      00000AF2H   EDATA    INT       imu660ra_acc_x
      00000AF4H   EDATA    INT       imu660ra_acc_y
      00000AF6H   EDATA    INT       imu660ra_acc_z
      00FF00A6H   CODE     ---       imu660ra_config_file
*DEL*:00000000H   CODE     ---       imu660ra_get_acc
*DEL*:00000000H   CODE     ---       imu660ra_get_gyro
*DEL*:00000000H   CODE     ---       imu660ra_gyro_transition
      00000AF8H   EDATA    INT       imu660ra_gyro_x
      00000AFAH   EDATA    INT       imu660ra_gyro_y
      00000AFCH   EDATA    INT       imu660ra_gyro_z
*DEL*:00000000H   CODE     ---       imu660ra_init
*DEL*:00000000H   CODE     ---       in_garage
      00FF6599H   CODE     ---       InductorNormal
      00FF7AF5H   CODE     ---       INT0_Isr
      00FF000AH   CODE     ---       INT1_Isr
      00FF7AFDH   CODE     ---       INT2_Isr
      00FF7B05H   CODE     ---       INT3_Isr
      00FF7B0DH   CODE     ---       INT4_Isr
*SFR* 0000008FH   DATA     BYTE      INTCLKO
*SFR* 000000B8H   DATA     BYTE      IP
*SFR* 000000B5H   DATA     BYTE      IP2
*SFR* 000000B6H   DATA     BYTE      IP2H
*SFR* 000000DFH   DATA     BYTE      IP3
*SFR* 000000EEH   DATA     BYTE      IP3H
*SFR* 000000B7H   DATA     BYTE      IPH
*DEL*:00000000H   CODE     ---       ips114_clear
*DEL*:00000000H   CODE     ---       ips114_clear_simspi
*DEL*:00000000H   CODE     ---       ips114_drawpoint
*DEL*:00000000H   CODE     ---       ips114_drawpoint_simspi
*DEL*:00000000H   CODE     ---       ips114_init
*DEL*:00000000H   CODE     ---       ips114_init_simspi
*DEL*:00000000H   CODE     ---       ips114_set_region
*DEL*:00000000H   CODE     ---       ips114_set_region_simspi
*DEL*:00000000H   CODE     ---       ips114_showchar
L251 LINKER/LOCATER V4.66.93.0                                                        07/17/2023  20:23:02  PAGE 21


*DEL*:00000000H   CODE     ---       ips114_showchar_simspi
*DEL*:00000000H   CODE     ---       ips114_showfloat
*DEL*:00000000H   CODE     ---       ips114_showfloat_simspi
*DEL*:00000000H   CODE     ---       ips114_showint16
*DEL*:00000000H   CODE     ---       ips114_showint16_simspi
*DEL*:00000000H   CODE     ---       ips114_showint32
*DEL*:00000000H   CODE     ---       ips114_showint32_simspi
*DEL*:00000000H   CODE     ---       ips114_showint8
*DEL*:00000000H   CODE     ---       ips114_showint8_simspi
*DEL*:00000000H   CODE     ---       ips114_showstr
*DEL*:00000000H   CODE     ---       ips114_showstr_simspi
*DEL*:00000000H   CODE     ---       ips114_showuint16
*DEL*:00000000H   CODE     ---       ips114_showuint16_simspi
*DEL*:00000000H   CODE     ---       ips114_showuint8
*DEL*:00000000H   CODE     ---       ips114_showuint8_simspi
*DEL*:00000000H   CODE     ---       ips114_writeData
      00FF77B1H   CODE     ---       ips114_writedata_16bit
*DEL*:00000000H   CODE     ---       ips114_writeData_simspi
      00FF709CH   CODE     ---       ips114_writeDatai_16bit_simspi
      00FF7A62H   CODE     ---       ips114_writeIndex
      00FF7320H   CODE     ---       ips114_writeIndex_simspi
*SFR* 0000009DH   DATA     BYTE      IRCBAND
*SFR* 0000009FH   DATA     BYTE      IRTRIM
*SFR* 00000088H.0 DATA     BIT       IT0
*SFR* 00000088H.2 DATA     BIT       IT1
      00FF6753H   CODE     ---       Judge_Game
*SFR* 00000090H.7 DATA     BIT       key
      00000550H   EDATA    INT       L0
      00000552H   EDATA    INT       L1
      00000554H   EDATA    INT       L2
      00000336H   EDATA    INT       L_Speed_Last_Error
      00000366H   EDATA    INT       L_Speed_Now_car
      00000346H   EDATA    INT       L_Speed_Now_Error
      0000036CH   EDATA    ---       L_Speed_PID
      00000350H   EDATA    FLOAT     L_target
*DEL*:00000000H   CODE     ---       lcd_clear
      00FF6F9AH   CODE     ---       lcd_clear_simspi
*DEL*:00000000H   CODE     ---       lcd_drawpoint
*DEL*:00000000H   CODE     ---       lcd_drawpoint_simspi
*DEL*:00000000H   CODE     ---       lcd_init
      00FF564DH   CODE     ---       lcd_init_simspi
      00FF6D14H   CODE     ---       lcd_set_region
      00FF6CB0H   CODE     ---       lcd_set_region_simspi
*DEL*:00000000H   CODE     ---       lcd_showchar
      00FF6243H   CODE     ---       lcd_showchar_simspi
*DEL*:00000000H   CODE     ---       lcd_showfloat
      00FF5AFAH   CODE     ---       lcd_showfloat_simspi
*DEL*:00000000H   CODE     ---       lcd_showint16
*DEL*:00000000H   CODE     ---       lcd_showint16_simspi
*DEL*:00000000H   CODE     ---       lcd_showint32
*DEL*:00000000H   CODE     ---       lcd_showint32_simspi
*DEL*:00000000H   CODE     ---       lcd_showint8
*DEL*:00000000H   CODE     ---       lcd_showint8_simspi
*DEL*:00000000H   CODE     ---       lcd_showstr
      00FF6E34H   CODE     ---       lcd_showstr_simspi
*DEL*:00000000H   CODE     ---       lcd_showuint16
*DEL*:00000000H   CODE     ---       lcd_showuint16_simspi
*DEL*:00000000H   CODE     ---       lcd_showuint8
*DEL*:00000000H   CODE     ---       lcd_showuint8_simspi
      00FF7A4DH   CODE     ---       lcd_writeData
      00FF775DH   CODE     ---       lcd_writedata_16bit
      00FF7047H   CODE     ---       lcd_writeData_16bit_simspi
      00FF72D4H   CODE     ---       lcd_writeData_simspi
      00FF7A38H   CODE     ---       lcd_writeIndex
      00FF7288H   CODE     ---       lcd_writeIndex_simspi
L251 LINKER/LOCATER V4.66.93.0                                                        07/17/2023  20:23:02  PAGE 22


      000004ECH   EDATA    INT       left
      000004D7H   EDATA    FLOAT     Limit
*SFR* 000000F9H   DATA     BYTE      LINICR
      0000053EH   EDATA    ---       LnowADC
      000004E1H   EDATA    INT       MagneticField
      00FF6AA3H   CODE     ---       main
      00FF787AH   CODE     ---       memcpy?_
*DEL*:00000000H   CODE     ---       memset?_
      0000054EH   EDATA    INT       middle
      00FF74DEH   CODE     ---       Motor_Init
      00FF5FA6H   CODE     ---       Motor_SpeedSet
      00000ACEH   EDATA    INT       mpu6050_acc_x
      00000AD0H   EDATA    INT       mpu6050_acc_y
      00000AD2H   EDATA    INT       mpu6050_acc_z
*DEL*:00000000H   CODE     ---       mpu6050_get_accdata
*DEL*:00000000H   CODE     ---       mpu6050_get_gyro
      00000AD4H   EDATA    INT       mpu6050_gyro_x
      00000AD6H   EDATA    INT       mpu6050_gyro_y
      00000AD8H   EDATA    INT       mpu6050_gyro_z
*DEL*:00000000H   CODE     ---       mpu6050_init
*DEL*:00000000H   CODE     ---       mpu6050_simiic_read_reg
*DEL*:00000000H   CODE     ---       mpu6050_simiic_read_regs
      00FF5E8FH   CODE     ---       number_conversion_ascii
*DEL*:00000000H   CODE     ---       NVIC_SetPriority
      00FF2C86H   CODE     ---       oled_6x8
      00FF20A6H   CODE     ---       oled_8x16
*DEL*:00000000H   CODE     ---       oled_clrpixel
*DEL*:00000000H   CODE     ---       oled_clrpixel_spi
*DEL*:00000000H   CODE     ---       oled_dis_bmp
*DEL*:00000000H   CODE     ---       oled_dis_bmp_spi
*DEL*:00000000H   CODE     ---       oled_fill
*DEL*:00000000H   CODE     ---       oled_fill_spi
*DEL*:00000000H   CODE     ---       oled_hexascii
*DEL*:00000000H   CODE     ---       oled_hexascii_spi
*DEL*:00000000H   CODE     ---       oled_init
*DEL*:00000000H   CODE     ---       oled_init_spi
*DEL*:00000000H   CODE     ---       oled_int16
*DEL*:00000000H   CODE     ---       oled_int16_spi
*DEL*:00000000H   CODE     ---       oled_p6x8str
*DEL*:00000000H   CODE     ---       oled_p6x8str_spi
*DEL*:00000000H   CODE     ---       oled_p8x16str
*DEL*:00000000H   CODE     ---       oled_p8x16str_spi
*DEL*:00000000H   CODE     ---       oled_print_chinese
*DEL*:00000000H   CODE     ---       oled_print_chinese_spi
*DEL*:00000000H   CODE     ---       oled_printf_float
*DEL*:00000000H   CODE     ---       oled_printf_float_spi
*DEL*:00000000H   CODE     ---       oled_printf_int32
*DEL*:00000000H   CODE     ---       oled_printf_int32_spi
*DEL*:00000000H   CODE     ---       oled_putpixel
*DEL*:00000000H   CODE     ---       oled_putpixel_spi
      00FF76C0H   CODE     ---       oled_set_pos
      00FF7620H   CODE     ---       oled_set_pos_spi
*DEL*:00000000H   CODE     ---       oled_uint16
*DEL*:00000000H   CODE     ---       oled_uint16_spi
      00FF736CH   CODE     ---       oled_wrcmd
      00FF7A77H   CODE     ---       oled_wrcmd_spi
      00FF73B8H   CODE     ---       oled_wrdat
      00FF7A8CH   CODE     ---       oled_wrdat_spi
      00FF76F5H   CODE     ---       out_garage
      00000020H.1 BIT      BIT       outRing_flag
*SFR* 00000080H   DATA     BYTE      P0
*SFR* 00000080H.7 DATA     BIT       P07
*SFR* 00000094H   DATA     BYTE      P0M0
*SFR* 00000093H   DATA     BYTE      P0M1
*SFR* 00000090H   DATA     BYTE      P1
L251 LINKER/LOCATER V4.66.93.0                                                        07/17/2023  20:23:02  PAGE 23


*SFR* 00000090H.6 DATA     BIT       P16
*SFR* 00000092H   DATA     BYTE      P1M0
*SFR* 00000091H   DATA     BYTE      P1M1
*SFR* 000000A0H   DATA     BYTE      P2
*SFR* 000000A0H.0 DATA     BIT       P20
*SFR* 000000A0H.1 DATA     BIT       P21
*SFR* 000000A0H.2 DATA     BIT       P22
*SFR* 000000A0H.3 DATA     BIT       P23
*SFR* 000000A0H.4 DATA     BIT       P24
*SFR* 000000A0H.5 DATA     BIT       P25
*SFR* 000000A0H.6 DATA     BIT       P26
*SFR* 000000A0H.7 DATA     BIT       P27
*SFR* 00000096H   DATA     BYTE      P2M0
*SFR* 00000095H   DATA     BYTE      P2M1
*SFR* 000000B0H   DATA     BYTE      P3
*SFR* 000000B0H.2 DATA     BIT       P32
*SFR* 000000B0H.3 DATA     BIT       P33
*SFR* 000000B0H.5 DATA     BIT       P35
*SFR* 000000B0H.6 DATA     BIT       P36
*SFR* 000000B2H   DATA     BYTE      P3M0
*SFR* 000000B1H   DATA     BYTE      P3M1
*SFR* 000000C0H   DATA     BYTE      P4
*SFR* 000000C0H.0 DATA     BIT       P40
*SFR* 000000C0H.1 DATA     BIT       P41
*SFR* 000000C0H.2 DATA     BIT       P42
*SFR* 000000C0H.3 DATA     BIT       P43
*SFR* 000000C0H.5 DATA     BIT       P45
*SFR* 000000C0H.7 DATA     BIT       P47
*SFR* 000000B4H   DATA     BYTE      P4M0
*SFR* 000000B3H   DATA     BYTE      P4M1
*SFR* 000000C8H   DATA     BYTE      P5
*SFR* 000000C8H.2 DATA     BIT       P52
*SFR* 000000C8H.3 DATA     BIT       P53
*SFR* 000000CAH   DATA     BYTE      P5M0
*SFR* 000000C9H   DATA     BYTE      P5M1
*SFR* 000000E8H   DATA     BYTE      P6
*SFR* 000000E8H.3 DATA     BIT       P63
*SFR* 000000E8H.5 DATA     BIT       P65
*SFR* 000000CCH   DATA     BYTE      P6M0
*SFR* 000000CBH   DATA     BYTE      P6M1
*SFR* 000000F8H   DATA     BYTE      P7
*SFR* 000000E2H   DATA     BYTE      P7M0
*SFR* 000000E1H   DATA     BYTE      P7M1
*SFR* 000000A2H   DATA     BYTE      P_SW1
*SFR* 000000BAH   DATA     BYTE      P_SW2
*SFR* 000000BBH   DATA     BYTE      P_SW3
*SFR* 00000087H   DATA     BYTE      PCON
      00FF59B1H   CODE     ---       PidIncCtrl
      00FF6178H   CODE     ---       PidInit
*DEL*:00000000H   CODE     ---       PidLocCtrl
      00FF6093H   CODE     ---       pit_timer_ms
      00FF315BH   CODE     NEAR LAB  printf
      00FF6630H   CODE     ---       printf_reverse_order
*SFR* 000000D0H   DATA     BYTE      PSW
      00000354H   EDATA    INT       Pulse_L
      0000035EH   EDATA    INT       Pulse_R
      00FF7AC7H   CODE     ---       putchar
      00FE01DAH   HCONST   ---       PWM_ARR_ADDR
      00FE01E2H   HCONST   ---       PWM_CCER_ADDR
      00FE01F2H   HCONST   ---       PWM_CCMR_ADDR
      00FE01BAH   HCONST   ---       PWM_CCR_ADDR
      00FF5D77H   CODE     ---       pwm_duty
*DEL*:00000000H   CODE     ---       pwm_freq
      00FF47C4H   CODE     ---       pwm_init
      00FF4B9EH   CODE     ---       pwm_set_gpio
L251 LINKER/LOCATER V4.66.93.0                                                        07/17/2023  20:23:02  PAGE 24


      000004D5H   EDATA    INT       R0
      000004DBH   EDATA    INT       R1
      000004DDH   EDATA    INT       R2
      00000344H   EDATA    INT       R_Speed_Last_Error
      00000368H   EDATA    INT       R_Speed_Now_car
      0000034AH   EDATA    INT       R_Speed_Now_Error
      0000039CH   EDATA    ---       R_Speed_PID
      0000035AH   EDATA    FLOAT     R_target
*DEL*:00000000H   CODE     ---       recv_ack
*DEL*:00000000H   CODE     ---       recv_data
      000004E9H   EDATA    INT       right
      00000930H   EDATA    FLOAT     road
      00000937H   EDATA    FLOAT     road_L
      0000093EH   EDATA    FLOAT     road_R
*SFR* 000000FFH   DATA     BYTE      RSTCFG
*SFR* 0000009BH   DATA     BYTE      S2BUF
*SFR* 0000009AH   DATA     BYTE      S2CON
*SFR* 000000ADH   DATA     BYTE      S3BUF
*SFR* 000000ACH   DATA     BYTE      S3CON
*SFR* 000000FEH   DATA     BYTE      S4BUF
*SFR* 000000FDH   DATA     BYTE      S4CON
*SFR* 00000099H   DATA     BYTE      SBUF
*SFR* 00000098H   DATA     BYTE      SCON
*DEL*:00000000H   CODE     ---       send_ack
*DEL*:00000000H   CODE     ---       send_data
*DEL*:00000000H   CODE     ---       send_nak
      00FF5447H   CODE     ---       set_clk
*DEL*:00000000H   CODE     ---       set_zero_position_simspi
*DEL*:00000000H   CODE     ---       set_zero_position_spi
*DEL*:00000000H   CODE     ---       showimage
*DEL*:00000000H   CODE     ---       simspi_r_reg_byte
*DEL*:00000000H   CODE     ---       simspi_w_reg_byte
*DEL*:00000000H   CODE     ---       simspi_wr_byte
*SFR* 000000CEH   DATA     BYTE      SPCTL
*SFR* 000000CFH   DATA     BYTE      SPDAT
      00000356H   EDATA    FLOAT     Speed_L_Out
      00000360H   EDATA    FLOAT     Speed_R_Out
      0000036AH   EDATA    WORD      Speed_Target_car
*DEL*:00000000H   CODE     ---       spi_change_mode
*DEL*:00000000H   CODE     ---       spi_change_pin
*DEL*:00000000H   CODE     ---       spi_init
      00FF7AD9H   CODE     ---       spi_mosi
*DEL*:00000000H   CODE     ---       spi_r_reg_byte
*DEL*:00000000H   CODE     ---       spi_w_reg_byte
*DEL*:00000000H   CODE     ---       spi_wr_byte
*SFR* 000000CDH   DATA     BYTE      SPSTAT
*DEL*:00000000H   CODE     ---       start
      0000092FH   EDATA    CHAR      start_judge
*DEL*:00000000H   CODE     ---       stop
      0000092AH   EDATA    CHAR      stop_garage
      00000DC6H   EDATA    LONG      sys_clk
*SFR* 000000D6H   DATA     BYTE      T2H
*SFR* 000000D7H   DATA     BYTE      T2L
*SFR* 000000D4H   DATA     BYTE      T3H
*SFR* 000000D5H   DATA     BYTE      T3L
*SFR* 000000D2H   DATA     BYTE      T4H
*SFR* 000000D3H   DATA     BYTE      T4L
*SFR* 000000DDH   DATA     BYTE      T4T3M
*SFR* 00000088H   DATA     BYTE      TCON
      00FF2696H   CODE     ---       tft_ascii
*DEL*:00000000H   CODE     ---       Tft_show
*SFR* 0000008CH   DATA     BYTE      TH0
*SFR* 0000008DH   DATA     BYTE      TH1
      00000935H   EDATA    INT       time_ring
*SFR* 0000008AH   DATA     BYTE      TL0
L251 LINKER/LOCATER V4.66.93.0                                                        07/17/2023  20:23:02  PAGE 25


*SFR* 0000008BH   DATA     BYTE      TL1
      00FF000EH   CODE     ---       TM0_Isr
      00FF723AH   CODE     ---       TM1_Isr
      00FF7B15H   CODE     ---       TM2_Isr
      00FF7B1DH   CODE     ---       TM3_Isr
      00FF7B25H   CODE     ---       TM4_Isr
*SFR* 00000089H   DATA     BYTE      TMOD
*SFR* 00000088H.4 DATA     BIT       TR0
*SFR* 00000088H.6 DATA     BIT       TR1
      0000022BH   EDATA    BYTE      tsl1401_finish_flag
      000004EBH   EDATA    CHAR      Turn_flag
      00000338H   EDATA    FLOAT     Turn_K1
      0000033CH   EDATA    FLOAT     Turn_K2
      00000332H   EDATA    FLOAT     Turn_OUT
      00000400H   EDATA    FLOAT     Turn_OUT_Error
      000003CEH   EDATA    ---       Turn_PID
      00FF7498H   CODE     ---       UART1_Isr
      00000404H   EDATA    ---       uart1_rx_buff
      00000468H   EDATA    ---       uart1_tx_buff
      00FF793EH   CODE     ---       UART2_Isr
      00FF795CH   CODE     ---       UART3_Isr
      00FF69C2H   CODE     ---       UART4_Isr
      00FF4F56H   CODE     ---       uart_init
*DEL*:00000000H   CODE     ---       uart_putbuff
      00FF694DH   CODE     ---       uart_putchar
*DEL*:00000000H   CODE     ---       uart_putstr
*SFR* 000000F4H   DATA     BYTE      USBCON
      00FF5208H   CODE     ---       velocity_control
      00000B86H   EDATA    ---       virtual_scope_data
*SFR* 000000A6H   DATA     BYTE      VRTRIM
      00FF6F43H   CODE     ---       wait
*SFR* 000000C1H   DATA     BYTE      WDT_CONTR
      000004EEH   EDATA    FLOAT     weightA
      000004F2H   EDATA    FLOAT     weightB
      00FF7994H   CODE     ---       wireless_ch573_callback
*DEL*:00000000H   CODE     ---       wireless_ch573_init
*DEL*:00000000H   CODE     ---       wireless_ch573_read_buff
*DEL*:00000000H   CODE     ---       wireless_ch573_send_buff
      00000E65H   EDATA    INT       wireless_type
      00FF797AH   CODE     ---       wireless_uart_callback
*DEL*:00000000H   CODE     ---       wireless_uart_init
*DEL*:00000000H   CODE     ---       wireless_uart_read_buff
*DEL*:00000000H   CODE     ---       wireless_uart_send_buff
*SFR* 000000E9H   DATA     BYTE      WTST
      00000DCEH   EDATA    WORD      zf_delay_ms
      00000DD0H   EDATA    WORD      zf_delay_us
      00FF4173H   CODE     ---       zf_sprintf



SYMBOL TABLE OF MODULE:  .\Out_File\SEEKFREE (board)

      VALUE       REP       CLASS    TYPE      SYMBOL NAME
      ====================================================
      ---         MODULE    ---      ---       board
      00FF0006H   PUBLIC    CODE     ---       EnableGlobalIRQ
      00FF646BH   PUBLIC    CODE     ---       board_init
      00FF5447H   PUBLIC    CODE     ---       set_clk
      00FF7AC7H   PUBLIC    CODE     ---       putchar
      00000DC6H   PUBLIC    EDATA    LONG      sys_clk
      00000094H   SFRSYM    DATA     BYTE      P0M0
      000000D0H   SFRSYM    DATA     BYTE      PSW
      000000BAH.7 SFRSYM    DATA     BIT       EAXFR
      0000009DH   SFRSYM    DATA     BYTE      IRCBAND
      00000097H   SFRSYM    DATA     BYTE      AUXR2
L251 LINKER/LOCATER V4.66.93.0                                                        07/17/2023  20:23:02  PAGE 26


      000000EAH   SFRSYM    DATA     BYTE      CKCON
      000000EFH   SFRSYM    DATA     BYTE      AUXINTIF
      000000FDH   SFRSYM    DATA     BYTE      S4CON
      000000ACH   SFRSYM    DATA     BYTE      S3CON
      0000009AH   SFRSYM    DATA     BYTE      S2CON
      000000A6H   SFRSYM    DATA     BYTE      VRTRIM
      000000B7H   SFRSYM    DATA     BYTE      IPH
      000000CDH   SFRSYM    DATA     BYTE      SPSTAT
      000000DDH   SFRSYM    DATA     BYTE      T4T3M
      0000009FH   SFRSYM    DATA     BYTE      IRTRIM
      000000C1H   SFRSYM    DATA     BYTE      WDT_CONTR
      000000E9H   SFRSYM    DATA     BYTE      WTST
      000000DFH   SFRSYM    DATA     BYTE      IP3
      000000F4H   SFRSYM    DATA     BYTE      USBCON
      000000B5H   SFRSYM    DATA     BYTE      IP2
      000000FFH   SFRSYM    DATA     BYTE      RSTCFG
      000000F9H   SFRSYM    DATA     BYTE      LINICR
      0000008EH   SFRSYM    DATA     BYTE      AUXR
      000000AFH   SFRSYM    DATA     BYTE      IE2
      00000088H   SFRSYM    DATA     BYTE      TCON
      00000089H   SFRSYM    DATA     BYTE      TMOD
      00000098H   SFRSYM    DATA     BYTE      SCON
      000000F1H   SFRSYM    DATA     BYTE      CANICR
      00000087H   SFRSYM    DATA     BYTE      PCON
      000000BCH   SFRSYM    DATA     BYTE      ADC_CONTR
      000000E7H   SFRSYM    DATA     BYTE      CMPCR2
      000000E6H   SFRSYM    DATA     BYTE      CMPCR1
      000000DEH   SFRSYM    DATA     BYTE      ADCCFG
      000000B8H   SFRSYM    DATA     BYTE      IP
      0000008FH   SFRSYM    DATA     BYTE      INTCLKO
      000000EEH   SFRSYM    DATA     BYTE      IP3H
      000000B6H   SFRSYM    DATA     BYTE      IP2H
      000000A8H   SFRSYM    DATA     BYTE      IE
      000000BBH   SFRSYM    DATA     BYTE      P_SW3
      000000BAH   SFRSYM    DATA     BYTE      P_SW2
      000000A2H   SFRSYM    DATA     BYTE      P_SW1
      000000CEH   SFRSYM    DATA     BYTE      SPCTL
      000000F8H   SFRSYM    DATA     BYTE      P7
      000000A8H.7 SFRSYM    DATA     BIT       EA
      000000E1H   SFRSYM    DATA     BYTE      P7M1
      000000E8H   SFRSYM    DATA     BYTE      P6
      000000C8H   SFRSYM    DATA     BYTE      P5
      000000CBH   SFRSYM    DATA     BYTE      P6M1
      000000E2H   SFRSYM    DATA     BYTE      P7M0
      000000C0H   SFRSYM    DATA     BYTE      P4
      000000C9H   SFRSYM    DATA     BYTE      P5M1
      000000CCH   SFRSYM    DATA     BYTE      P6M0
      000000B0H   SFRSYM    DATA     BYTE      P3
      000000B3H   SFRSYM    DATA     BYTE      P4M1
      000000CAH   SFRSYM    DATA     BYTE      P5M0
      000000A0H   SFRSYM    DATA     BYTE      P2
      000000B1H   SFRSYM    DATA     BYTE      P3M1
      000000B4H   SFRSYM    DATA     BYTE      P4M0
      00000090H   SFRSYM    DATA     BYTE      P1
      00000095H   SFRSYM    DATA     BYTE      P2M1
      000000B2H   SFRSYM    DATA     BYTE      P3M0
      00000080H   SFRSYM    DATA     BYTE      P0
      00000091H   SFRSYM    DATA     BYTE      P1M1
      00000096H   SFRSYM    DATA     BYTE      P2M0
      00000092H   SFRSYM    DATA     BYTE      P1M0
      00000093H   SFRSYM    DATA     BYTE      P0M1

      00FF5447H   BLOCK     CODE     ---       LVL=0
      00FF5447H   LINE      CODE     ---       #43
      00FF5447H   LINE      CODE     ---       #46
L251 LINKER/LOCATER V4.66.93.0                                                        07/17/2023  20:23:02  PAGE 27


      00FF544AH   LINE      CODE     ---       #48
      00FF545AH   LINE      CODE     ---       #51
      00FF5467H   LINE      CODE     ---       #52
      00FF5474H   LINE      CODE     ---       #53
      00FF5481H   LINE      CODE     ---       #54
      00FF5485H   LINE      CODE     ---       #55
      00FF5491H   LINE      CODE     ---       #56
      00FF5494H   LINE      CODE     ---       #57
      00FF54A4H   LINE      CODE     ---       #60
      00FF54B1H   LINE      CODE     ---       #61
      00FF54BEH   LINE      CODE     ---       #62
      00FF54CBH   LINE      CODE     ---       #63
      00FF54CFH   LINE      CODE     ---       #64
      00FF54DBH   LINE      CODE     ---       #65
      00FF54DEH   LINE      CODE     ---       #66
      00FF54EEH   LINE      CODE     ---       #69
      00FF54FBH   LINE      CODE     ---       #70
      00FF5508H   LINE      CODE     ---       #71
      00FF5515H   LINE      CODE     ---       #72
      00FF5519H   LINE      CODE     ---       #73
      00FF5525H   LINE      CODE     ---       #74
      00FF5528H   LINE      CODE     ---       #75
      00FF5538H   LINE      CODE     ---       #79
      00FF5545H   LINE      CODE     ---       #80
      00FF5552H   LINE      CODE     ---       #81
      00FF555FH   LINE      CODE     ---       #82
      00FF5563H   LINE      CODE     ---       #83
      00FF556FH   LINE      CODE     ---       #84
      00FF5572H   LINE      CODE     ---       #85
      00FF5582H   LINE      CODE     ---       #88
      00FF558FH   LINE      CODE     ---       #89
      00FF559CH   LINE      CODE     ---       #90
      00FF55A9H   LINE      CODE     ---       #91
      00FF55ADH   LINE      CODE     ---       #92
      00FF55B9H   LINE      CODE     ---       #93
      00FF55BCH   LINE      CODE     ---       #94
      00FF55CCH   LINE      CODE     ---       #97
      00FF55D9H   LINE      CODE     ---       #98
      00FF55E6H   LINE      CODE     ---       #99
      00FF55F3H   LINE      CODE     ---       #100
      00FF55F7H   LINE      CODE     ---       #101
      00FF5603H   LINE      CODE     ---       #102
      00FF5605H   LINE      CODE     ---       #105
      00FF5611H   LINE      CODE     ---       #107
      00FF561EH   LINE      CODE     ---       #108
      00FF562BH   LINE      CODE     ---       #109
      00FF5638H   LINE      CODE     ---       #110
      00FF563CH   LINE      CODE     ---       #111
      00FF5648H   LINE      CODE     ---       #112
      00FF5648H   LINE      CODE     ---       #114
      00FF564CH   LINE      CODE     ---       #115
      ---         BLOCKEND  ---      ---       LVL=0

      00FF646BH   BLOCK     CODE     ---       LVL=0
      00FF646BH   LINE      CODE     ---       #121
      00FF646BH   LINE      CODE     ---       #123
      00FF646FH   LINE      CODE     ---       #124
      00FF6472H   LINE      CODE     ---       #125
      00FF6475H   LINE      CODE     ---       #126
      00FF6478H   LINE      CODE     ---       #127
      00FF647CH   LINE      CODE     ---       #137
      00FF6483H   LINE      CODE     ---       #143
      00FF6486H   LINE      CODE     ---       #145
      00FF6489H   LINE      CODE     ---       #146
      00FF648CH   LINE      CODE     ---       #147
L251 LINKER/LOCATER V4.66.93.0                                                        07/17/2023  20:23:02  PAGE 28


      00FF6498H   LINE      CODE     ---       #149
      00FF649BH   LINE      CODE     ---       #150
      00FF649EH   LINE      CODE     ---       #151
      00FF64A1H   LINE      CODE     ---       #152
      00FF64A4H   LINE      CODE     ---       #153
      00FF64A7H   LINE      CODE     ---       #154
      00FF64AAH   LINE      CODE     ---       #155
      00FF64ADH   LINE      CODE     ---       #156
      00FF64B0H   LINE      CODE     ---       #157
      00FF64B3H   LINE      CODE     ---       #158
      00FF64B6H   LINE      CODE     ---       #159
      00FF64B9H   LINE      CODE     ---       #160
      00FF64BCH   LINE      CODE     ---       #161
      00FF64BFH   LINE      CODE     ---       #162
      00FF64C2H   LINE      CODE     ---       #163
      00FF64C5H   LINE      CODE     ---       #164
      00FF64C8H   LINE      CODE     ---       #166
      00FF64CBH   LINE      CODE     ---       #167
      00FF64CEH   LINE      CODE     ---       #168
      00FF64D1H   LINE      CODE     ---       #169
      00FF64D4H   LINE      CODE     ---       #170
      00FF64D7H   LINE      CODE     ---       #171
      00FF64DAH   LINE      CODE     ---       #172
      00FF64DDH   LINE      CODE     ---       #173
      00FF64E0H   LINE      CODE     ---       #174
      00FF64E3H   LINE      CODE     ---       #176
      00FF64FEH   LINE      CODE     ---       #177
      00FF6501H   LINE      CODE     ---       #178
      ---         BLOCKEND  ---      ---       LVL=0

      00FF7AC7H   BLOCK     CODE     ---       LVL=0
      00000EB7H   SYMBOL    EDATA    CHAR      c
      00FF7AC7H   LINE      CODE     ---       #183
      00FF7ACBH   LINE      CODE     ---       #185
      00FF7AD4H   LINE      CODE     ---       #187
      00FF7AD8H   LINE      CODE     ---       #188
      ---         BLOCKEND  ---      ---       LVL=0

      00FF0006H   BLOCK     CODE     ---       LVL=0
      00FF0006H   LINE      CODE     ---       #197
      00FF0006H   LINE      CODE     ---       #199
      00FF0009H   LINE      CODE     ---       #200
      ---         BLOCKEND  ---      ---       LVL=0

      ---         MODULE    ---      ---       common
      00000E65H   PUBLIC    EDATA    INT       wireless_type
      000000D0H   SFRSYM    DATA     BYTE      PSW
      0000009DH   SFRSYM    DATA     BYTE      IRCBAND
      00000097H   SFRSYM    DATA     BYTE      AUXR2
      000000EFH   SFRSYM    DATA     BYTE      AUXINTIF
      000000FDH   SFRSYM    DATA     BYTE      S4CON
      000000ACH   SFRSYM    DATA     BYTE      S3CON
      0000009AH   SFRSYM    DATA     BYTE      S2CON
      000000B7H   SFRSYM    DATA     BYTE      IPH
      000000CDH   SFRSYM    DATA     BYTE      SPSTAT
      000000DDH   SFRSYM    DATA     BYTE      T4T3M
      000000C1H   SFRSYM    DATA     BYTE      WDT_CONTR
      000000DFH   SFRSYM    DATA     BYTE      IP3
      000000F4H   SFRSYM    DATA     BYTE      USBCON
      000000B5H   SFRSYM    DATA     BYTE      IP2
      000000FFH   SFRSYM    DATA     BYTE      RSTCFG
      000000F9H   SFRSYM    DATA     BYTE      LINICR
      0000008EH   SFRSYM    DATA     BYTE      AUXR
      000000AFH   SFRSYM    DATA     BYTE      IE2
      00000088H   SFRSYM    DATA     BYTE      TCON
L251 LINKER/LOCATER V4.66.93.0                                                        07/17/2023  20:23:02  PAGE 29


      00000098H   SFRSYM    DATA     BYTE      SCON
      000000F1H   SFRSYM    DATA     BYTE      CANICR
      00000087H   SFRSYM    DATA     BYTE      PCON
      000000BCH   SFRSYM    DATA     BYTE      ADC_CONTR
      000000E7H   SFRSYM    DATA     BYTE      CMPCR2
      000000E6H   SFRSYM    DATA     BYTE      CMPCR1
      000000B8H   SFRSYM    DATA     BYTE      IP
      0000008FH   SFRSYM    DATA     BYTE      INTCLKO
      000000EEH   SFRSYM    DATA     BYTE      IP3H
      000000B6H   SFRSYM    DATA     BYTE      IP2H
      000000A8H   SFRSYM    DATA     BYTE      IE
      000000BBH   SFRSYM    DATA     BYTE      P_SW3
      000000BAH   SFRSYM    DATA     BYTE      P_SW2
      000000A2H   SFRSYM    DATA     BYTE      P_SW1
      000000CEH   SFRSYM    DATA     BYTE      SPCTL
      000000F8H   SFRSYM    DATA     BYTE      P7
      000000E8H   SFRSYM    DATA     BYTE      P6
      000000C8H   SFRSYM    DATA     BYTE      P5
      000000C0H   SFRSYM    DATA     BYTE      P4
      000000B0H   SFRSYM    DATA     BYTE      P3
      000000A0H   SFRSYM    DATA     BYTE      P2
      00000090H   SFRSYM    DATA     BYTE      P1
      00000080H   SFRSYM    DATA     BYTE      P0

      ---         MODULE    ---      ---       zf_adc
      00FF6FF1H   PUBLIC    CODE     ---       adc_once
      00FF6302H   PUBLIC    CODE     ---       adc_init
      00000094H   SFRSYM    DATA     BYTE      P0M0
      000000D0H   SFRSYM    DATA     BYTE      PSW
      0000009DH   SFRSYM    DATA     BYTE      IRCBAND
      00000097H   SFRSYM    DATA     BYTE      AUXR2
      000000EFH   SFRSYM    DATA     BYTE      AUXINTIF
      000000FDH   SFRSYM    DATA     BYTE      S4CON
      000000ACH   SFRSYM    DATA     BYTE      S3CON
      0000009AH   SFRSYM    DATA     BYTE      S2CON
      000000B7H   SFRSYM    DATA     BYTE      IPH
      000000CDH   SFRSYM    DATA     BYTE      SPSTAT
      000000BEH   SFRSYM    DATA     BYTE      ADC_RESL
      000000DDH   SFRSYM    DATA     BYTE      T4T3M
      000000C1H   SFRSYM    DATA     BYTE      WDT_CONTR
      000000DFH   SFRSYM    DATA     BYTE      IP3
      000000F4H   SFRSYM    DATA     BYTE      USBCON
      000000B5H   SFRSYM    DATA     BYTE      IP2
      000000FFH   SFRSYM    DATA     BYTE      RSTCFG
      000000F9H   SFRSYM    DATA     BYTE      LINICR
      0000008EH   SFRSYM    DATA     BYTE      AUXR
      000000AFH   SFRSYM    DATA     BYTE      IE2
      00000088H   SFRSYM    DATA     BYTE      TCON
      00000098H   SFRSYM    DATA     BYTE      SCON
      000000F1H   SFRSYM    DATA     BYTE      CANICR
      00000087H   SFRSYM    DATA     BYTE      PCON
      000000BCH   SFRSYM    DATA     BYTE      ADC_CONTR
      000000E7H   SFRSYM    DATA     BYTE      CMPCR2
      000000E6H   SFRSYM    DATA     BYTE      CMPCR1
      000000DEH   SFRSYM    DATA     BYTE      ADCCFG
      000000B8H   SFRSYM    DATA     BYTE      IP
      0000008FH   SFRSYM    DATA     BYTE      INTCLKO
      000000EEH   SFRSYM    DATA     BYTE      IP3H
      000000B6H   SFRSYM    DATA     BYTE      IP2H
      000000BDH   SFRSYM    DATA     BYTE      ADC_RES
      000000A8H   SFRSYM    DATA     BYTE      IE
      000000BBH   SFRSYM    DATA     BYTE      P_SW3
      000000BAH   SFRSYM    DATA     BYTE      P_SW2
      000000A2H   SFRSYM    DATA     BYTE      P_SW1
      000000CEH   SFRSYM    DATA     BYTE      SPCTL
L251 LINKER/LOCATER V4.66.93.0                                                        07/17/2023  20:23:02  PAGE 30


      000000F8H   SFRSYM    DATA     BYTE      P7
      000000E8H   SFRSYM    DATA     BYTE      P6
      000000C8H   SFRSYM    DATA     BYTE      P5
      000000C0H   SFRSYM    DATA     BYTE      P4
      000000B0H   SFRSYM    DATA     BYTE      P3
      000000A0H   SFRSYM    DATA     BYTE      P2
      00000090H   SFRSYM    DATA     BYTE      P1
      00000080H   SFRSYM    DATA     BYTE      P0
      00000091H   SFRSYM    DATA     BYTE      P1M1
      00000092H   SFRSYM    DATA     BYTE      P1M0
      00000093H   SFRSYM    DATA     BYTE      P0M1

      00FF6302H   BLOCK     CODE     ---       LVL=0
      00000DCAH   SYMBOL    EDATA    INT       adcn
      00000DCCH   SYMBOL    EDATA    INT       speed
      00FF6302H   LINE      CODE     ---       #32
      00FF630AH   LINE      CODE     ---       #34
      00FF630DH   LINE      CODE     ---       #36
      00FF6310H   LINE      CODE     ---       #37
      00FF6318H   LINE      CODE     ---       #39
      00FF632AH   LINE      CODE     ---       #42
      00FF6345H   LINE      CODE     ---       #43
      00FF635EH   LINE      CODE     ---       #44
      00FF6360H   LINE      CODE     ---       #45
      00FF6370H   LINE      CODE     ---       #48
      00FF638BH   LINE      CODE     ---       #49
      00FF63A4H   LINE      CODE     ---       #50
      00FF63A4H   LINE      CODE     ---       #52
      00FF63B3H   LINE      CODE     ---       #54
      00FF63B6H   LINE      CODE     ---       #55
      ---         BLOCKEND  ---      ---       LVL=0

      00FF6FF1H   BLOCK     CODE     ---       LVL=0
      00000D0EH   SYMBOL    EDATA    INT       adcn
      00000D10H   SYMBOL    EDATA    INT       resolution
      00FF6FF9H   BLOCK     CODE     NEAR LAB  LVL=1
      00000D12H   SYMBOL    EDATA    WORD      adc_value
      ---         BLOCKEND  ---      ---       LVL=1
      00FF6FF1H   LINE      CODE     ---       #66
      00FF6FF9H   LINE      CODE     ---       #67
      00FF6FF9H   LINE      CODE     ---       #70
      00FF6FFCH   LINE      CODE     ---       #71
      00FF7004H   LINE      CODE     ---       #73
      00FF7007H   LINE      CODE     ---       #74
      00FF700CH   LINE      CODE     ---       #75
      00FF700FH   LINE      CODE     ---       #77
      00FF7017H   LINE      CODE     ---       #78
      00FF701FH   LINE      CODE     ---       #79
      00FF702DH   LINE      CODE     ---       #81
      00FF7030H   LINE      CODE     ---       #82
      00FF7033H   LINE      CODE     ---       #84
      00FF7046H   LINE      CODE     ---       #87
      00FF7046H   LINE      CODE     ---       #88
      ---         BLOCKEND  ---      ---       LVL=0

      ---         MODULE    ---      ---       zf_delay
      00FF75A8H   PUBLIC    CODE     ---       delay_init
      00FF7656H   PUBLIC    CODE     ---       delay_ms
      00FF772AH   PUBLIC    CODE     ---       delay_us
      00000DCEH   PUBLIC    EDATA    WORD      zf_delay_ms
      00000DD0H   PUBLIC    EDATA    WORD      zf_delay_us
      000000D0H   SFRSYM    DATA     BYTE      PSW
      0000009DH   SFRSYM    DATA     BYTE      IRCBAND
      00000097H   SFRSYM    DATA     BYTE      AUXR2
      000000EFH   SFRSYM    DATA     BYTE      AUXINTIF
L251 LINKER/LOCATER V4.66.93.0                                                        07/17/2023  20:23:02  PAGE 31


      000000FDH   SFRSYM    DATA     BYTE      S4CON
      000000ACH   SFRSYM    DATA     BYTE      S3CON
      0000009AH   SFRSYM    DATA     BYTE      S2CON
      000000B7H   SFRSYM    DATA     BYTE      IPH
      000000CDH   SFRSYM    DATA     BYTE      SPSTAT
      000000DDH   SFRSYM    DATA     BYTE      T4T3M
      000000C1H   SFRSYM    DATA     BYTE      WDT_CONTR
      000000DFH   SFRSYM    DATA     BYTE      IP3
      000000F4H   SFRSYM    DATA     BYTE      USBCON
      000000B5H   SFRSYM    DATA     BYTE      IP2
      000000FFH   SFRSYM    DATA     BYTE      RSTCFG
      000000F9H   SFRSYM    DATA     BYTE      LINICR
      0000008EH   SFRSYM    DATA     BYTE      AUXR
      000000AFH   SFRSYM    DATA     BYTE      IE2
      00000088H   SFRSYM    DATA     BYTE      TCON
      00000098H   SFRSYM    DATA     BYTE      SCON
      000000F1H   SFRSYM    DATA     BYTE      CANICR
      00000087H   SFRSYM    DATA     BYTE      PCON
      000000BCH   SFRSYM    DATA     BYTE      ADC_CONTR
      000000E7H   SFRSYM    DATA     BYTE      CMPCR2
      000000E6H   SFRSYM    DATA     BYTE      CMPCR1
      000000B8H   SFRSYM    DATA     BYTE      IP
      0000008FH   SFRSYM    DATA     BYTE      INTCLKO
      000000EEH   SFRSYM    DATA     BYTE      IP3H
      000000B6H   SFRSYM    DATA     BYTE      IP2H
      000000A8H   SFRSYM    DATA     BYTE      IE
      000000BBH   SFRSYM    DATA     BYTE      P_SW3
      000000BAH   SFRSYM    DATA     BYTE      P_SW2
      000000A2H   SFRSYM    DATA     BYTE      P_SW1
      000000CEH   SFRSYM    DATA     BYTE      SPCTL
      000000F8H   SFRSYM    DATA     BYTE      P7
      000000E8H   SFRSYM    DATA     BYTE      P6
      000000C8H   SFRSYM    DATA     BYTE      P5
      000000C0H   SFRSYM    DATA     BYTE      P4
      000000B0H   SFRSYM    DATA     BYTE      P3
      000000A0H   SFRSYM    DATA     BYTE      P2
      00000090H   SFRSYM    DATA     BYTE      P1
      00000080H   SFRSYM    DATA     BYTE      P0

      00FF75A8H   BLOCK     CODE     ---       LVL=0
      00FF75A8H   LINE      CODE     ---       #34
      00FF75A8H   LINE      CODE     ---       #36
      00FF75B7H   LINE      CODE     ---       #37
      00FF75CAH   LINE      CODE     ---       #38
      00FF75E8H   LINE      CODE     ---       #40
      ---         BLOCKEND  ---      ---       LVL=0

      00FF7656H   BLOCK     CODE     ---       LVL=0
      00000DD2H   SYMBOL    EDATA    WORD      ms
      00FF765AH   BLOCK     CODE     NEAR LAB  LVL=1
      00000DD4H   SYMBOL    EDATA    WORD      i
      ---         BLOCKEND  ---      ---       LVL=1
      00FF7656H   LINE      CODE     ---       #48
      00FF765AH   LINE      CODE     ---       #49
      00FF765AH   LINE      CODE     ---       #51
      00FF765AH   LINE      CODE     ---       #52
      00FF7662H   LINE      CODE     ---       #54
      00FF7676H   LINE      CODE     ---       #55
      00FF768AH   LINE      CODE     ---       #56
      ---         BLOCKEND  ---      ---       LVL=0

      00FF772AH   BLOCK     CODE     ---       LVL=0
      00000D14H   SYMBOL    EDATA    DWORD     us
      00FF772EH   BLOCK     CODE     NEAR LAB  LVL=1
      00000D18H   SYMBOL    EDATA    WORD      i
L251 LINKER/LOCATER V4.66.93.0                                                        07/17/2023  20:23:02  PAGE 32


      ---         BLOCKEND  ---      ---       LVL=1
      00FF772AH   LINE      CODE     ---       #64
      00FF772EH   LINE      CODE     ---       #65
      00FF772EH   LINE      CODE     ---       #67
      00FF772EH   LINE      CODE     ---       #68
      00FF7736H   LINE      CODE     ---       #70
      00FF774AH   LINE      CODE     ---       #71
      00FF775CH   LINE      CODE     ---       #72
      ---         BLOCKEND  ---      ---       LVL=0

      ---         MODULE    ---      ---       zf_eeprom
      00FF79C7H   PUBLIC    CODE     ---       eeprom_trig
      000000D0H   SFRSYM    DATA     BYTE      PSW
      0000009DH   SFRSYM    DATA     BYTE      IRCBAND
      000000D0H.5 SFRSYM    DATA     BIT       F0
      00000097H   SFRSYM    DATA     BYTE      AUXR2
      000000C6H   SFRSYM    DATA     BYTE      IAP_TRIG
      000000EFH   SFRSYM    DATA     BYTE      AUXINTIF
      000000FDH   SFRSYM    DATA     BYTE      S4CON
      000000ACH   SFRSYM    DATA     BYTE      S3CON
      0000009AH   SFRSYM    DATA     BYTE      S2CON
      000000B7H   SFRSYM    DATA     BYTE      IPH
      000000CDH   SFRSYM    DATA     BYTE      SPSTAT
      000000DDH   SFRSYM    DATA     BYTE      T4T3M
      000000C1H   SFRSYM    DATA     BYTE      WDT_CONTR
      000000C2H   SFRSYM    DATA     BYTE      IAP_DATA
      000000DFH   SFRSYM    DATA     BYTE      IP3
      000000F4H   SFRSYM    DATA     BYTE      USBCON
      000000B5H   SFRSYM    DATA     BYTE      IP2
      000000FFH   SFRSYM    DATA     BYTE      RSTCFG
      000000C7H   SFRSYM    DATA     BYTE      IAP_CONTR
      000000F9H   SFRSYM    DATA     BYTE      LINICR
      0000008EH   SFRSYM    DATA     BYTE      AUXR
      000000AFH   SFRSYM    DATA     BYTE      IE2
      00000088H   SFRSYM    DATA     BYTE      TCON
      00000098H   SFRSYM    DATA     BYTE      SCON
      000000F5H   SFRSYM    DATA     BYTE      IAP_TPS
      000000F1H   SFRSYM    DATA     BYTE      CANICR
      00000087H   SFRSYM    DATA     BYTE      PCON
      000000BCH   SFRSYM    DATA     BYTE      ADC_CONTR
      000000E7H   SFRSYM    DATA     BYTE      CMPCR2
      000000E6H   SFRSYM    DATA     BYTE      CMPCR1
      000000C4H   SFRSYM    DATA     BYTE      IAP_ADDRL
      000000C3H   SFRSYM    DATA     BYTE      IAP_ADDRH
      000000F6H   SFRSYM    DATA     BYTE      IAP_ADDRE
      000000B8H   SFRSYM    DATA     BYTE      IP
      0000008FH   SFRSYM    DATA     BYTE      INTCLKO
      000000EEH   SFRSYM    DATA     BYTE      IP3H
      000000B6H   SFRSYM    DATA     BYTE      IP2H
      000000C5H   SFRSYM    DATA     BYTE      IAP_CMD
      000000A8H   SFRSYM    DATA     BYTE      IE
      000000BBH   SFRSYM    DATA     BYTE      P_SW3
      000000BAH   SFRSYM    DATA     BYTE      P_SW2
      000000A2H   SFRSYM    DATA     BYTE      P_SW1
      000000CEH   SFRSYM    DATA     BYTE      SPCTL
      000000F8H   SFRSYM    DATA     BYTE      P7
      000000A8H.7 SFRSYM    DATA     BIT       EA
      000000E8H   SFRSYM    DATA     BYTE      P6
      000000C8H   SFRSYM    DATA     BYTE      P5
      000000C0H   SFRSYM    DATA     BYTE      P4
      000000B0H   SFRSYM    DATA     BYTE      P3
      000000A0H   SFRSYM    DATA     BYTE      P2
      00000090H   SFRSYM    DATA     BYTE      P1
      00000080H   SFRSYM    DATA     BYTE      P0

L251 LINKER/LOCATER V4.66.93.0                                                        07/17/2023  20:23:02  PAGE 33


      00FF79C7H   BLOCK     CODE     ---       LVL=0
      00FF79C7H   LINE      CODE     ---       #30
      00FF79C7H   LINE      CODE     ---       #32
      00FF79CBH   LINE      CODE     ---       #33
      00FF79CEH   LINE      CODE     ---       #34
      00FF79D2H   LINE      CODE     ---       #35
      00FF79D6H   LINE      CODE     ---       #38
      00FF79D7H   LINE      CODE     ---       #39
      00FF79D8H   LINE      CODE     ---       #40
      00FF79D9H   LINE      CODE     ---       #41
      00FF79DAH   LINE      CODE     ---       #42
      00FF79DEH   LINE      CODE     ---       #43
      ---         BLOCKEND  ---      ---       LVL=0
      00000EB8H   SYMBOL    EDATA    BYTE      write_time
      00000C4DH   SYMBOL    EDATA    WORD      addr
      00000C4FH   SYMBOL    EDATA    ---       buf
      00000C53H   SYMBOL    EDATA    WORD      len
      00000C55H   SYMBOL    EDATA    WORD      addr
      00000C57H   SYMBOL    EDATA    ---       buf
      00000C5BH   SYMBOL    EDATA    WORD      len
      00000E67H   SYMBOL    EDATA    WORD      addr
      00000021H   SYMBOL    EDATA    WORD      addr
      00000023H   SYMBOL    EDATA    ---       buf
      00000027H   SYMBOL    EDATA    WORD      len
      00000029H   SYMBOL    EDATA    ---       temp
      00000229H   SYMBOL    EDATA    WORD      i

      ---         MODULE    ---      ---       zf_exti
      000000D0H   SFRSYM    DATA     BYTE      PSW
      0000009DH   SFRSYM    DATA     BYTE      IRCBAND
      00000097H   SFRSYM    DATA     BYTE      AUXR2
      000000EFH   SFRSYM    DATA     BYTE      AUXINTIF
      000000FDH   SFRSYM    DATA     BYTE      S4CON
      000000ACH   SFRSYM    DATA     BYTE      S3CON
      0000009AH   SFRSYM    DATA     BYTE      S2CON
      000000B7H   SFRSYM    DATA     BYTE      IPH
      000000CDH   SFRSYM    DATA     BYTE      SPSTAT
      000000DDH   SFRSYM    DATA     BYTE      T4T3M
      000000C1H   SFRSYM    DATA     BYTE      WDT_CONTR
      00000088H.2 SFRSYM    DATA     BIT       IT1
      000000A8H.2 SFRSYM    DATA     BIT       EX1
      00000088H.0 SFRSYM    DATA     BIT       IT0
      000000A8H.0 SFRSYM    DATA     BIT       EX0
      000000DFH   SFRSYM    DATA     BYTE      IP3
      000000F4H   SFRSYM    DATA     BYTE      USBCON
      000000B5H   SFRSYM    DATA     BYTE      IP2
      000000FFH   SFRSYM    DATA     BYTE      RSTCFG
      000000F9H   SFRSYM    DATA     BYTE      LINICR
      0000008EH   SFRSYM    DATA     BYTE      AUXR
      000000AFH   SFRSYM    DATA     BYTE      IE2
      00000088H   SFRSYM    DATA     BYTE      TCON
      00000098H   SFRSYM    DATA     BYTE      SCON
      000000F1H   SFRSYM    DATA     BYTE      CANICR
      00000087H   SFRSYM    DATA     BYTE      PCON
      000000BCH   SFRSYM    DATA     BYTE      ADC_CONTR
      000000E7H   SFRSYM    DATA     BYTE      CMPCR2
      000000E6H   SFRSYM    DATA     BYTE      CMPCR1
      000000B8H   SFRSYM    DATA     BYTE      IP
      0000008FH   SFRSYM    DATA     BYTE      INTCLKO
      000000EEH   SFRSYM    DATA     BYTE      IP3H
      000000B6H   SFRSYM    DATA     BYTE      IP2H
      000000A8H   SFRSYM    DATA     BYTE      IE
      000000BBH   SFRSYM    DATA     BYTE      P_SW3
      000000BAH   SFRSYM    DATA     BYTE      P_SW2
      000000A2H   SFRSYM    DATA     BYTE      P_SW1
L251 LINKER/LOCATER V4.66.93.0                                                        07/17/2023  20:23:02  PAGE 34


      000000CEH   SFRSYM    DATA     BYTE      SPCTL
      000000F8H   SFRSYM    DATA     BYTE      P7
      000000E8H   SFRSYM    DATA     BYTE      P6
      000000C8H   SFRSYM    DATA     BYTE      P5
      000000C0H   SFRSYM    DATA     BYTE      P4
      000000B0H   SFRSYM    DATA     BYTE      P3
      000000A0H   SFRSYM    DATA     BYTE      P2
      00000090H   SFRSYM    DATA     BYTE      P1
      00000080H   SFRSYM    DATA     BYTE      P0
      00000DD6H   SYMBOL    EDATA    INT       int_n
      00000DD8H   SYMBOL    EDATA    INT       mode

      ---         MODULE    ---      ---       zf_gpio
      00FF3866H   PUBLIC    CODE     ---       gpio_mode
      00000094H   SFRSYM    DATA     BYTE      P0M0
      000000D0H   SFRSYM    DATA     BYTE      PSW
      0000009DH   SFRSYM    DATA     BYTE      IRCBAND
      00000097H   SFRSYM    DATA     BYTE      AUXR2
      000000EFH   SFRSYM    DATA     BYTE      AUXINTIF
      000000FDH   SFRSYM    DATA     BYTE      S4CON
      000000ACH   SFRSYM    DATA     BYTE      S3CON
      0000009AH   SFRSYM    DATA     BYTE      S2CON
      000000B7H   SFRSYM    DATA     BYTE      IPH
      000000CDH   SFRSYM    DATA     BYTE      SPSTAT
      000000DDH   SFRSYM    DATA     BYTE      T4T3M
      000000C1H   SFRSYM    DATA     BYTE      WDT_CONTR
      000000DFH   SFRSYM    DATA     BYTE      IP3
      000000F4H   SFRSYM    DATA     BYTE      USBCON
      000000B5H   SFRSYM    DATA     BYTE      IP2
      000000FFH   SFRSYM    DATA     BYTE      RSTCFG
      000000F9H   SFRSYM    DATA     BYTE      LINICR
      0000008EH   SFRSYM    DATA     BYTE      AUXR
      000000AFH   SFRSYM    DATA     BYTE      IE2
      00000088H   SFRSYM    DATA     BYTE      TCON
      00000098H   SFRSYM    DATA     BYTE      SCON
      000000F1H   SFRSYM    DATA     BYTE      CANICR
      00000087H   SFRSYM    DATA     BYTE      PCON
      000000BCH   SFRSYM    DATA     BYTE      ADC_CONTR
      000000E7H   SFRSYM    DATA     BYTE      CMPCR2
      000000E6H   SFRSYM    DATA     BYTE      CMPCR1
      000000B8H   SFRSYM    DATA     BYTE      IP
      0000008FH   SFRSYM    DATA     BYTE      INTCLKO
      000000EEH   SFRSYM    DATA     BYTE      IP3H
      000000B6H   SFRSYM    DATA     BYTE      IP2H
      000000A8H   SFRSYM    DATA     BYTE      IE
      000000BBH   SFRSYM    DATA     BYTE      P_SW3
      000000BAH   SFRSYM    DATA     BYTE      P_SW2
      000000A2H   SFRSYM    DATA     BYTE      P_SW1
      000000CEH   SFRSYM    DATA     BYTE      SPCTL
      000000F8H   SFRSYM    DATA     BYTE      P7
      000000E1H   SFRSYM    DATA     BYTE      P7M1
      000000E8H   SFRSYM    DATA     BYTE      P6
      000000C8H   SFRSYM    DATA     BYTE      P5
      000000CBH   SFRSYM    DATA     BYTE      P6M1
      000000E2H   SFRSYM    DATA     BYTE      P7M0
      000000C0H   SFRSYM    DATA     BYTE      P4
      000000C9H   SFRSYM    DATA     BYTE      P5M1
      000000CCH   SFRSYM    DATA     BYTE      P6M0
      000000B0H   SFRSYM    DATA     BYTE      P3
      000000B3H   SFRSYM    DATA     BYTE      P4M1
      000000CAH   SFRSYM    DATA     BYTE      P5M0
      000000A0H   SFRSYM    DATA     BYTE      P2
      000000B1H   SFRSYM    DATA     BYTE      P3M1
      000000B4H   SFRSYM    DATA     BYTE      P4M0
      00000090H   SFRSYM    DATA     BYTE      P1
L251 LINKER/LOCATER V4.66.93.0                                                        07/17/2023  20:23:02  PAGE 35


      00000095H   SFRSYM    DATA     BYTE      P2M1
      000000B2H   SFRSYM    DATA     BYTE      P3M0
      00000080H   SFRSYM    DATA     BYTE      P0
      00000091H   SFRSYM    DATA     BYTE      P1M1
      00000096H   SFRSYM    DATA     BYTE      P2M0
      00000092H   SFRSYM    DATA     BYTE      P1M0
      00000093H   SFRSYM    DATA     BYTE      P0M1
      00000DDAH   SYMBOL    EDATA    INT       pin
      00000DDCH   SYMBOL    EDATA    INT       pull

      00FF3866H   BLOCK     CODE     ---       LVL=0
      00000DDEH   SYMBOL    EDATA    INT       pin
      00000DE0H   SYMBOL    EDATA    INT       mode
      00FF3866H   LINE      CODE     ---       #54
      00FF386EH   LINE      CODE     ---       #56
      00FF387BH   LINE      CODE     ---       #58
      00FF388BH   LINE      CODE     ---       #60
      00FF38A6H   LINE      CODE     ---       #61
      00FF38C1H   LINE      CODE     ---       #62
      00FF38C1H   LINE      CODE     ---       #63
      00FF38D3H   LINE      CODE     ---       #65
      00FF38EEH   LINE      CODE     ---       #66
      00FF3909H   LINE      CODE     ---       #67
      00FF3909H   LINE      CODE     ---       #68
      00FF391BH   LINE      CODE     ---       #70
      00FF3936H   LINE      CODE     ---       #71
      00FF3951H   LINE      CODE     ---       #72
      00FF3951H   LINE      CODE     ---       #74
      00FF3963H   LINE      CODE     ---       #76
      00FF397EH   LINE      CODE     ---       #77
      00FF3999H   LINE      CODE     ---       #78
      00FF3999H   LINE      CODE     ---       #79
      00FF39ABH   LINE      CODE     ---       #81
      00FF39C6H   LINE      CODE     ---       #82
      00FF39E1H   LINE      CODE     ---       #83
      00FF39E1H   LINE      CODE     ---       #84
      00FF39F3H   LINE      CODE     ---       #86
      00FF3A0EH   LINE      CODE     ---       #87
      00FF3A29H   LINE      CODE     ---       #88
      00FF3A29H   LINE      CODE     ---       #89
      00FF3A3BH   LINE      CODE     ---       #91
      00FF3A56H   LINE      CODE     ---       #92
      00FF3A71H   LINE      CODE     ---       #93
      00FF3A71H   LINE      CODE     ---       #94
      00FF3A86H   LINE      CODE     ---       #96
      00FF3AA1H   LINE      CODE     ---       #97
      00FF3ABCH   LINE      CODE     ---       #98
      00FF3ABFH   LINE      CODE     ---       #100
      00FF3ACEH   LINE      CODE     ---       #102
      00FF3ADEH   LINE      CODE     ---       #104
      00FF3AF9H   LINE      CODE     ---       #105
      00FF3B12H   LINE      CODE     ---       #106
      00FF3B12H   LINE      CODE     ---       #107
      00FF3B24H   LINE      CODE     ---       #109
      00FF3B3FH   LINE      CODE     ---       #110
      00FF3B58H   LINE      CODE     ---       #111
      00FF3B58H   LINE      CODE     ---       #112
      00FF3B6AH   LINE      CODE     ---       #114
      00FF3B85H   LINE      CODE     ---       #115
      00FF3B9EH   LINE      CODE     ---       #116
      00FF3B9EH   LINE      CODE     ---       #118
      00FF3BB0H   LINE      CODE     ---       #120
      00FF3BCBH   LINE      CODE     ---       #121
      00FF3BE4H   LINE      CODE     ---       #122
      00FF3BE4H   LINE      CODE     ---       #123
L251 LINKER/LOCATER V4.66.93.0                                                        07/17/2023  20:23:02  PAGE 36


      00FF3BF6H   LINE      CODE     ---       #125
      00FF3C11H   LINE      CODE     ---       #126
      00FF3C2AH   LINE      CODE     ---       #127
      00FF3C2AH   LINE      CODE     ---       #128
      00FF3C3CH   LINE      CODE     ---       #130
      00FF3C57H   LINE      CODE     ---       #131
      00FF3C70H   LINE      CODE     ---       #132
      00FF3C70H   LINE      CODE     ---       #133
      00FF3C82H   LINE      CODE     ---       #135
      00FF3C9DH   LINE      CODE     ---       #136
      00FF3CB6H   LINE      CODE     ---       #137
      00FF3CB6H   LINE      CODE     ---       #138
      00FF3CCBH   LINE      CODE     ---       #140
      00FF3CE6H   LINE      CODE     ---       #141
      00FF3CFFH   LINE      CODE     ---       #142
      00FF3D02H   LINE      CODE     ---       #145
      00FF3D11H   LINE      CODE     ---       #147
      00FF3D21H   LINE      CODE     ---       #149
      00FF3D3AH   LINE      CODE     ---       #150
      00FF3D55H   LINE      CODE     ---       #151
      00FF3D55H   LINE      CODE     ---       #152
      00FF3D67H   LINE      CODE     ---       #154
      00FF3D80H   LINE      CODE     ---       #155
      00FF3D9BH   LINE      CODE     ---       #156
      00FF3D9BH   LINE      CODE     ---       #157
      00FF3DADH   LINE      CODE     ---       #159
      00FF3DC6H   LINE      CODE     ---       #160
      00FF3DE1H   LINE      CODE     ---       #161
      00FF3DE1H   LINE      CODE     ---       #163
      00FF3DF3H   LINE      CODE     ---       #165
      00FF3E0CH   LINE      CODE     ---       #166
      00FF3E27H   LINE      CODE     ---       #167
      00FF3E27H   LINE      CODE     ---       #168
      00FF3E39H   LINE      CODE     ---       #170
      00FF3E52H   LINE      CODE     ---       #171
      00FF3E6DH   LINE      CODE     ---       #172
      00FF3E6DH   LINE      CODE     ---       #173
      00FF3E7FH   LINE      CODE     ---       #175
      00FF3E98H   LINE      CODE     ---       #176
      00FF3EB3H   LINE      CODE     ---       #177
      00FF3EB3H   LINE      CODE     ---       #178
      00FF3EC5H   LINE      CODE     ---       #180
      00FF3EDEH   LINE      CODE     ---       #181
      00FF3EF9H   LINE      CODE     ---       #182
      00FF3EF9H   LINE      CODE     ---       #183
      00FF3F0EH   LINE      CODE     ---       #185
      00FF3F27H   LINE      CODE     ---       #186
      00FF3F42H   LINE      CODE     ---       #187
      00FF3F45H   LINE      CODE     ---       #189
      00FF3F54H   LINE      CODE     ---       #191
      00FF3F64H   LINE      CODE     ---       #193
      00FF3F7DH   LINE      CODE     ---       #194
      00FF3F96H   LINE      CODE     ---       #195
      00FF3F96H   LINE      CODE     ---       #196
      00FF3FA8H   LINE      CODE     ---       #198
      00FF3FC1H   LINE      CODE     ---       #199
      00FF3FDAH   LINE      CODE     ---       #200
      00FF3FDAH   LINE      CODE     ---       #201
      00FF3FECH   LINE      CODE     ---       #203
      00FF4005H   LINE      CODE     ---       #204
      00FF401EH   LINE      CODE     ---       #205
      00FF401EH   LINE      CODE     ---       #207
      00FF4030H   LINE      CODE     ---       #209
      00FF4049H   LINE      CODE     ---       #210
      00FF4062H   LINE      CODE     ---       #211
L251 LINKER/LOCATER V4.66.93.0                                                        07/17/2023  20:23:02  PAGE 37


      00FF4062H   LINE      CODE     ---       #212
      00FF4074H   LINE      CODE     ---       #214
      00FF408DH   LINE      CODE     ---       #215
      00FF40A6H   LINE      CODE     ---       #216
      00FF40A6H   LINE      CODE     ---       #217
      00FF40B8H   LINE      CODE     ---       #219
      00FF40D1H   LINE      CODE     ---       #220
      00FF40EAH   LINE      CODE     ---       #221
      00FF40EAH   LINE      CODE     ---       #222
      00FF40FCH   LINE      CODE     ---       #224
      00FF4115H   LINE      CODE     ---       #225
      00FF412EH   LINE      CODE     ---       #226
      00FF412EH   LINE      CODE     ---       #227
      00FF4140H   LINE      CODE     ---       #229
      00FF4159H   LINE      CODE     ---       #230
      00FF4172H   LINE      CODE     ---       #231
      00FF4172H   LINE      CODE     ---       #233
      ---         BLOCKEND  ---      ---       LVL=0

      ---         MODULE    ---      ---       zf_iic
      00FF6F43H   PUBLIC    CODE     ---       wait
      00FF768BH   PUBLIC    CODE     ---       iic_delay_us
      00000D16H   PUBLIC    EDATA    BYTE      ?iic_init?BYTE
      000000D0H   SFRSYM    DATA     BYTE      PSW
      0000009DH   SFRSYM    DATA     BYTE      IRCBAND
      00000097H   SFRSYM    DATA     BYTE      AUXR2
      000000EFH   SFRSYM    DATA     BYTE      AUXINTIF
      000000FDH   SFRSYM    DATA     BYTE      S4CON
      000000ACH   SFRSYM    DATA     BYTE      S3CON
      0000009AH   SFRSYM    DATA     BYTE      S2CON
      000000B7H   SFRSYM    DATA     BYTE      IPH
      000000CDH   SFRSYM    DATA     BYTE      SPSTAT
      000000DDH   SFRSYM    DATA     BYTE      T4T3M
      000000C1H   SFRSYM    DATA     BYTE      WDT_CONTR
      000000DFH   SFRSYM    DATA     BYTE      IP3
      000000F4H   SFRSYM    DATA     BYTE      USBCON
      000000B5H   SFRSYM    DATA     BYTE      IP2
      000000FFH   SFRSYM    DATA     BYTE      RSTCFG
      000000F9H   SFRSYM    DATA     BYTE      LINICR
      0000008EH   SFRSYM    DATA     BYTE      AUXR
      000000AFH   SFRSYM    DATA     BYTE      IE2
      00000088H   SFRSYM    DATA     BYTE      TCON
      00000098H   SFRSYM    DATA     BYTE      SCON
      000000F1H   SFRSYM    DATA     BYTE      CANICR
      00000087H   SFRSYM    DATA     BYTE      PCON
      000000BCH   SFRSYM    DATA     BYTE      ADC_CONTR
      000000E7H   SFRSYM    DATA     BYTE      CMPCR2
      000000E6H   SFRSYM    DATA     BYTE      CMPCR1
      000000B8H   SFRSYM    DATA     BYTE      IP
      0000008FH   SFRSYM    DATA     BYTE      INTCLKO
      000000EEH   SFRSYM    DATA     BYTE      IP3H
      000000B6H   SFRSYM    DATA     BYTE      IP2H
      000000A8H   SFRSYM    DATA     BYTE      IE
      000000BBH   SFRSYM    DATA     BYTE      P_SW3
      000000BAH   SFRSYM    DATA     BYTE      P_SW2
      000000A2H   SFRSYM    DATA     BYTE      P_SW1
      000000CEH   SFRSYM    DATA     BYTE      SPCTL
      000000F8H   SFRSYM    DATA     BYTE      P7
      000000E8H   SFRSYM    DATA     BYTE      P6
      000000C8H   SFRSYM    DATA     BYTE      P5
      000000C0H   SFRSYM    DATA     BYTE      P4
      000000B0H   SFRSYM    DATA     BYTE      P3
      000000A0H   SFRSYM    DATA     BYTE      P2
      00000090H   SFRSYM    DATA     BYTE      P1
      00000080H   SFRSYM    DATA     BYTE      P0
L251 LINKER/LOCATER V4.66.93.0                                                        07/17/2023  20:23:02  PAGE 38



      00FF768BH   BLOCK     CODE     ---       LVL=0
      0000001DH   SYMBOL    EDATA    WORD      x
      00FF768FH   BLOCK     CODE     NEAR LAB  LVL=1
      0000001FH   SYMBOL    EDATA    BYTE      i
      ---         BLOCKEND  ---      ---       LVL=1
      00FF768BH   LINE      CODE     ---       #30
      00FF768FH   LINE      CODE     ---       #31
      00FF768FH   LINE      CODE     ---       #33
      00FF7691H   LINE      CODE     ---       #35
      00FF7697H   LINE      CODE     ---       #36
      00FF76A9H   LINE      CODE     ---       #37
      00FF76BFH   LINE      CODE     ---       #38
      ---         BLOCKEND  ---      ---       LVL=0

      00FF6F43H   BLOCK     CODE     ---       LVL=0
      00000E1AH   SYMBOL    EDATA    WORD      count
      00000E1CH   SYMBOL    EDATA    BYTE      ret
      00FF6F43H   LINE      CODE     ---       #47
      00FF6F43H   LINE      CODE     ---       #48
      00FF6F43H   LINE      CODE     ---       #49
      00FF6F49H   LINE      CODE     ---       #50
      00FF6F4EH   LINE      CODE     ---       #51
      00FF6F50H   LINE      CODE     ---       #53
      00FF6F57H   LINE      CODE     ---       #54
      00FF6F6DH   LINE      CODE     ---       #56
      00FF6F73H   LINE      CODE     ---       #57
      00FF6F75H   LINE      CODE     ---       #58
      00FF6F83H   LINE      CODE     ---       #60
      00FF6F95H   LINE      CODE     ---       #61
      00FF6F99H   LINE      CODE     ---       #62
      ---         BLOCKEND  ---      ---       LVL=0
      00000EB9H   SYMBOL    EDATA    BYTE      ret
      00000E69H   SYMBOL    EDATA    CHAR      dat
      00000E6AH   SYMBOL    EDATA    BYTE      ret
      00000EBAH   SYMBOL    EDATA    BYTE      ret
      00000EBBH   SYMBOL    EDATA    BYTE      ret
      00000EBCH   SYMBOL    EDATA    BYTE      ret
      00000D1AH   SYMBOL    EDATA    INT       iic_n
      00000D1CH   SYMBOL    EDATA    DWORD     wait_time
      00000E1DH   SYMBOL    EDATA    BYTE      dev_add
      00000E1EH   SYMBOL    EDATA    BYTE      reg
      00000E1FH   SYMBOL    EDATA    BYTE      dat
      00000D20H   SYMBOL    EDATA    BYTE      dev_add
      00000D21H   SYMBOL    EDATA    BYTE      reg
      00000D22H   SYMBOL    EDATA    ---       dat
      00000CDDH   SYMBOL    EDATA    BYTE      dev_add
      00000CDEH   SYMBOL    EDATA    BYTE      reg
      00000CDFH   SYMBOL    EDATA    ---       dat
      00000CE3H   SYMBOL    EDATA    BYTE      num
      00000E6BH   SYMBOL    EDATA    INT       iic_n

      ---         MODULE    ---      ---       zf_nvic
      000000D0H   SFRSYM    DATA     BYTE      PSW
      0000009DH   SFRSYM    DATA     BYTE      IRCBAND
      00000097H   SFRSYM    DATA     BYTE      AUXR2
      000000EFH   SFRSYM    DATA     BYTE      AUXINTIF
      000000FDH   SFRSYM    DATA     BYTE      S4CON
      000000ACH   SFRSYM    DATA     BYTE      S3CON
      0000009AH   SFRSYM    DATA     BYTE      S2CON
      000000B7H   SFRSYM    DATA     BYTE      IPH
      000000CDH   SFRSYM    DATA     BYTE      SPSTAT
      000000DDH   SFRSYM    DATA     BYTE      T4T3M
      000000C1H   SFRSYM    DATA     BYTE      WDT_CONTR
      000000DFH   SFRSYM    DATA     BYTE      IP3
L251 LINKER/LOCATER V4.66.93.0                                                        07/17/2023  20:23:02  PAGE 39


      000000F4H   SFRSYM    DATA     BYTE      USBCON
      000000B5H   SFRSYM    DATA     BYTE      IP2
      000000FFH   SFRSYM    DATA     BYTE      RSTCFG
      000000F9H   SFRSYM    DATA     BYTE      LINICR
      0000008EH   SFRSYM    DATA     BYTE      AUXR
      000000AFH   SFRSYM    DATA     BYTE      IE2
      00000088H   SFRSYM    DATA     BYTE      TCON
      00000098H   SFRSYM    DATA     BYTE      SCON
      000000F1H   SFRSYM    DATA     BYTE      CANICR
      00000087H   SFRSYM    DATA     BYTE      PCON
      000000BCH   SFRSYM    DATA     BYTE      ADC_CONTR
      000000E7H   SFRSYM    DATA     BYTE      CMPCR2
      000000E6H   SFRSYM    DATA     BYTE      CMPCR1
      000000B8H   SFRSYM    DATA     BYTE      IP
      0000008FH   SFRSYM    DATA     BYTE      INTCLKO
      000000EEH   SFRSYM    DATA     BYTE      IP3H
      000000B6H   SFRSYM    DATA     BYTE      IP2H
      000000A8H   SFRSYM    DATA     BYTE      IE
      000000BBH   SFRSYM    DATA     BYTE      P_SW3
      000000BAH   SFRSYM    DATA     BYTE      P_SW2
      000000A2H   SFRSYM    DATA     BYTE      P_SW1
      000000CEH   SFRSYM    DATA     BYTE      SPCTL
      000000F8H   SFRSYM    DATA     BYTE      P7
      000000E8H   SFRSYM    DATA     BYTE      P6
      000000C8H   SFRSYM    DATA     BYTE      P5
      000000C0H   SFRSYM    DATA     BYTE      P4
      000000B0H   SFRSYM    DATA     BYTE      P3
      000000A0H   SFRSYM    DATA     BYTE      P2
      00000090H   SFRSYM    DATA     BYTE      P1
      00000080H   SFRSYM    DATA     BYTE      P0
      00000E20H   SYMBOL    EDATA    INT       irqn
      00000E22H   SYMBOL    EDATA    BYTE      priority

      ---         MODULE    ---      ---       zf_pwm
      00FF5D77H   PUBLIC    CODE     ---       pwm_duty
      00FF4B9EH   PUBLIC    CODE     ---       pwm_set_gpio
      00FF47C4H   PUBLIC    CODE     ---       pwm_init
      00FE01BAH   PUBLIC    HCONST   ---       PWM_CCR_ADDR
      00FE01DAH   PUBLIC    HCONST   ---       PWM_ARR_ADDR
      00FE01E2H   PUBLIC    HCONST   ---       PWM_CCER_ADDR
      00FE01F2H   PUBLIC    HCONST   ---       PWM_CCMR_ADDR
      00000943H   PUBLIC    EDATA    BYTE      ?pwm_init?BYTE
      00000957H   PUBLIC    EDATA    BYTE      ?pwm_freq?BYTE
      000000D0H   SFRSYM    DATA     BYTE      PSW
      0000009DH   SFRSYM    DATA     BYTE      IRCBAND
      00000097H   SFRSYM    DATA     BYTE      AUXR2
      000000EFH   SFRSYM    DATA     BYTE      AUXINTIF
      000000FDH   SFRSYM    DATA     BYTE      S4CON
      000000ACH   SFRSYM    DATA     BYTE      S3CON
      0000009AH   SFRSYM    DATA     BYTE      S2CON
      000000B7H   SFRSYM    DATA     BYTE      IPH
      000000CDH   SFRSYM    DATA     BYTE      SPSTAT
      000000DDH   SFRSYM    DATA     BYTE      T4T3M
      000000C1H   SFRSYM    DATA     BYTE      WDT_CONTR
      000000DFH   SFRSYM    DATA     BYTE      IP3
      000000F4H   SFRSYM    DATA     BYTE      USBCON
      000000B5H   SFRSYM    DATA     BYTE      IP2
      000000FFH   SFRSYM    DATA     BYTE      RSTCFG
      000000F9H   SFRSYM    DATA     BYTE      LINICR
      0000008EH   SFRSYM    DATA     BYTE      AUXR
      000000AFH   SFRSYM    DATA     BYTE      IE2
      00000088H   SFRSYM    DATA     BYTE      TCON
      00000098H   SFRSYM    DATA     BYTE      SCON
      000000F1H   SFRSYM    DATA     BYTE      CANICR
      00000087H   SFRSYM    DATA     BYTE      PCON
L251 LINKER/LOCATER V4.66.93.0                                                        07/17/2023  20:23:02  PAGE 40


      000000BCH   SFRSYM    DATA     BYTE      ADC_CONTR
      000000E7H   SFRSYM    DATA     BYTE      CMPCR2
      000000E6H   SFRSYM    DATA     BYTE      CMPCR1
      000000B8H   SFRSYM    DATA     BYTE      IP
      0000008FH   SFRSYM    DATA     BYTE      INTCLKO
      000000EEH   SFRSYM    DATA     BYTE      IP3H
      000000B6H   SFRSYM    DATA     BYTE      IP2H
      000000A8H   SFRSYM    DATA     BYTE      IE
      000000BBH   SFRSYM    DATA     BYTE      P_SW3
      000000BAH   SFRSYM    DATA     BYTE      P_SW2
      000000A2H   SFRSYM    DATA     BYTE      P_SW1
      000000CEH   SFRSYM    DATA     BYTE      SPCTL
      000000F8H   SFRSYM    DATA     BYTE      P7
      000000E8H   SFRSYM    DATA     BYTE      P6
      000000C8H   SFRSYM    DATA     BYTE      P5
      000000C0H   SFRSYM    DATA     BYTE      P4
      000000B0H   SFRSYM    DATA     BYTE      P3
      000000A0H   SFRSYM    DATA     BYTE      P2
      00000090H   SFRSYM    DATA     BYTE      P1
      00000080H   SFRSYM    DATA     BYTE      P0

      00FF4B9EH   BLOCK     CODE     ---       LVL=0
      00000E6DH   SYMBOL    EDATA    INT       pwmch
      00FF4B9EH   LINE      CODE     ---       #49
      00FF4BA2H   LINE      CODE     ---       #51
      00FF4D17H   LINE      CODE     ---       #53
      00FF4D17H   LINE      CODE     ---       #55
      00FF4D22H   LINE      CODE     ---       #56
      00FF4D25H   LINE      CODE     ---       #58
      00FF4D25H   LINE      CODE     ---       #60
      00FF4D30H   LINE      CODE     ---       #61
      00FF4D33H   LINE      CODE     ---       #63
      00FF4D33H   LINE      CODE     ---       #65
      00FF4D3EH   LINE      CODE     ---       #66
      00FF4D41H   LINE      CODE     ---       #68
      00FF4D41H   LINE      CODE     ---       #70
      00FF4D4CH   LINE      CODE     ---       #71
      00FF4D4FH   LINE      CODE     ---       #73
      00FF4D4FH   LINE      CODE     ---       #75
      00FF4D5AH   LINE      CODE     ---       #76
      00FF4D5DH   LINE      CODE     ---       #78
      00FF4D5DH   LINE      CODE     ---       #80
      00FF4D68H   LINE      CODE     ---       #81
      00FF4D6BH   LINE      CODE     ---       #84
      00FF4D6BH   LINE      CODE     ---       #86
      00FF4D76H   LINE      CODE     ---       #87
      00FF4D79H   LINE      CODE     ---       #89
      00FF4D79H   LINE      CODE     ---       #91
      00FF4D84H   LINE      CODE     ---       #92
      00FF4D87H   LINE      CODE     ---       #94
      00FF4D87H   LINE      CODE     ---       #96
      00FF4D92H   LINE      CODE     ---       #97
      00FF4D95H   LINE      CODE     ---       #99
      00FF4D95H   LINE      CODE     ---       #101
      00FF4DA0H   LINE      CODE     ---       #102
      00FF4DA3H   LINE      CODE     ---       #104
      00FF4DA3H   LINE      CODE     ---       #106
      00FF4DAEH   LINE      CODE     ---       #107
      00FF4DB1H   LINE      CODE     ---       #109
      00FF4DB1H   LINE      CODE     ---       #111
      00FF4DBCH   LINE      CODE     ---       #112
      00FF4DBFH   LINE      CODE     ---       #115
      00FF4DBFH   LINE      CODE     ---       #117
      00FF4DCAH   LINE      CODE     ---       #118
      00FF4DCDH   LINE      CODE     ---       #120
L251 LINKER/LOCATER V4.66.93.0                                                        07/17/2023  20:23:02  PAGE 41


      00FF4DCDH   LINE      CODE     ---       #122
      00FF4DD8H   LINE      CODE     ---       #123
      00FF4DDBH   LINE      CODE     ---       #125
      00FF4DDBH   LINE      CODE     ---       #127
      00FF4DE6H   LINE      CODE     ---       #128
      00FF4DE9H   LINE      CODE     ---       #130
      00FF4DE9H   LINE      CODE     ---       #132
      00FF4DF4H   LINE      CODE     ---       #133
      00FF4DF7H   LINE      CODE     ---       #135
      00FF4DF7H   LINE      CODE     ---       #137
      00FF4E02H   LINE      CODE     ---       #138
      00FF4E05H   LINE      CODE     ---       #140
      00FF4E05H   LINE      CODE     ---       #142
      00FF4E10H   LINE      CODE     ---       #143
      00FF4E13H   LINE      CODE     ---       #147
      00FF4E13H   LINE      CODE     ---       #149
      00FF4E1EH   LINE      CODE     ---       #150
      00FF4E21H   LINE      CODE     ---       #152
      00FF4E21H   LINE      CODE     ---       #154
      00FF4E2CH   LINE      CODE     ---       #155
      00FF4E2FH   LINE      CODE     ---       #157
      00FF4E2FH   LINE      CODE     ---       #159
      00FF4E3AH   LINE      CODE     ---       #160
      00FF4E3DH   LINE      CODE     ---       #162
      00FF4E3DH   LINE      CODE     ---       #164
      00FF4E48H   LINE      CODE     ---       #165
      00FF4E4BH   LINE      CODE     ---       #167
      00FF4E4BH   LINE      CODE     ---       #169
      00FF4E56H   LINE      CODE     ---       #170
      00FF4E59H   LINE      CODE     ---       #172
      00FF4E59H   LINE      CODE     ---       #174
      00FF4E64H   LINE      CODE     ---       #175
      00FF4E67H   LINE      CODE     ---       #177
      00FF4E67H   LINE      CODE     ---       #179
      00FF4E72H   LINE      CODE     ---       #180
      00FF4E75H   LINE      CODE     ---       #182
      00FF4E75H   LINE      CODE     ---       #184
      00FF4E80H   LINE      CODE     ---       #185
      00FF4E83H   LINE      CODE     ---       #189
      00FF4E83H   LINE      CODE     ---       #191
      00FF4E8EH   LINE      CODE     ---       #192
      00FF4E91H   LINE      CODE     ---       #194
      00FF4E91H   LINE      CODE     ---       #196
      00FF4E9CH   LINE      CODE     ---       #197
      00FF4E9FH   LINE      CODE     ---       #199
      00FF4E9FH   LINE      CODE     ---       #201
      00FF4EA8H   LINE      CODE     ---       #202
      00FF4EABH   LINE      CODE     ---       #204
      00FF4EABH   LINE      CODE     ---       #206
      00FF4EB6H   LINE      CODE     ---       #207
      00FF4EB9H   LINE      CODE     ---       #210
      00FF4EB9H   LINE      CODE     ---       #212
      00FF4EC4H   LINE      CODE     ---       #213
      00FF4EC7H   LINE      CODE     ---       #215
      00FF4EC7H   LINE      CODE     ---       #217
      00FF4ED2H   LINE      CODE     ---       #218
      00FF4ED5H   LINE      CODE     ---       #220
      00FF4ED5H   LINE      CODE     ---       #222
      00FF4EE0H   LINE      CODE     ---       #223
      00FF4EE2H   LINE      CODE     ---       #225
      00FF4EE2H   LINE      CODE     ---       #227
      00FF4EEDH   LINE      CODE     ---       #228
      00FF4EEFH   LINE      CODE     ---       #232
      00FF4EEFH   LINE      CODE     ---       #234
      00FF4EFAH   LINE      CODE     ---       #235
L251 LINKER/LOCATER V4.66.93.0                                                        07/17/2023  20:23:02  PAGE 42


      00FF4EFCH   LINE      CODE     ---       #237
      00FF4EFCH   LINE      CODE     ---       #239
      00FF4F07H   LINE      CODE     ---       #240
      00FF4F09H   LINE      CODE     ---       #242
      00FF4F09H   LINE      CODE     ---       #244
      00FF4F14H   LINE      CODE     ---       #245
      00FF4F16H   LINE      CODE     ---       #247
      00FF4F16H   LINE      CODE     ---       #249
      00FF4F21H   LINE      CODE     ---       #250
      00FF4F23H   LINE      CODE     ---       #254
      00FF4F23H   LINE      CODE     ---       #256
      00FF4F2EH   LINE      CODE     ---       #257
      00FF4F30H   LINE      CODE     ---       #259
      00FF4F30H   LINE      CODE     ---       #261
      00FF4F3BH   LINE      CODE     ---       #262
      00FF4F3DH   LINE      CODE     ---       #264
      00FF4F3DH   LINE      CODE     ---       #266
      00FF4F48H   LINE      CODE     ---       #267
      00FF4F4AH   LINE      CODE     ---       #269
      00FF4F4AH   LINE      CODE     ---       #271
      00FF4F55H   LINE      CODE     ---       #272
      00FF4F55H   LINE      CODE     ---       #275
      00FF4F55H   LINE      CODE     ---       #277
      ---         BLOCKEND  ---      ---       LVL=0

      00FF47C4H   BLOCK     CODE     ---       LVL=0
      00000943H   SYMBOL    EDATA    INT       pwmch
      00000945H   SYMBOL    EDATA    DWORD     freq
      00000949H   SYMBOL    EDATA    DWORD     duty
      00FF47CCH   BLOCK     CODE     NEAR LAB  LVL=1
      0000094DH   SYMBOL    EDATA    DWORD     match_temp
      00000951H   SYMBOL    EDATA    DWORD     period_temp
      00000955H   SYMBOL    EDATA    WORD      freq_div
      ---         BLOCKEND  ---      ---       LVL=1
      00FF47C4H   LINE      CODE     ---       #290
      00FF47CCH   LINE      CODE     ---       #291
      00FF47CCH   LINE      CODE     ---       #295
      00FF47D2H   LINE      CODE     ---       #298
      00FF47D5H   LINE      CODE     ---       #301
      00FF47DCH   LINE      CODE     ---       #305
      00FF47EFH   LINE      CODE     ---       #306
      00FF47FEH   LINE      CODE     ---       #307
      00FF4819H   LINE      CODE     ---       #309
      00FF4823H   LINE      CODE     ---       #311
      00FF484AH   LINE      CODE     ---       #312
      00FF484CH   LINE      CODE     ---       #315
      00FF485AH   LINE      CODE     ---       #316
      00FF485AH   LINE      CODE     ---       #319
      00FF4869H   LINE      CODE     ---       #322
      00FF489AH   LINE      CODE     ---       #323
      00FF48D1H   LINE      CODE     ---       #326
      00FF4923H   LINE      CODE     ---       #329
      00FF4936H   LINE      CODE     ---       #330
      00FF4945H   LINE      CODE     ---       #332
      00FF4952H   LINE      CODE     ---       #333
      00FF495FH   LINE      CODE     ---       #334
      00FF4962H   LINE      CODE     ---       #337
      00FF49A0H   LINE      CODE     ---       #338
      00FF49D3H   LINE      CODE     ---       #341
      00FF4A33H   LINE      CODE     ---       #345
      00FF4A46H   LINE      CODE     ---       #346
      00FF4A55H   LINE      CODE     ---       #348
      00FF4A62H   LINE      CODE     ---       #349
      00FF4A6FH   LINE      CODE     ---       #350
      00FF4A6FH   LINE      CODE     ---       #353
L251 LINKER/LOCATER V4.66.93.0                                                        07/17/2023  20:23:02  PAGE 43


      00FF4AA1H   LINE      CODE     ---       #354
      00FF4AD9H   LINE      CODE     ---       #357
      00FF4B07H   LINE      CODE     ---       #358
      00FF4B3BH   LINE      CODE     ---       #361
      00FF4B6CH   LINE      CODE     ---       #362
      00FF4B9DH   LINE      CODE     ---       #367
      ---         BLOCKEND  ---      ---       LVL=0

      00FF5D77H   BLOCK     CODE     ---       LVL=0
      000009C6H   SYMBOL    EDATA    INT       pwmch
      000009C8H   SYMBOL    EDATA    DWORD     duty
      00FF5D7FH   BLOCK     CODE     NEAR LAB  LVL=1
      000009CCH   SYMBOL    EDATA    DWORD     match_temp
      000009D0H   SYMBOL    EDATA    DWORD     arr
      ---         BLOCKEND  ---      ---       LVL=1
      00FF5D77H   LINE      CODE     ---       #377
      00FF5D7FH   LINE      CODE     ---       #378
      00FF5D7FH   LINE      CODE     ---       #380
      00FF5DEBH   LINE      CODE     ---       #384
      00FF5DF5H   LINE      CODE     ---       #386
      00FF5E1CH   LINE      CODE     ---       #387
      00FF5E1EH   LINE      CODE     ---       #390
      00FF5E2CH   LINE      CODE     ---       #391
      00FF5E2CH   LINE      CODE     ---       #396
      00FF5E5AH   LINE      CODE     ---       #397
      00FF5E8EH   LINE      CODE     ---       #401
      ---         BLOCKEND  ---      ---       LVL=0
      00000957H   SYMBOL    EDATA    INT       pwmch
      00000959H   SYMBOL    EDATA    DWORD     freq
      0000095DH   SYMBOL    EDATA    DWORD     duty
      00000961H   SYMBOL    EDATA    DWORD     match_temp
      00000965H   SYMBOL    EDATA    DWORD     period_temp
      00000969H   SYMBOL    EDATA    WORD      freq_div

      ---         MODULE    ---      ---       zf_spi
      00FF7AD9H   PUBLIC    CODE     ---       spi_mosi
      00000CDEH   PUBLIC    EDATA    BYTE      ?spi_init?BYTE
      000000CFH   SFRSYM    DATA     BYTE      SPDAT
      000000D0H   SFRSYM    DATA     BYTE      PSW
      0000009DH   SFRSYM    DATA     BYTE      IRCBAND
      00000097H   SFRSYM    DATA     BYTE      AUXR2
      000000EFH   SFRSYM    DATA     BYTE      AUXINTIF
      000000FDH   SFRSYM    DATA     BYTE      S4CON
      000000ACH   SFRSYM    DATA     BYTE      S3CON
      0000009AH   SFRSYM    DATA     BYTE      S2CON
      000000B7H   SFRSYM    DATA     BYTE      IPH
      000000CDH   SFRSYM    DATA     BYTE      SPSTAT
      000000DDH   SFRSYM    DATA     BYTE      T4T3M
      000000C1H   SFRSYM    DATA     BYTE      WDT_CONTR
      000000DFH   SFRSYM    DATA     BYTE      IP3
      000000F4H   SFRSYM    DATA     BYTE      USBCON
      000000B5H   SFRSYM    DATA     BYTE      IP2
      000000FFH   SFRSYM    DATA     BYTE      RSTCFG
      000000F9H   SFRSYM    DATA     BYTE      LINICR
      0000008EH   SFRSYM    DATA     BYTE      AUXR
      000000AFH   SFRSYM    DATA     BYTE      IE2
      00000088H   SFRSYM    DATA     BYTE      TCON
      00000098H   SFRSYM    DATA     BYTE      SCON
      000000F1H   SFRSYM    DATA     BYTE      CANICR
      00000087H   SFRSYM    DATA     BYTE      PCON
      000000BCH   SFRSYM    DATA     BYTE      ADC_CONTR
      000000E7H   SFRSYM    DATA     BYTE      CMPCR2
      000000E6H   SFRSYM    DATA     BYTE      CMPCR1
      000000B8H   SFRSYM    DATA     BYTE      IP
      0000008FH   SFRSYM    DATA     BYTE      INTCLKO
L251 LINKER/LOCATER V4.66.93.0                                                        07/17/2023  20:23:02  PAGE 44


      000000EEH   SFRSYM    DATA     BYTE      IP3H
      000000B6H   SFRSYM    DATA     BYTE      IP2H
      000000A8H   SFRSYM    DATA     BYTE      IE
      000000BBH   SFRSYM    DATA     BYTE      P_SW3
      000000BAH   SFRSYM    DATA     BYTE      P_SW2
      000000A2H   SFRSYM    DATA     BYTE      P_SW1
      000000CEH   SFRSYM    DATA     BYTE      SPCTL
      000000F8H   SFRSYM    DATA     BYTE      P7
      000000E8H   SFRSYM    DATA     BYTE      P6
      000000C8H   SFRSYM    DATA     BYTE      P5
      000000C0H   SFRSYM    DATA     BYTE      P4
      000000B0H   SFRSYM    DATA     BYTE      P3
      000000A0H   SFRSYM    DATA     BYTE      P2
      00000090H   SFRSYM    DATA     BYTE      P1
      00000080H   SFRSYM    DATA     BYTE      P0
      00000CE4H   SYMBOL    EDATA    INT       spi_n
      00000CE6H   SYMBOL    EDATA    BYTE      mode
      00000CE7H   SYMBOL    EDATA    INT       mstr
      00000CE9H   SYMBOL    EDATA    INT       baud

      00FF7AD9H   BLOCK     CODE     ---       LVL=0
      00000EBDH   SYMBOL    EDATA    BYTE      dat
      00FF7AD9H   LINE      CODE     ---       #129
      00FF7ADDH   LINE      CODE     ---       #131
      00FF7ADFH   LINE      CODE     ---       #132
      00FF7AE4H   LINE      CODE     ---       #133
      00FF7AE8H   LINE      CODE     ---       #134
      00FF7AEAH   LINE      CODE     ---       #135
      ---         BLOCKEND  ---      ---       LVL=0
      00000E6FH   SYMBOL    EDATA    INT       spi_n
      00000EBEH   SYMBOL    EDATA    BYTE      mode

      ---         MODULE    ---      ---       zf_tim
      00FF63B7H   PUBLIC    CODE     ---       ctimer_count_read
      00FF6093H   PUBLIC    CODE     ---       pit_timer_ms
      00FF70F1H   PUBLIC    CODE     ---       ctimer_count_init
      00FF6DD7H   PUBLIC    CODE     ---       ctimer_count_clean
      000000D0H   SFRSYM    DATA     BYTE      PSW
      0000009DH   SFRSYM    DATA     BYTE      IRCBAND
      00000097H   SFRSYM    DATA     BYTE      AUXR2
      000000EFH   SFRSYM    DATA     BYTE      AUXINTIF
      000000FDH   SFRSYM    DATA     BYTE      S4CON
      000000ACH   SFRSYM    DATA     BYTE      S3CON
      0000009AH   SFRSYM    DATA     BYTE      S2CON
      000000B7H   SFRSYM    DATA     BYTE      IPH
      000000CDH   SFRSYM    DATA     BYTE      SPSTAT
      000000DDH   SFRSYM    DATA     BYTE      T4T3M
      000000C1H   SFRSYM    DATA     BYTE      WDT_CONTR
      00000088H.6 SFRSYM    DATA     BIT       TR1
      00000088H.4 SFRSYM    DATA     BIT       TR0
      000000D3H   SFRSYM    DATA     BYTE      T4L
      000000D5H   SFRSYM    DATA     BYTE      T3L
      000000D7H   SFRSYM    DATA     BYTE      T2L
      0000008BH   SFRSYM    DATA     BYTE      TL1
      0000008AH   SFRSYM    DATA     BYTE      TL0
      000000D2H   SFRSYM    DATA     BYTE      T4H
      000000D4H   SFRSYM    DATA     BYTE      T3H
      000000D6H   SFRSYM    DATA     BYTE      T2H
      0000008DH   SFRSYM    DATA     BYTE      TH1
      0000008CH   SFRSYM    DATA     BYTE      TH0
      000000DFH   SFRSYM    DATA     BYTE      IP3
      000000F4H   SFRSYM    DATA     BYTE      USBCON
      000000B5H   SFRSYM    DATA     BYTE      IP2
      000000FFH   SFRSYM    DATA     BYTE      RSTCFG
      000000A8H.3 SFRSYM    DATA     BIT       ET1
L251 LINKER/LOCATER V4.66.93.0                                                        07/17/2023  20:23:02  PAGE 45


      000000A8H.1 SFRSYM    DATA     BIT       ET0
      000000F9H   SFRSYM    DATA     BYTE      LINICR
      0000008EH   SFRSYM    DATA     BYTE      AUXR
      000000AFH   SFRSYM    DATA     BYTE      IE2
      00000088H   SFRSYM    DATA     BYTE      TCON
      00000089H   SFRSYM    DATA     BYTE      TMOD
      00000098H   SFRSYM    DATA     BYTE      SCON
      000000F1H   SFRSYM    DATA     BYTE      CANICR
      00000087H   SFRSYM    DATA     BYTE      PCON
      000000BCH   SFRSYM    DATA     BYTE      ADC_CONTR
      000000E7H   SFRSYM    DATA     BYTE      CMPCR2
      000000E6H   SFRSYM    DATA     BYTE      CMPCR1
      000000B8H   SFRSYM    DATA     BYTE      IP
      0000008FH   SFRSYM    DATA     BYTE      INTCLKO
      000000EEH   SFRSYM    DATA     BYTE      IP3H
      000000B6H   SFRSYM    DATA     BYTE      IP2H
      000000A8H   SFRSYM    DATA     BYTE      IE
      000000BBH   SFRSYM    DATA     BYTE      P_SW3
      000000BAH   SFRSYM    DATA     BYTE      P_SW2
      000000A2H   SFRSYM    DATA     BYTE      P_SW1
      000000CEH   SFRSYM    DATA     BYTE      SPCTL
      000000F8H   SFRSYM    DATA     BYTE      P7
      000000E8H   SFRSYM    DATA     BYTE      P6
      000000C8H   SFRSYM    DATA     BYTE      P5
      000000C0H   SFRSYM    DATA     BYTE      P4
      000000B0H   SFRSYM    DATA     BYTE      P3
      000000A0H   SFRSYM    DATA     BYTE      P2
      00000090H   SFRSYM    DATA     BYTE      P1
      00000080H   SFRSYM    DATA     BYTE      P0

      00FF70F1H   BLOCK     CODE     ---       LVL=0
      00000E71H   SYMBOL    EDATA    INT       tim_n
      00FF70F1H   LINE      CODE     ---       #39
      00FF70F5H   LINE      CODE     ---       #42
      00FF7109H   LINE      CODE     ---       #44
      00FF7109H   LINE      CODE     ---       #46
      00FF710CH   LINE      CODE     ---       #47
      00FF710FH   LINE      CODE     ---       #48
      00FF7112H   LINE      CODE     ---       #49
      00FF7115H   LINE      CODE     ---       #50
      00FF7117H   LINE      CODE     ---       #53
      00FF7117H   LINE      CODE     ---       #55
      00FF711AH   LINE      CODE     ---       #56
      00FF711DH   LINE      CODE     ---       #57
      00FF7120H   LINE      CODE     ---       #58
      00FF7123H   LINE      CODE     ---       #59
      00FF7125H   LINE      CODE     ---       #62
      00FF7125H   LINE      CODE     ---       #64
      00FF7128H   LINE      CODE     ---       #65
      00FF712BH   LINE      CODE     ---       #66
      00FF712EH   LINE      CODE     ---       #67
      00FF7130H   LINE      CODE     ---       #70
      00FF7130H   LINE      CODE     ---       #72
      00FF7133H   LINE      CODE     ---       #73
      00FF7136H   LINE      CODE     ---       #74
      00FF7139H   LINE      CODE     ---       #75
      00FF713BH   LINE      CODE     ---       #78
      00FF713BH   LINE      CODE     ---       #80
      00FF713EH   LINE      CODE     ---       #81
      00FF7141H   LINE      CODE     ---       #82
      00FF7144H   LINE      CODE     ---       #83
      00FF7144H   LINE      CODE     ---       #86
      00FF7144H   LINE      CODE     ---       #87
      ---         BLOCKEND  ---      ---       LVL=0

L251 LINKER/LOCATER V4.66.93.0                                                        07/17/2023  20:23:02  PAGE 46


      00FF63B7H   BLOCK     CODE     ---       LVL=0
      00000DE2H   SYMBOL    EDATA    INT       tim_n
      00FF63BBH   BLOCK     CODE     NEAR LAB  LVL=1
      00000DE4H   SYMBOL    EDATA    WORD      dat
      ---         BLOCKEND  ---      ---       LVL=1
      00FF63B7H   LINE      CODE     ---       #95
      00FF63BBH   LINE      CODE     ---       #96
      00FF63BBH   LINE      CODE     ---       #97
      00FF63C1H   LINE      CODE     ---       #99
      00FF63DCH   LINE      CODE     ---       #101
      00FF63DCH   LINE      CODE     ---       #103
      00FF63E8H   LINE      CODE     ---       #104
      00FF63F6H   LINE      CODE     ---       #105
      00FF63F8H   LINE      CODE     ---       #107
      00FF63F8H   LINE      CODE     ---       #109
      00FF6404H   LINE      CODE     ---       #110
      00FF6412H   LINE      CODE     ---       #111
      00FF6414H   LINE      CODE     ---       #113
      00FF6414H   LINE      CODE     ---       #115
      00FF6420H   LINE      CODE     ---       #116
      00FF642EH   LINE      CODE     ---       #117
      00FF6430H   LINE      CODE     ---       #119
      00FF6430H   LINE      CODE     ---       #121
      00FF643CH   LINE      CODE     ---       #122
      00FF644AH   LINE      CODE     ---       #123
      00FF644CH   LINE      CODE     ---       #125
      00FF644CH   LINE      CODE     ---       #127
      00FF6458H   LINE      CODE     ---       #128
      00FF6466H   LINE      CODE     ---       #129
      00FF6466H   LINE      CODE     ---       #132
      00FF6466H   LINE      CODE     ---       #133
      00FF646AH   LINE      CODE     ---       #134
      ---         BLOCKEND  ---      ---       LVL=0

      00FF6DD7H   BLOCK     CODE     ---       LVL=0
      00000E73H   SYMBOL    EDATA    INT       tim_n
      00FF6DD7H   LINE      CODE     ---       #143
      00FF6DDBH   LINE      CODE     ---       #145
      00FF6DEFH   LINE      CODE     ---       #147
      00FF6DEFH   LINE      CODE     ---       #149
      00FF6DF2H   LINE      CODE     ---       #150
      00FF6DF5H   LINE      CODE     ---       #151
      00FF6DF8H   LINE      CODE     ---       #152
      00FF6DFBH   LINE      CODE     ---       #153
      00FF6DFDH   LINE      CODE     ---       #155
      00FF6DFDH   LINE      CODE     ---       #157
      00FF6E00H   LINE      CODE     ---       #158
      00FF6E03H   LINE      CODE     ---       #159
      00FF6E06H   LINE      CODE     ---       #160
      00FF6E09H   LINE      CODE     ---       #161
      00FF6E0BH   LINE      CODE     ---       #163
      00FF6E0BH   LINE      CODE     ---       #165
      00FF6E0EH   LINE      CODE     ---       #166
      00FF6E11H   LINE      CODE     ---       #167
      00FF6E14H   LINE      CODE     ---       #168
      00FF6E17H   LINE      CODE     ---       #169
      00FF6E19H   LINE      CODE     ---       #171
      00FF6E19H   LINE      CODE     ---       #173
      00FF6E1CH   LINE      CODE     ---       #174
      00FF6E1FH   LINE      CODE     ---       #175
      00FF6E22H   LINE      CODE     ---       #176
      00FF6E25H   LINE      CODE     ---       #177
      00FF6E27H   LINE      CODE     ---       #179
      00FF6E27H   LINE      CODE     ---       #181
      00FF6E2AH   LINE      CODE     ---       #182
L251 LINKER/LOCATER V4.66.93.0                                                        07/17/2023  20:23:02  PAGE 47


      00FF6E2DH   LINE      CODE     ---       #183
      00FF6E30H   LINE      CODE     ---       #184
      00FF6E33H   LINE      CODE     ---       #185
      00FF6E33H   LINE      CODE     ---       #187
      00FF6E33H   LINE      CODE     ---       #188
      ---         BLOCKEND  ---      ---       LVL=0

      00FF6093H   BLOCK     CODE     ---       LVL=0
      00000D26H   SYMBOL    EDATA    INT       tim_n
      00000D28H   SYMBOL    EDATA    WORD      time_ms
      00FF609BH   BLOCK     CODE     NEAR LAB  LVL=1
      00000D2AH   SYMBOL    EDATA    WORD      temp
      ---         BLOCKEND  ---      ---       LVL=1
      00FF6093H   LINE      CODE     ---       #198
      00FF609BH   LINE      CODE     ---       #199
      00FF609BH   LINE      CODE     ---       #201
      00FF60BEH   LINE      CODE     ---       #203
      00FF60C8H   LINE      CODE     ---       #205
      00FF60CCH   LINE      CODE     ---       #206
      00FF60D2H   LINE      CODE     ---       #207
      00FF60DCH   LINE      CODE     ---       #208
      00FF60DFH   LINE      CODE     ---       #209
      00FF60E2H   LINE      CODE     ---       #210
      00FF60E5H   LINE      CODE     ---       #211
      00FF60F1H   LINE      CODE     ---       #213
      00FF60F5H   LINE      CODE     ---       #214
      00FF60FBH   LINE      CODE     ---       #215
      00FF6105H   LINE      CODE     ---       #216
      00FF6108H   LINE      CODE     ---       #217
      00FF610BH   LINE      CODE     ---       #218
      00FF610DH   LINE      CODE     ---       #219
      00FF6119H   LINE      CODE     ---       #221
      00FF611FH   LINE      CODE     ---       #222
      00FF6129H   LINE      CODE     ---       #223
      00FF612CH   LINE      CODE     ---       #224
      00FF612FH   LINE      CODE     ---       #225
      00FF6131H   LINE      CODE     ---       #226
      00FF613DH   LINE      CODE     ---       #228
      00FF6143H   LINE      CODE     ---       #229
      00FF614DH   LINE      CODE     ---       #230
      00FF6150H   LINE      CODE     ---       #231
      00FF6153H   LINE      CODE     ---       #232
      00FF6155H   LINE      CODE     ---       #233
      00FF6161H   LINE      CODE     ---       #235
      00FF6167H   LINE      CODE     ---       #236
      00FF6171H   LINE      CODE     ---       #237
      00FF6174H   LINE      CODE     ---       #238
      00FF6177H   LINE      CODE     ---       #239
      ---         BLOCKEND  ---      ---       LVL=0

      ---         MODULE    ---      ---       zf_uart
      00FF694DH   PUBLIC    CODE     ---       uart_putchar
      00FF4F56H   PUBLIC    CODE     ---       uart_init
      00000404H   PUBLIC    EDATA    ---       uart1_rx_buff
      00000468H   PUBLIC    EDATA    ---       uart1_tx_buff
      000004CCH   PUBLIC    EDATA    ---       busy
      000009D4H   PUBLIC    EDATA    BYTE      ?uart_init?BYTE
      000000D0H   SFRSYM    DATA     BYTE      PSW
      0000009DH   SFRSYM    DATA     BYTE      IRCBAND
      00000097H   SFRSYM    DATA     BYTE      AUXR2
      000000EFH   SFRSYM    DATA     BYTE      AUXINTIF
      000000FDH   SFRSYM    DATA     BYTE      S4CON
      000000ACH   SFRSYM    DATA     BYTE      S3CON
      0000009AH   SFRSYM    DATA     BYTE      S2CON
      000000FEH   SFRSYM    DATA     BYTE      S4BUF
L251 LINKER/LOCATER V4.66.93.0                                                        07/17/2023  20:23:02  PAGE 48


      000000ADH   SFRSYM    DATA     BYTE      S3BUF
      0000009BH   SFRSYM    DATA     BYTE      S2BUF
      000000B7H   SFRSYM    DATA     BYTE      IPH
      000000CDH   SFRSYM    DATA     BYTE      SPSTAT
      000000DDH   SFRSYM    DATA     BYTE      T4T3M
      000000C1H   SFRSYM    DATA     BYTE      WDT_CONTR
      00000088H.6 SFRSYM    DATA     BIT       TR1
      000000D3H   SFRSYM    DATA     BYTE      T4L
      000000D5H   SFRSYM    DATA     BYTE      T3L
      000000D7H   SFRSYM    DATA     BYTE      T2L
      0000008BH   SFRSYM    DATA     BYTE      TL1
      000000D2H   SFRSYM    DATA     BYTE      T4H
      000000D4H   SFRSYM    DATA     BYTE      T3H
      000000D6H   SFRSYM    DATA     BYTE      T2H
      0000008DH   SFRSYM    DATA     BYTE      TH1
      000000DFH   SFRSYM    DATA     BYTE      IP3
      000000F4H   SFRSYM    DATA     BYTE      USBCON
      000000B5H   SFRSYM    DATA     BYTE      IP2
      000000FFH   SFRSYM    DATA     BYTE      RSTCFG
      000000F9H   SFRSYM    DATA     BYTE      LINICR
      0000008EH   SFRSYM    DATA     BYTE      AUXR
      000000AFH   SFRSYM    DATA     BYTE      IE2
      00000088H   SFRSYM    DATA     BYTE      TCON
      00000089H   SFRSYM    DATA     BYTE      TMOD
      00000098H   SFRSYM    DATA     BYTE      SCON
      000000F1H   SFRSYM    DATA     BYTE      CANICR
      00000087H   SFRSYM    DATA     BYTE      PCON
      00000099H   SFRSYM    DATA     BYTE      SBUF
      000000BCH   SFRSYM    DATA     BYTE      ADC_CONTR
      000000E7H   SFRSYM    DATA     BYTE      CMPCR2
      000000E6H   SFRSYM    DATA     BYTE      CMPCR1
      000000B8H   SFRSYM    DATA     BYTE      IP
      000000A8H.4 SFRSYM    DATA     BIT       ES
      0000008FH   SFRSYM    DATA     BYTE      INTCLKO
      000000EEH   SFRSYM    DATA     BYTE      IP3H
      000000B6H   SFRSYM    DATA     BYTE      IP2H
      000000A8H   SFRSYM    DATA     BYTE      IE
      000000BBH   SFRSYM    DATA     BYTE      P_SW3
      000000BAH   SFRSYM    DATA     BYTE      P_SW2
      000000A2H   SFRSYM    DATA     BYTE      P_SW1
      000000CEH   SFRSYM    DATA     BYTE      SPCTL
      000000F8H   SFRSYM    DATA     BYTE      P7
      000000E8H   SFRSYM    DATA     BYTE      P6
      000000C8H   SFRSYM    DATA     BYTE      P5
      000000C0H   SFRSYM    DATA     BYTE      P4
      000000C9H   SFRSYM    DATA     BYTE      P5M1
      000000B0H   SFRSYM    DATA     BYTE      P3
      000000CAH   SFRSYM    DATA     BYTE      P5M0
      000000A0H   SFRSYM    DATA     BYTE      P2
      00000090H   SFRSYM    DATA     BYTE      P1
      00000080H   SFRSYM    DATA     BYTE      P0

      00FF4F56H   BLOCK     CODE     ---       LVL=0
      000009D4H   SYMBOL    EDATA    INT       uart_n
      000009D6H   SYMBOL    EDATA    INT       uart_rx_pin
      000009D8H   SYMBOL    EDATA    INT       uart_tx_pin
      000009DAH   SYMBOL    EDATA    DWORD     baud
      000009DEH   SYMBOL    EDATA    INT       tim_n
      00FF4F66H   BLOCK     CODE     NEAR LAB  LVL=1
      000009E0H   SYMBOL    EDATA    WORD      brt
      ---         BLOCKEND  ---      ---       LVL=1
      00FF4F56H   LINE      CODE     ---       #48
      00FF4F66H   LINE      CODE     ---       #49
      00FF4F66H   LINE      CODE     ---       #52
      00FF4F8DH   LINE      CODE     ---       #55
L251 LINKER/LOCATER V4.66.93.0                                                        07/17/2023  20:23:02  PAGE 49


      00FF4FAFH   LINE      CODE     ---       #57
      00FF4FAFH   LINE      CODE     ---       #59
      00FF4FBBH   LINE      CODE     ---       #61
      00FF4FBEH   LINE      CODE     ---       #62
      00FF4FC2H   LINE      CODE     ---       #63
      00FF4FC8H   LINE      CODE     ---       #64
      00FF4FD2H   LINE      CODE     ---       #65
      00FF4FD5H   LINE      CODE     ---       #66
      00FF4FD8H   LINE      CODE     ---       #67
      00FF4FDDH   LINE      CODE     ---       #68
      00FF4FDFH   LINE      CODE     ---       #69
      00FF4FEBH   LINE      CODE     ---       #71
      00FF4FEEH   LINE      CODE     ---       #72
      00FF4FF4H   LINE      CODE     ---       #73
      00FF4FFEH   LINE      CODE     ---       #74
      00FF5001H   LINE      CODE     ---       #75
      00FF5001H   LINE      CODE     ---       #76
      00FF5004H   LINE      CODE     ---       #77
      00FF501AH   LINE      CODE     ---       #79
      00FF501EH   LINE      CODE     ---       #80
      00FF5020H   LINE      CODE     ---       #81
      00FF5038H   LINE      CODE     ---       #83
      00FF503BH   LINE      CODE     ---       #84
      00FF503DH   LINE      CODE     ---       #85
      00FF5055H   LINE      CODE     ---       #87
      00FF5058H   LINE      CODE     ---       #88
      00FF505AH   LINE      CODE     ---       #89
      00FF5072H   LINE      CODE     ---       #91
      00FF5075H   LINE      CODE     ---       #92
      00FF5075H   LINE      CODE     ---       #93
      00FF507AH   LINE      CODE     ---       #94
      00FF507DH   LINE      CODE     ---       #95
      00FF5080H   LINE      CODE     ---       #98
      00FF5080H   LINE      CODE     ---       #100
      00FF508CH   LINE      CODE     ---       #102
      00FF508FH   LINE      CODE     ---       #103
      00FF5095H   LINE      CODE     ---       #104
      00FF509FH   LINE      CODE     ---       #105
      00FF50A2H   LINE      CODE     ---       #106
      00FF50A2H   LINE      CODE     ---       #108
      00FF50A5H   LINE      CODE     ---       #109
      00FF50BDH   LINE      CODE     ---       #111
      00FF50C1H   LINE      CODE     ---       #112
      00FF50C3H   LINE      CODE     ---       #113
      00FF50DBH   LINE      CODE     ---       #115
      00FF50DEH   LINE      CODE     ---       #116
      00FF50DEH   LINE      CODE     ---       #118
      00FF50E1H   LINE      CODE     ---       #119
      00FF50E6H   LINE      CODE     ---       #120
      00FF50E9H   LINE      CODE     ---       #123
      00FF50E9H   LINE      CODE     ---       #125
      00FF50F5H   LINE      CODE     ---       #127
      00FF50F8H   LINE      CODE     ---       #128
      00FF50FEH   LINE      CODE     ---       #129
      00FF5108H   LINE      CODE     ---       #130
      00FF510BH   LINE      CODE     ---       #131
      00FF510DH   LINE      CODE     ---       #132
      00FF5119H   LINE      CODE     ---       #134
      00FF511CH   LINE      CODE     ---       #135
      00FF5122H   LINE      CODE     ---       #136
      00FF512CH   LINE      CODE     ---       #137
      00FF512FH   LINE      CODE     ---       #138
      00FF512FH   LINE      CODE     ---       #140
      00FF5132H   LINE      CODE     ---       #141
      00FF514AH   LINE      CODE     ---       #143
L251 LINKER/LOCATER V4.66.93.0                                                        07/17/2023  20:23:02  PAGE 50


      00FF514EH   LINE      CODE     ---       #144
      00FF5150H   LINE      CODE     ---       #145
      00FF5168H   LINE      CODE     ---       #147
      00FF516BH   LINE      CODE     ---       #148
      00FF516BH   LINE      CODE     ---       #150
      00FF516EH   LINE      CODE     ---       #151
      00FF5173H   LINE      CODE     ---       #152
      00FF5176H   LINE      CODE     ---       #155
      00FF5176H   LINE      CODE     ---       #157
      00FF5182H   LINE      CODE     ---       #159
      00FF5185H   LINE      CODE     ---       #160
      00FF518BH   LINE      CODE     ---       #161
      00FF5195H   LINE      CODE     ---       #162
      00FF5198H   LINE      CODE     ---       #163
      00FF519AH   LINE      CODE     ---       #164
      00FF51A6H   LINE      CODE     ---       #166
      00FF51A9H   LINE      CODE     ---       #167
      00FF51AFH   LINE      CODE     ---       #168
      00FF51B9H   LINE      CODE     ---       #169
      00FF51BCH   LINE      CODE     ---       #170
      00FF51BCH   LINE      CODE     ---       #172
      00FF51BFH   LINE      CODE     ---       #173
      00FF51D7H   LINE      CODE     ---       #175
      00FF51DBH   LINE      CODE     ---       #176
      00FF51DDH   LINE      CODE     ---       #177
      00FF51F5H   LINE      CODE     ---       #179
      00FF51F8H   LINE      CODE     ---       #180
      00FF51FCH   LINE      CODE     ---       #181
      00FF51FFH   LINE      CODE     ---       #182
      00FF51FFH   LINE      CODE     ---       #183
      00FF5202H   LINE      CODE     ---       #184
      00FF5207H   LINE      CODE     ---       #185
      00FF5207H   LINE      CODE     ---       #188
      00FF5207H   LINE      CODE     ---       #190
      ---         BLOCKEND  ---      ---       LVL=0

      00FF694DH   BLOCK     CODE     ---       LVL=0
      00000E23H   SYMBOL    EDATA    INT       uart_n
      00000E25H   SYMBOL    EDATA    BYTE      dat
      00FF694DH   LINE      CODE     ---       #199
      00FF6955H   LINE      CODE     ---       #201
      00FF6967H   LINE      CODE     ---       #203
      00FF6967H   LINE      CODE     ---       #204
      00FF6970H   LINE      CODE     ---       #205
      00FF6976H   LINE      CODE     ---       #206
      00FF697CH   LINE      CODE     ---       #207
      00FF697EH   LINE      CODE     ---       #208
      00FF697EH   LINE      CODE     ---       #209
      00FF6987H   LINE      CODE     ---       #210
      00FF698DH   LINE      CODE     ---       #211
      00FF6993H   LINE      CODE     ---       #212
      00FF6995H   LINE      CODE     ---       #213
      00FF6995H   LINE      CODE     ---       #214
      00FF699EH   LINE      CODE     ---       #215
      00FF69A4H   LINE      CODE     ---       #216
      00FF69AAH   LINE      CODE     ---       #217
      00FF69ACH   LINE      CODE     ---       #218
      00FF69ACH   LINE      CODE     ---       #219
      00FF69B5H   LINE      CODE     ---       #220
      00FF69BBH   LINE      CODE     ---       #221
      00FF69C1H   LINE      CODE     ---       #222
      00FF69C1H   LINE      CODE     ---       #223
      00FF69C1H   LINE      CODE     ---       #224
      ---         BLOCKEND  ---      ---       LVL=0
      00000C5DH   SYMBOL    EDATA    INT       uart_n
L251 LINKER/LOCATER V4.66.93.0                                                        07/17/2023  20:23:02  PAGE 51


      00000C5FH   SYMBOL    EDATA    ---       p
      00000C63H   SYMBOL    EDATA    WORD      len
      00000D2CH   SYMBOL    EDATA    INT       uart_n
      00000D2EH   SYMBOL    EDATA    ---       str

      ---         MODULE    ---      ---       zf_fifo
      00FF6B0FH   PUBLIC    CODE     ---       fifo_head_offset
      00FF5C3FH   PUBLIC    CODE     ---       fifo_write_buffer
      00000A26H   PUBLIC    EDATA    BYTE      ?fifo_init?BYTE
      000009B6H   PUBLIC    EDATA    BYTE      ?fifo_write_buffer?BYTE
      0000097FH   PUBLIC    EDATA    BYTE      ?fifo_read_buffer?BYTE
      000000D0H   SFRSYM    DATA     BYTE      PSW
      0000009DH   SFRSYM    DATA     BYTE      IRCBAND
      00000097H   SFRSYM    DATA     BYTE      AUXR2
      000000EFH   SFRSYM    DATA     BYTE      AUXINTIF
      000000FDH   SFRSYM    DATA     BYTE      S4CON
      000000ACH   SFRSYM    DATA     BYTE      S3CON
      0000009AH   SFRSYM    DATA     BYTE      S2CON
      000000B7H   SFRSYM    DATA     BYTE      IPH
      000000CDH   SFRSYM    DATA     BYTE      SPSTAT
      000000DDH   SFRSYM    DATA     BYTE      T4T3M
      000000C1H   SFRSYM    DATA     BYTE      WDT_CONTR
      000000DFH   SFRSYM    DATA     BYTE      IP3
      000000F4H   SFRSYM    DATA     BYTE      USBCON
      000000B5H   SFRSYM    DATA     BYTE      IP2
      000000FFH   SFRSYM    DATA     BYTE      RSTCFG
      000000F9H   SFRSYM    DATA     BYTE      LINICR
      0000008EH   SFRSYM    DATA     BYTE      AUXR
      000000AFH   SFRSYM    DATA     BYTE      IE2
      00000088H   SFRSYM    DATA     BYTE      TCON
      00000098H   SFRSYM    DATA     BYTE      SCON
      000000F1H   SFRSYM    DATA     BYTE      CANICR
      00000087H   SFRSYM    DATA     BYTE      PCON
      000000BCH   SFRSYM    DATA     BYTE      ADC_CONTR
      000000E7H   SFRSYM    DATA     BYTE      CMPCR2
      000000E6H   SFRSYM    DATA     BYTE      CMPCR1
      000000B8H   SFRSYM    DATA     BYTE      IP
      0000008FH   SFRSYM    DATA     BYTE      INTCLKO
      000000EEH   SFRSYM    DATA     BYTE      IP3H
      000000B6H   SFRSYM    DATA     BYTE      IP2H
      000000A8H   SFRSYM    DATA     BYTE      IE
      000000BBH   SFRSYM    DATA     BYTE      P_SW3
      000000BAH   SFRSYM    DATA     BYTE      P_SW2
      000000A2H   SFRSYM    DATA     BYTE      P_SW1
      000000CEH   SFRSYM    DATA     BYTE      SPCTL
      000000F8H   SFRSYM    DATA     BYTE      P7
      000000E8H   SFRSYM    DATA     BYTE      P6
      000000C8H   SFRSYM    DATA     BYTE      P5
      000000C0H   SFRSYM    DATA     BYTE      P4
      000000B0H   SFRSYM    DATA     BYTE      P3
      000000A0H   SFRSYM    DATA     BYTE      P2
      00000090H   SFRSYM    DATA     BYTE      P1
      00000080H   SFRSYM    DATA     BYTE      P0
      00000A26H   SYMBOL    EDATA    ---       fifo
      00000A2AH   SYMBOL    EDATA    ---       buffer_addr
      00000A2EH   SYMBOL    EDATA    DWORD     size

      00FF6B0FH   BLOCK     CODE     ---       LVL=0
      00000C65H   SYMBOL    EDATA    ---       fifo
      00000C69H   SYMBOL    EDATA    DWORD     offset
      00FF6B0FH   LINE      CODE     ---       #61
      00FF6B17H   LINE      CODE     ---       #63
      00FF6B31H   LINE      CODE     ---       #65
      00FF6B33H   LINE      CODE     ---       #67
      00FF6B58H   LINE      CODE     ---       #68
L251 LINKER/LOCATER V4.66.93.0                                                        07/17/2023  20:23:02  PAGE 52


      00FF6B78H   LINE      CODE     ---       #69
      ---         BLOCKEND  ---      ---       LVL=0
      00000C6DH   SYMBOL    EDATA    ---       fifo
      00000C71H   SYMBOL    EDATA    DWORD     offset
      00000DE6H   SYMBOL    EDATA    ---       fifo
      00000DEAH   SYMBOL    EDATA    ---       fifo

      00FF5C3FH   BLOCK     CODE     ---       LVL=0
      000009B6H   SYMBOL    EDATA    ---       fifo
      000009BAH   SYMBOL    EDATA    ---       dat
      000009BEH   SYMBOL    EDATA    DWORD     length
      00FF5C47H   BLOCK     CODE     NEAR LAB  LVL=1
      000009C2H   SYMBOL    EDATA    DWORD     temp_length
      ---         BLOCKEND  ---      ---       LVL=1
      00FF5C3FH   LINE      CODE     ---       #120
      00FF5C47H   LINE      CODE     ---       #121
      00FF5C47H   LINE      CODE     ---       #124
      00FF5C61H   LINE      CODE     ---       #126
      00FF5C83H   LINE      CODE     ---       #128
      00FF5C92H   LINE      CODE     ---       #130
      00FF5CBBH   LINE      CODE     ---       #131
      00FF5CC6H   LINE      CODE     ---       #132
      00FF5CD6H   LINE      CODE     ---       #133
      00FF5D09H   LINE      CODE     ---       #134
      00FF5D1AH   LINE      CODE     ---       #135
      00FF5D1CH   LINE      CODE     ---       #138
      00FF5D45H   LINE      CODE     ---       #139
      00FF5D50H   LINE      CODE     ---       #140
      00FF5D50H   LINE      CODE     ---       #142
      00FF5D6CH   LINE      CODE     ---       #143
      00FF5D6EH   LINE      CODE     ---       #146
      00FF5D74H   LINE      CODE     ---       #147
      00FF5D74H   LINE      CODE     ---       #149
      00FF5D76H   LINE      CODE     ---       #150
      ---         BLOCKEND  ---      ---       LVL=0
      0000097FH   SYMBOL    EDATA    ---       fifo
      00000983H   SYMBOL    EDATA    ---       dat
      00000987H   SYMBOL    EDATA    ---       length
      0000098BH   SYMBOL    EDATA    INT       flag
      0000098DH   SYMBOL    EDATA    BYTE      data_check
      0000098EH   SYMBOL    EDATA    DWORD     temp_length

      ---         MODULE    ---      ---       SEEKFREE_18TFT
      00FF6F9AH   PUBLIC    CODE     ---       lcd_clear_simspi
      00FF6E34H   PUBLIC    CODE     ---       lcd_showstr_simspi
      00FF7288H   PUBLIC    CODE     ---       lcd_writeIndex_simspi
      00FF72D4H   PUBLIC    CODE     ---       lcd_writeData_simspi
      00FF7A38H   PUBLIC    CODE     ---       lcd_writeIndex
      00FF7A4DH   PUBLIC    CODE     ---       lcd_writeData
      00FF7047H   PUBLIC    CODE     ---       lcd_writeData_16bit_simspi
      00FF6CB0H   PUBLIC    CODE     ---       lcd_set_region_simspi
      00FF564DH   PUBLIC    CODE     ---       lcd_init_simspi
      00FF6D14H   PUBLIC    CODE     ---       lcd_set_region
      00FF775DH   PUBLIC    CODE     ---       lcd_writedata_16bit
      00FF5AFAH   PUBLIC    CODE     ---       lcd_showfloat_simspi
      00FF6243H   PUBLIC    CODE     ---       lcd_showchar_simspi
      000006B4H   PUBLIC    EDATA    BYTE      ?lcd_showfloat_simspi?BYTE
      000006E4H   PUBLIC    EDATA    BYTE      ?lcd_showfloat?BYTE
      000000D0H   SFRSYM    DATA     BYTE      PSW
      0000009DH   SFRSYM    DATA     BYTE      IRCBAND
      00000097H   SFRSYM    DATA     BYTE      AUXR2
      000000EFH   SFRSYM    DATA     BYTE      AUXINTIF
      000000FDH   SFRSYM    DATA     BYTE      S4CON
      000000ACH   SFRSYM    DATA     BYTE      S3CON
      0000009AH   SFRSYM    DATA     BYTE      S2CON
L251 LINKER/LOCATER V4.66.93.0                                                        07/17/2023  20:23:02  PAGE 53


      000000B7H   SFRSYM    DATA     BYTE      IPH
      000000CDH   SFRSYM    DATA     BYTE      SPSTAT
      000000DDH   SFRSYM    DATA     BYTE      T4T3M
      000000C1H   SFRSYM    DATA     BYTE      WDT_CONTR
      000000DFH   SFRSYM    DATA     BYTE      IP3
      000000F4H   SFRSYM    DATA     BYTE      USBCON
      000000B5H   SFRSYM    DATA     BYTE      IP2
      000000FFH   SFRSYM    DATA     BYTE      RSTCFG
      000000F9H   SFRSYM    DATA     BYTE      LINICR
      0000008EH   SFRSYM    DATA     BYTE      AUXR
      000000AFH   SFRSYM    DATA     BYTE      IE2
      000000A0H.5 SFRSYM    DATA     BIT       P25
      00000088H   SFRSYM    DATA     BYTE      TCON
      000000A0H.3 SFRSYM    DATA     BIT       P23
      00000098H   SFRSYM    DATA     BYTE      SCON
      000000A0H.2 SFRSYM    DATA     BIT       P22
      000000A0H.1 SFRSYM    DATA     BIT       P21
      000000A0H.0 SFRSYM    DATA     BIT       P20
      000000F1H   SFRSYM    DATA     BYTE      CANICR
      00000087H   SFRSYM    DATA     BYTE      PCON
      000000BCH   SFRSYM    DATA     BYTE      ADC_CONTR
      000000E7H   SFRSYM    DATA     BYTE      CMPCR2
      000000E6H   SFRSYM    DATA     BYTE      CMPCR1
      000000B8H   SFRSYM    DATA     BYTE      IP
      0000008FH   SFRSYM    DATA     BYTE      INTCLKO
      000000EEH   SFRSYM    DATA     BYTE      IP3H
      000000B6H   SFRSYM    DATA     BYTE      IP2H
      000000A8H   SFRSYM    DATA     BYTE      IE
      000000BBH   SFRSYM    DATA     BYTE      P_SW3
      000000BAH   SFRSYM    DATA     BYTE      P_SW2
      000000A2H   SFRSYM    DATA     BYTE      P_SW1
      000000CEH   SFRSYM    DATA     BYTE      SPCTL
      000000F8H   SFRSYM    DATA     BYTE      P7
      000000E8H   SFRSYM    DATA     BYTE      P6
      000000C8H   SFRSYM    DATA     BYTE      P5
      000000C0H   SFRSYM    DATA     BYTE      P4
      000000B0H   SFRSYM    DATA     BYTE      P3
      000000A0H   SFRSYM    DATA     BYTE      P2
      00000090H   SFRSYM    DATA     BYTE      P1
      00000080H   SFRSYM    DATA     BYTE      P0

      00FF7288H   BLOCK     CODE     ---       LVL=0
      00000E75H   SYMBOL    EDATA    BYTE      dat
      00FF728CH   BLOCK     CODE     NEAR LAB  LVL=1
      00000E76H   SYMBOL    EDATA    BYTE      i
      ---         BLOCKEND  ---      ---       LVL=1
      00FF7288H   LINE      CODE     ---       #60
      00FF728CH   LINE      CODE     ---       #61
      00FF728CH   LINE      CODE     ---       #62
      00FF7292H   LINE      CODE     ---       #64
      00FF7295H   LINE      CODE     ---       #65
      00FF7298H   LINE      CODE     ---       #66
      00FF729BH   LINE      CODE     ---       #68
      00FF729DH   LINE      CODE     ---       #70
      00FF72A9H   LINE      CODE     ---       #71
      00FF72ACH   LINE      CODE     ---       #72
      00FF72AFH   LINE      CODE     ---       #74
      00FF72B2H   LINE      CODE     ---       #75
      00FF72BCH   LINE      CODE     ---       #76
      00FF72D0H   LINE      CODE     ---       #77
      00FF72D3H   LINE      CODE     ---       #78
      ---         BLOCKEND  ---      ---       LVL=0

      00FF72D4H   BLOCK     CODE     ---       LVL=0
      00000E77H   SYMBOL    EDATA    BYTE      dat
L251 LINKER/LOCATER V4.66.93.0                                                        07/17/2023  20:23:02  PAGE 54


      00FF72D8H   BLOCK     CODE     NEAR LAB  LVL=1
      00000E78H   SYMBOL    EDATA    BYTE      i
      ---         BLOCKEND  ---      ---       LVL=1
      00FF72D4H   LINE      CODE     ---       #87
      00FF72D8H   LINE      CODE     ---       #88
      00FF72D8H   LINE      CODE     ---       #89
      00FF72DEH   LINE      CODE     ---       #91
      00FF72E1H   LINE      CODE     ---       #92
      00FF72E4H   LINE      CODE     ---       #93
      00FF72E7H   LINE      CODE     ---       #94
      00FF72E9H   LINE      CODE     ---       #96
      00FF72F5H   LINE      CODE     ---       #97
      00FF72F8H   LINE      CODE     ---       #98
      00FF72FBH   LINE      CODE     ---       #100
      00FF72FEH   LINE      CODE     ---       #101
      00FF7308H   LINE      CODE     ---       #102
      00FF731CH   LINE      CODE     ---       #103
      00FF731FH   LINE      CODE     ---       #104
      ---         BLOCKEND  ---      ---       LVL=0

      00FF7047H   BLOCK     CODE     ---       LVL=0
      00000E26H   SYMBOL    EDATA    WORD      dat
      00FF704BH   BLOCK     CODE     NEAR LAB  LVL=1
      00000E28H   SYMBOL    EDATA    BYTE      i
      ---         BLOCKEND  ---      ---       LVL=1
      00FF7047H   LINE      CODE     ---       #113
      00FF704BH   LINE      CODE     ---       #114
      00FF704BH   LINE      CODE     ---       #115
      00FF7051H   LINE      CODE     ---       #117
      00FF7054H   LINE      CODE     ---       #118
      00FF7057H   LINE      CODE     ---       #119
      00FF705AH   LINE      CODE     ---       #121
      00FF705CH   LINE      CODE     ---       #123
      00FF7071H   LINE      CODE     ---       #124
      00FF7074H   LINE      CODE     ---       #125
      00FF7077H   LINE      CODE     ---       #127
      00FF707AH   LINE      CODE     ---       #128
      00FF7084H   LINE      CODE     ---       #129
      00FF7098H   LINE      CODE     ---       #131
      00FF709BH   LINE      CODE     ---       #133
      ---         BLOCKEND  ---      ---       LVL=0

      00FF6CB0H   BLOCK     CODE     ---       LVL=0
      00000C75H   SYMBOL    EDATA    WORD      x_start
      00000C77H   SYMBOL    EDATA    WORD      y_start
      00000C79H   SYMBOL    EDATA    WORD      x_end
      00000C7BH   SYMBOL    EDATA    WORD      y_end
      00FF6CB0H   LINE      CODE     ---       #145
      00FF6CC0H   LINE      CODE     ---       #150
      00FF6CC5H   LINE      CODE     ---       #151
      00FF6CC9H   LINE      CODE     ---       #152
      00FF6CD6H   LINE      CODE     ---       #153
      00FF6CDAH   LINE      CODE     ---       #154
      00FF6CE7H   LINE      CODE     ---       #156
      00FF6CECH   LINE      CODE     ---       #157
      00FF6CF0H   LINE      CODE     ---       #158
      00FF6CFDH   LINE      CODE     ---       #159
      00FF6D01H   LINE      CODE     ---       #160
      00FF6D0EH   LINE      CODE     ---       #177
      00FF6D13H   LINE      CODE     ---       #178
      ---         BLOCKEND  ---      ---       LVL=0

      00FF6F9AH   BLOCK     CODE     ---       LVL=0
      00000DEEH   SYMBOL    EDATA    INT       color
      00FF6F9EH   BLOCK     CODE     NEAR LAB  LVL=1
L251 LINKER/LOCATER V4.66.93.0                                                        07/17/2023  20:23:02  PAGE 55


      00000DF0H   SYMBOL    EDATA    BYTE      i
      00000DF1H   SYMBOL    EDATA    BYTE      j
      ---         BLOCKEND  ---      ---       LVL=1
      00FF6F9AH   LINE      CODE     ---       #187
      00FF6F9EH   LINE      CODE     ---       #188
      00FF6F9EH   LINE      CODE     ---       #190
      00FF6FADH   LINE      CODE     ---       #191
      00FF6FB4H   LINE      CODE     ---       #192
      00FF6FBBH   LINE      CODE     ---       #193
      00FF6FF0H   LINE      CODE     ---       #194
      ---         BLOCKEND  ---      ---       LVL=0

      00FF564DH   BLOCK     CODE     ---       LVL=0
      00FF564DH   LINE      CODE     ---       #203
      00FF564DH   LINE      CODE     ---       #207
      00FF5650H   LINE      CODE     ---       #208
      00FF5657H   LINE      CODE     ---       #209
      00FF565AH   LINE      CODE     ---       #210
      00FF5661H   LINE      CODE     ---       #211
      00FF5666H   LINE      CODE     ---       #212
      00FF566DH   LINE      CODE     ---       #214
      00FF5672H   LINE      CODE     ---       #215
      00FF5677H   LINE      CODE     ---       #216
      00FF567CH   LINE      CODE     ---       #217
      00FF5681H   LINE      CODE     ---       #219
      00FF5686H   LINE      CODE     ---       #220
      00FF568BH   LINE      CODE     ---       #221
      00FF5690H   LINE      CODE     ---       #222
      00FF5695H   LINE      CODE     ---       #224
      00FF569AH   LINE      CODE     ---       #225
      00FF569FH   LINE      CODE     ---       #226
      00FF56A4H   LINE      CODE     ---       #227
      00FF56A9H   LINE      CODE     ---       #228
      00FF56AEH   LINE      CODE     ---       #229
      00FF56B3H   LINE      CODE     ---       #230
      00FF56B8H   LINE      CODE     ---       #232
      00FF56BDH   LINE      CODE     ---       #233
      00FF56C2H   LINE      CODE     ---       #235
      00FF56C7H   LINE      CODE     ---       #236
      00FF56CCH   LINE      CODE     ---       #237
      00FF56D1H   LINE      CODE     ---       #238
      00FF56D6H   LINE      CODE     ---       #239
      00FF56DBH   LINE      CODE     ---       #240
      00FF56E0H   LINE      CODE     ---       #242
      00FF56E5H   LINE      CODE     ---       #243
      00FF56EAH   LINE      CODE     ---       #244
      00FF56EEH   LINE      CODE     ---       #246
      00FF56F3H   LINE      CODE     ---       #247
      00FF56F8H   LINE      CODE     ---       #248
      00FF56FDH   LINE      CODE     ---       #249
      00FF5702H   LINE      CODE     ---       #250
      00FF5707H   LINE      CODE     ---       #251
      00FF570CH   LINE      CODE     ---       #253
      00FF5711H   LINE      CODE     ---       #254
      00FF5716H   LINE      CODE     ---       #256
      00FF571BH   LINE      CODE     ---       #257
      00FF572FH   LINE      CODE     ---       #259
      00FF5736H   LINE      CODE     ---       #260
      00FF573CH   LINE      CODE     ---       #261
      00FF5743H   LINE      CODE     ---       #262
      00FF5748H   LINE      CODE     ---       #263
      00FF5748H   LINE      CODE     ---       #265
      00FF574DH   LINE      CODE     ---       #266
      00FF5752H   LINE      CODE     ---       #267
      00FF5757H   LINE      CODE     ---       #268
L251 LINKER/LOCATER V4.66.93.0                                                        07/17/2023  20:23:02  PAGE 56


      00FF575CH   LINE      CODE     ---       #269
      00FF5761H   LINE      CODE     ---       #270
      00FF5766H   LINE      CODE     ---       #271
      00FF576BH   LINE      CODE     ---       #272
      00FF5770H   LINE      CODE     ---       #273
      00FF5775H   LINE      CODE     ---       #274
      00FF577AH   LINE      CODE     ---       #275
      00FF577FH   LINE      CODE     ---       #276
      00FF5784H   LINE      CODE     ---       #277
      00FF5789H   LINE      CODE     ---       #278
      00FF578DH   LINE      CODE     ---       #279
      00FF5792H   LINE      CODE     ---       #280
      00FF5797H   LINE      CODE     ---       #281
      00FF579CH   LINE      CODE     ---       #283
      00FF57A1H   LINE      CODE     ---       #284
      00FF57A6H   LINE      CODE     ---       #285
      00FF57ABH   LINE      CODE     ---       #286
      00FF57B0H   LINE      CODE     ---       #287
      00FF57B5H   LINE      CODE     ---       #288
      00FF57BAH   LINE      CODE     ---       #289
      00FF57BFH   LINE      CODE     ---       #290
      00FF57C4H   LINE      CODE     ---       #291
      00FF57C9H   LINE      CODE     ---       #292
      00FF57CEH   LINE      CODE     ---       #293
      00FF57D3H   LINE      CODE     ---       #294
      00FF57D8H   LINE      CODE     ---       #295
      00FF57DDH   LINE      CODE     ---       #296
      00FF57E1H   LINE      CODE     ---       #297
      00FF57E6H   LINE      CODE     ---       #298
      00FF57EBH   LINE      CODE     ---       #299
      00FF57F0H   LINE      CODE     ---       #301
      00FF57F5H   LINE      CODE     ---       #302
      00FF57F9H   LINE      CODE     ---       #303
      00FF57FEH   LINE      CODE     ---       #304
      00FF5802H   LINE      CODE     ---       #305
      00FF5807H   LINE      CODE     ---       #307
      00FF580CH   LINE      CODE     ---       #308
      00FF5810H   LINE      CODE     ---       #309
      00FF5815H   LINE      CODE     ---       #310
      00FF5819H   LINE      CODE     ---       #311
      00FF581EH   LINE      CODE     ---       #313
      00FF5823H   LINE      CODE     ---       #314
      00FF5828H   LINE      CODE     ---       #315
      00FF582DH   LINE      CODE     ---       #316
      00FF5831H   LINE      CODE     ---       #318
      00FF5836H   LINE      CODE     ---       #319
      00FF583BH   LINE      CODE     ---       #320
      00FF5840H   LINE      CODE     ---       #322
      00FF5847H   LINE      CODE     ---       #323
      ---         BLOCKEND  ---      ---       LVL=0
      00000D32H   SYMBOL    EDATA    WORD      x
      00000D34H   SYMBOL    EDATA    WORD      y
      00000D36H   SYMBOL    EDATA    WORD      color

      00FF6243H   BLOCK     CODE     ---       LVL=0
      00000C7DH   SYMBOL    EDATA    WORD      x
      00000C7FH   SYMBOL    EDATA    WORD      y
      00000C81H   SYMBOL    EDATA    CHAR      dat
      00FF624FH   BLOCK     CODE     NEAR LAB  LVL=1
      00000C82H   SYMBOL    EDATA    BYTE      i
      00000C83H   SYMBOL    EDATA    BYTE      j
      00000C84H   SYMBOL    EDATA    BYTE      temp
      ---         BLOCKEND  ---      ---       LVL=1
      00FF6243H   LINE      CODE     ---       #351
      00FF624FH   LINE      CODE     ---       #352
L251 LINKER/LOCATER V4.66.93.0                                                        07/17/2023  20:23:02  PAGE 57


      00FF624FH   LINE      CODE     ---       #356
      00FF6257H   LINE      CODE     ---       #358
      00FF6280H   LINE      CODE     ---       #359
      00FF62A8H   LINE      CODE     ---       #360
      00FF62AFH   LINE      CODE     ---       #362
      00FF62BFH   LINE      CODE     ---       #363
      00FF62C6H   LINE      CODE     ---       #364
      00FF62D0H   LINE      CODE     ---       #365
      00FF62E7H   LINE      CODE     ---       #366
      00FF6301H   LINE      CODE     ---       #367
      ---         BLOCKEND  ---      ---       LVL=0

      00FF6E34H   BLOCK     CODE     ---       LVL=0
      00000B36H   SYMBOL    EDATA    WORD      x
      00000B38H   SYMBOL    EDATA    WORD      y
      00000B3AH   SYMBOL    EDATA    ---       dat
      00FF6E40H   BLOCK     CODE     NEAR LAB  LVL=1
      00000B3EH   SYMBOL    EDATA    WORD      j
      ---         BLOCKEND  ---      ---       LVL=1
      00FF6E34H   LINE      CODE     ---       #378
      00FF6E40H   LINE      CODE     ---       #379
      00FF6E40H   LINE      CODE     ---       #382
      00FF6E46H   LINE      CODE     ---       #383
      00FF6E48H   LINE      CODE     ---       #385
      00FF6E72H   LINE      CODE     ---       #386
      00FF6E80H   LINE      CODE     ---       #387
      00FF6E90H   LINE      CODE     ---       #388
      ---         BLOCKEND  ---      ---       LVL=0
      00000B90H   SYMBOL    EDATA    WORD      x
      00000B92H   SYMBOL    EDATA    WORD      y
      00000B94H   SYMBOL    EDATA    CHAR      dat
      00000B95H   SYMBOL    EDATA    ---       a
      00000B98H   SYMBOL    EDATA    BYTE      i
      00000B99H   SYMBOL    EDATA    WORD      x
      00000B9BH   SYMBOL    EDATA    WORD      y
      00000B9DH   SYMBOL    EDATA    BYTE      dat
      00000B9EH   SYMBOL    EDATA    ---       a
      00000BA1H   SYMBOL    EDATA    BYTE      i
      00000A32H   SYMBOL    EDATA    WORD      x
      00000A34H   SYMBOL    EDATA    WORD      y
      00000A36H   SYMBOL    EDATA    INT       dat
      00000A38H   SYMBOL    EDATA    ---       a
      00000A3DH   SYMBOL    EDATA    BYTE      i
      00000A3EH   SYMBOL    EDATA    WORD      x
      00000A40H   SYMBOL    EDATA    WORD      y
      00000A42H   SYMBOL    EDATA    WORD      dat
      00000A44H   SYMBOL    EDATA    ---       a
      00000A49H   SYMBOL    EDATA    BYTE      i
      00000803H   SYMBOL    EDATA    WORD      x
      00000805H   SYMBOL    EDATA    WORD      y
      00000807H   SYMBOL    EDATA    LONG      dat
      0000080BH   SYMBOL    EDATA    BYTE      num
      0000080CH   SYMBOL    EDATA    ---       buff
      0000082EH   SYMBOL    EDATA    BYTE      length

      00FF5AFAH   BLOCK     CODE     ---       LVL=0
      000006B4H   SYMBOL    EDATA    WORD      x
      000006B6H   SYMBOL    EDATA    WORD      y
      000006B8H   SYMBOL    EDATA    FLOAT     dat
      000006BCH   SYMBOL    EDATA    BYTE      num
      000006BDH   SYMBOL    EDATA    BYTE      pointnum
      00FF5B0AH   BLOCK     CODE     NEAR LAB  LVL=1
      000006BEH   SYMBOL    EDATA    BYTE      length
      000006BFH   SYMBOL    EDATA    ---       buff
      000006E1H   SYMBOL    EDATA    CHAR      start
L251 LINKER/LOCATER V4.66.93.0                                                        07/17/2023  20:23:02  PAGE 58


      000006E2H   SYMBOL    EDATA    CHAR      end
      000006E3H   SYMBOL    EDATA    CHAR      point
      ---         BLOCKEND  ---      ---       LVL=1
      00FF5AFAH   LINE      CODE     ---       #561
      00FF5B0AH   LINE      CODE     ---       #562
      00FF5B0AH   LINE      CODE     ---       #567
      00FF5B1AH   LINE      CODE     ---       #568
      00FF5B2AH   LINE      CODE     ---       #570
      00FF5B52H   LINE      CODE     ---       #573
      00FF5B6DH   LINE      CODE     ---       #574
      00FF5B7AH   LINE      CODE     ---       #575
      00FF5B7AH   LINE      CODE     ---       #576
      00FF5B8AH   LINE      CODE     ---       #577
      00FF5BA2H   LINE      CODE     ---       #578
      00FF5BBAH   LINE      CODE     ---       #579
      00FF5BBCH   LINE      CODE     ---       #581
      00FF5BCDH   LINE      CODE     ---       #582
      00FF5BDAH   LINE      CODE     ---       #583
      00FF5BE7H   LINE      CODE     ---       #584
      00FF5BF0H   LINE      CODE     ---       #586
      00FF5C0EH   LINE      CODE     ---       #587
      00FF5C1FH   LINE      CODE     ---       #589
      00FF5C2FH   LINE      CODE     ---       #591
      00FF5C3EH   LINE      CODE     ---       #592
      ---         BLOCKEND  ---      ---       LVL=0

      00FF7A38H   BLOCK     CODE     ---       LVL=0
      00000EBFH   SYMBOL    EDATA    BYTE      dat
      00FF7A38H   LINE      CODE     ---       #607
      00FF7A3CH   LINE      CODE     ---       #610
      00FF7A3FH   LINE      CODE     ---       #611
      00FF7A42H   LINE      CODE     ---       #612
      00FF7A49H   LINE      CODE     ---       #613
      00FF7A4CH   LINE      CODE     ---       #614
      ---         BLOCKEND  ---      ---       LVL=0

      00FF7A4DH   BLOCK     CODE     ---       LVL=0
      00000EC0H   SYMBOL    EDATA    BYTE      dat
      00FF7A4DH   LINE      CODE     ---       #623
      00FF7A51H   LINE      CODE     ---       #625
      00FF7A54H   LINE      CODE     ---       #626
      00FF7A57H   LINE      CODE     ---       #627
      00FF7A5EH   LINE      CODE     ---       #628
      00FF7A61H   LINE      CODE     ---       #629
      ---         BLOCKEND  ---      ---       LVL=0

      00FF775DH   BLOCK     CODE     ---       LVL=0
      00000DF2H   SYMBOL    EDATA    WORD      dat
      00FF7761H   BLOCK     CODE     NEAR LAB  LVL=1
      00000DF4H   SYMBOL    EDATA    ---       dat1
      ---         BLOCKEND  ---      ---       LVL=1
      00FF775DH   LINE      CODE     ---       #638
      00FF7761H   LINE      CODE     ---       #639
      00FF7761H   LINE      CODE     ---       #642
      00FF7767H   LINE      CODE     ---       #643
      00FF776FH   LINE      CODE     ---       #645
      00FF7772H   LINE      CODE     ---       #646
      00FF7775H   LINE      CODE     ---       #647
      00FF777CH   LINE      CODE     ---       #648
      00FF7783H   LINE      CODE     ---       #649
      00FF7786H   LINE      CODE     ---       #651
      ---         BLOCKEND  ---      ---       LVL=0

      00FF6D14H   BLOCK     CODE     ---       LVL=0
      00000C85H   SYMBOL    EDATA    WORD      x_start
L251 LINKER/LOCATER V4.66.93.0                                                        07/17/2023  20:23:02  PAGE 59


      00000C87H   SYMBOL    EDATA    WORD      y_start
      00000C89H   SYMBOL    EDATA    WORD      x_end
      00000C8BH   SYMBOL    EDATA    WORD      y_end
      00FF6D14H   LINE      CODE     ---       #663
      00FF6D24H   LINE      CODE     ---       #668
      00FF6D29H   LINE      CODE     ---       #669
      00FF6D2DH   LINE      CODE     ---       #670
      00FF6D3AH   LINE      CODE     ---       #671
      00FF6D3EH   LINE      CODE     ---       #672
      00FF6D4BH   LINE      CODE     ---       #674
      00FF6D50H   LINE      CODE     ---       #675
      00FF6D54H   LINE      CODE     ---       #676
      00FF6D61H   LINE      CODE     ---       #677
      00FF6D65H   LINE      CODE     ---       #678
      00FF6D72H   LINE      CODE     ---       #695
      00FF6D77H   LINE      CODE     ---       #696
      ---         BLOCKEND  ---      ---       LVL=0
      00000DF6H   SYMBOL    EDATA    INT       color
      00000DF8H   SYMBOL    EDATA    BYTE      i
      00000DF9H   SYMBOL    EDATA    BYTE      j
      00000D38H   SYMBOL    EDATA    WORD      x
      00000D3AH   SYMBOL    EDATA    WORD      y
      00000D3CH   SYMBOL    EDATA    WORD      color
      00000C8DH   SYMBOL    EDATA    WORD      x
      00000C8FH   SYMBOL    EDATA    WORD      y
      00000C91H   SYMBOL    EDATA    CHAR      dat
      00000C92H   SYMBOL    EDATA    BYTE      i
      00000C93H   SYMBOL    EDATA    BYTE      j
      00000C94H   SYMBOL    EDATA    BYTE      temp
      00000B40H   SYMBOL    EDATA    WORD      x
      00000B42H   SYMBOL    EDATA    WORD      y
      00000B44H   SYMBOL    EDATA    ---       dat
      00000B48H   SYMBOL    EDATA    WORD      j
      00000BA2H   SYMBOL    EDATA    WORD      x
      00000BA4H   SYMBOL    EDATA    WORD      y
      00000BA6H   SYMBOL    EDATA    CHAR      dat
      00000BA7H   SYMBOL    EDATA    ---       a
      00000BAAH   SYMBOL    EDATA    BYTE      i
      00000BABH   SYMBOL    EDATA    WORD      x
      00000BADH   SYMBOL    EDATA    WORD      y
      00000BAFH   SYMBOL    EDATA    BYTE      dat
      00000BB0H   SYMBOL    EDATA    ---       a
      00000BB3H   SYMBOL    EDATA    BYTE      i
      00000A4AH   SYMBOL    EDATA    WORD      x
      00000A4CH   SYMBOL    EDATA    WORD      y
      00000A4EH   SYMBOL    EDATA    INT       dat
      00000A50H   SYMBOL    EDATA    ---       a
      00000A55H   SYMBOL    EDATA    BYTE      i
      00000A56H   SYMBOL    EDATA    WORD      x
      00000A58H   SYMBOL    EDATA    WORD      y
      00000A5AH   SYMBOL    EDATA    WORD      dat
      00000A5CH   SYMBOL    EDATA    ---       a
      00000A61H   SYMBOL    EDATA    BYTE      i
      0000082FH   SYMBOL    EDATA    WORD      x
      00000831H   SYMBOL    EDATA    WORD      y
      00000833H   SYMBOL    EDATA    LONG      dat
      00000837H   SYMBOL    EDATA    BYTE      num
      00000838H   SYMBOL    EDATA    ---       buff
      0000085AH   SYMBOL    EDATA    BYTE      length
      000006E4H   SYMBOL    EDATA    WORD      x
      000006E6H   SYMBOL    EDATA    WORD      y
      000006E8H   SYMBOL    EDATA    FLOAT     dat
      000006ECH   SYMBOL    EDATA    BYTE      num
      000006EDH   SYMBOL    EDATA    BYTE      pointnum
      000006EEH   SYMBOL    EDATA    BYTE      length
L251 LINKER/LOCATER V4.66.93.0                                                        07/17/2023  20:23:02  PAGE 60


      000006EFH   SYMBOL    EDATA    ---       buff
      00000711H   SYMBOL    EDATA    CHAR      start
      00000712H   SYMBOL    EDATA    CHAR      end
      00000713H   SYMBOL    EDATA    CHAR      point
      00000A62H   SYMBOL    EDATA    ---       p
      00000A66H   SYMBOL    EDATA    INT       i
      00000A68H   SYMBOL    EDATA    INT       j
      00000A6AH   SYMBOL    EDATA    INT       k
      00000A6CH   SYMBOL    EDATA    BYTE      picH
      00000A6DH   SYMBOL    EDATA    BYTE      picL

      ---         MODULE    ---      ---       SEEKFREE_ABSOLUTE_ENCODER
      00FF7AEBH   PUBLIC    CODE     ---       encoder_delay_us
      000000D0H   SFRSYM    DATA     BYTE      PSW
      0000009DH   SFRSYM    DATA     BYTE      IRCBAND
      00000097H   SFRSYM    DATA     BYTE      AUXR2
      000000EFH   SFRSYM    DATA     BYTE      AUXINTIF
      000000FDH   SFRSYM    DATA     BYTE      S4CON
      000000ACH   SFRSYM    DATA     BYTE      S3CON
      0000009AH   SFRSYM    DATA     BYTE      S2CON
      000000B7H   SFRSYM    DATA     BYTE      IPH
      000000CDH   SFRSYM    DATA     BYTE      SPSTAT
      000000DDH   SFRSYM    DATA     BYTE      T4T3M
      000000C1H   SFRSYM    DATA     BYTE      WDT_CONTR
      000000DFH   SFRSYM    DATA     BYTE      IP3
      000000F4H   SFRSYM    DATA     BYTE      USBCON
      000000B5H   SFRSYM    DATA     BYTE      IP2
      000000FFH   SFRSYM    DATA     BYTE      RSTCFG
      000000F9H   SFRSYM    DATA     BYTE      LINICR
      0000008EH   SFRSYM    DATA     BYTE      AUXR
      000000AFH   SFRSYM    DATA     BYTE      IE2
      000000A0H.7 SFRSYM    DATA     BIT       P27
      000000A0H.6 SFRSYM    DATA     BIT       P26
      000000A0H.5 SFRSYM    DATA     BIT       P25
      000000A0H.4 SFRSYM    DATA     BIT       P24
      00000088H   SFRSYM    DATA     BYTE      TCON
      00000098H   SFRSYM    DATA     BYTE      SCON
      000000A0H.2 SFRSYM    DATA     BIT       P22
      000000F1H   SFRSYM    DATA     BYTE      CANICR
      00000087H   SFRSYM    DATA     BYTE      PCON
      000000BCH   SFRSYM    DATA     BYTE      ADC_CONTR
      000000E7H   SFRSYM    DATA     BYTE      CMPCR2
      000000E6H   SFRSYM    DATA     BYTE      CMPCR1
      000000B8H   SFRSYM    DATA     BYTE      IP
      0000008FH   SFRSYM    DATA     BYTE      INTCLKO
      000000EEH   SFRSYM    DATA     BYTE      IP3H
      000000B6H   SFRSYM    DATA     BYTE      IP2H
      000000A8H   SFRSYM    DATA     BYTE      IE
      000000BBH   SFRSYM    DATA     BYTE      P_SW3
      000000BAH   SFRSYM    DATA     BYTE      P_SW2
      000000A2H   SFRSYM    DATA     BYTE      P_SW1
      000000CEH   SFRSYM    DATA     BYTE      SPCTL
      000000F8H   SFRSYM    DATA     BYTE      P7
      000000E8H   SFRSYM    DATA     BYTE      P6
      000000C8H   SFRSYM    DATA     BYTE      P5
      000000C0H   SFRSYM    DATA     BYTE      P4
      000000B0H   SFRSYM    DATA     BYTE      P3
      000000A0H   SFRSYM    DATA     BYTE      P2
      00000090H   SFRSYM    DATA     BYTE      P1
      00000080H   SFRSYM    DATA     BYTE      P0

      00FF7AEBH   BLOCK     CODE     ---       LVL=0
      00000E79H   SYMBOL    EDATA    WORD      x
      00FF7AEBH   LINE      CODE     ---       #43
      00FF7AEFH   LINE      CODE     ---       #45
L251 LINKER/LOCATER V4.66.93.0                                                        07/17/2023  20:23:02  PAGE 61


      00FF7AF4H   LINE      CODE     ---       #46
      ---         BLOCKEND  ---      ---       LVL=0
      00000E7BH   SYMBOL    EDATA    BYTE      byte
      00000E7CH   SYMBOL    EDATA    BYTE      i
      00000E7DH   SYMBOL    EDATA    BYTE      cmd
      00000E7EH   SYMBOL    EDATA    BYTE      val
      00000D9EH   SYMBOL    EDATA    BYTE      cmd
      00000D9FH   SYMBOL    EDATA    ---       val
      00000E29H   SYMBOL    EDATA    BYTE      cmd
      00000E2AH   SYMBOL    EDATA    BYTE      val
      00000E2BH   SYMBOL    EDATA    BYTE      dat
      00000DA3H   SYMBOL    EDATA    BYTE      cmd
      00000DA4H   SYMBOL    EDATA    ---       val
      00000E7FH   SYMBOL    EDATA    WORD      zero_position
      00000E81H   SYMBOL    EDATA    WORD      angle
      00000EC1H   SYMBOL    EDATA    BYTE      val
      00000EC2H   SYMBOL    EDATA    BYTE      byte
      00000E83H   SYMBOL    EDATA    BYTE      cmd
      00000E84H   SYMBOL    EDATA    BYTE      val
      00000DA8H   SYMBOL    EDATA    BYTE      cmd
      00000DA9H   SYMBOL    EDATA    ---       val
      00000E2CH   SYMBOL    EDATA    BYTE      cmd
      00000E2DH   SYMBOL    EDATA    BYTE      val
      00000E2EH   SYMBOL    EDATA    BYTE      dat
      00000DADH   SYMBOL    EDATA    BYTE      cmd
      00000DAEH   SYMBOL    EDATA    ---       val
      00000E85H   SYMBOL    EDATA    WORD      zero_position
      00000E87H   SYMBOL    EDATA    WORD      angle
      00000EC3H   SYMBOL    EDATA    BYTE      val

      ---         MODULE    ---      ---       SEEKFREE_AT24C02
      000000D0H   SFRSYM    DATA     BYTE      PSW
      0000009DH   SFRSYM    DATA     BYTE      IRCBAND
      00000097H   SFRSYM    DATA     BYTE      AUXR2
      000000EFH   SFRSYM    DATA     BYTE      AUXINTIF
      000000FDH   SFRSYM    DATA     BYTE      S4CON
      000000ACH   SFRSYM    DATA     BYTE      S3CON
      0000009AH   SFRSYM    DATA     BYTE      S2CON
      000000B7H   SFRSYM    DATA     BYTE      IPH
      000000CDH   SFRSYM    DATA     BYTE      SPSTAT
      000000DDH   SFRSYM    DATA     BYTE      T4T3M
      000000C1H   SFRSYM    DATA     BYTE      WDT_CONTR
      000000DFH   SFRSYM    DATA     BYTE      IP3
      000000F4H   SFRSYM    DATA     BYTE      USBCON
      000000B5H   SFRSYM    DATA     BYTE      IP2
      000000FFH   SFRSYM    DATA     BYTE      RSTCFG
      000000F9H   SFRSYM    DATA     BYTE      LINICR
      0000008EH   SFRSYM    DATA     BYTE      AUXR
      000000AFH   SFRSYM    DATA     BYTE      IE2
      00000088H   SFRSYM    DATA     BYTE      TCON
      000000A0H.3 SFRSYM    DATA     BIT       P23
      00000098H   SFRSYM    DATA     BYTE      SCON
      000000A0H.2 SFRSYM    DATA     BIT       P22
      000000F1H   SFRSYM    DATA     BYTE      CANICR
      00000087H   SFRSYM    DATA     BYTE      PCON
      000000BCH   SFRSYM    DATA     BYTE      ADC_CONTR
      000000E7H   SFRSYM    DATA     BYTE      CMPCR2
      000000E6H   SFRSYM    DATA     BYTE      CMPCR1
      000000B8H   SFRSYM    DATA     BYTE      IP
      0000008FH   SFRSYM    DATA     BYTE      INTCLKO
      000000EEH   SFRSYM    DATA     BYTE      IP3H
      000000B6H   SFRSYM    DATA     BYTE      IP2H
      000000A8H   SFRSYM    DATA     BYTE      IE
      000000BBH   SFRSYM    DATA     BYTE      P_SW3
      000000BAH   SFRSYM    DATA     BYTE      P_SW2
L251 LINKER/LOCATER V4.66.93.0                                                        07/17/2023  20:23:02  PAGE 62


      000000A2H   SFRSYM    DATA     BYTE      P_SW1
      000000CEH   SFRSYM    DATA     BYTE      SPCTL
      000000F8H   SFRSYM    DATA     BYTE      P7
      000000E8H   SFRSYM    DATA     BYTE      P6
      000000C8H   SFRSYM    DATA     BYTE      P5
      000000C0H   SFRSYM    DATA     BYTE      P4
      000000B0H   SFRSYM    DATA     BYTE      P3
      000000A0H   SFRSYM    DATA     BYTE      P2
      00000090H   SFRSYM    DATA     BYTE      P1
      00000080H   SFRSYM    DATA     BYTE      P0
      00FF79F6H   SYMBOL    CODE     ---       at24c02_simiic_stop
      00FF77DBH   SYMBOL    CODE     ---       at24c02_simiic_sendack
      00FF78E2H   SYMBOL    CODE     ---       at24c02_simiic_delay

      00FF78E2H   BLOCK     CODE     ---       LVL=0
      00000E89H   SYMBOL    EDATA    WORD      j
      00FF78E2H   LINE      CODE     ---       #51
      00FF78E2H   LINE      CODE     ---       #52
      00FF78E2H   LINE      CODE     ---       #53
      00FF78EAH   LINE      CODE     ---       #54
      00FF7900H   LINE      CODE     ---       #55
      ---         BLOCKEND  ---      ---       LVL=0

      00FF79F6H   BLOCK     CODE     ---       LVL=0
      00FF79F6H   LINE      CODE     ---       #69
      00FF79F6H   LINE      CODE     ---       #71
      00FF79F9H   LINE      CODE     ---       #72
      00FF79FCH   LINE      CODE     ---       #73
      00FF79FFH   LINE      CODE     ---       #74
      00FF7A02H   LINE      CODE     ---       #75
      00FF7A05H   LINE      CODE     ---       #76
      00FF7A08H   LINE      CODE     ---       #77
      00FF7A0BH   LINE      CODE     ---       #78
      ---         BLOCKEND  ---      ---       LVL=0

      00FF77DBH   BLOCK     CODE     ---       LVL=0
      00000EC4H   SYMBOL    EDATA    BYTE      ack_dat
      00FF77DBH   LINE      CODE     ---       #82
      00FF77DFH   LINE      CODE     ---       #84
      00FF77E2H   LINE      CODE     ---       #85
      00FF77E5H   LINE      CODE     ---       #86
      00FF77F3H   LINE      CODE     ---       #87
      00FF77F6H   LINE      CODE     ---       #89
      00FF77F9H   LINE      CODE     ---       #90
      00FF77FCH   LINE      CODE     ---       #91
      00FF77FFH   LINE      CODE     ---       #92
      00FF7802H   LINE      CODE     ---       #93
      ---         BLOCKEND  ---      ---       LVL=0
      00000E8BH   SYMBOL    EDATA    BYTE      c
      00000E8CH   SYMBOL    EDATA    BYTE      i
      00000E2FH   SYMBOL    EDATA    BYTE      ack_x
      00000E30H   SYMBOL    EDATA    BYTE      i
      00000E31H   SYMBOL    EDATA    BYTE      c
      00000E32H   SYMBOL    EDATA    BYTE      dev_add
      00000E33H   SYMBOL    EDATA    BYTE      reg
      00000E34H   SYMBOL    EDATA    BYTE      dat
      00000E35H   SYMBOL    EDATA    BYTE      dev_add
      00000E36H   SYMBOL    EDATA    BYTE      reg
      00000E37H   SYMBOL    EDATA    BYTE      dat
      00000E8DH   SYMBOL    EDATA    BYTE      byte_reg
      00000E8EH   SYMBOL    EDATA    BYTE      dat
      00000EC5H   SYMBOL    EDATA    BYTE      byte_reg
      00000D3EH   SYMBOL    EDATA    BYTE      byte_reg
      00000D3FH   SYMBOL    EDATA    ---       dat_add
      00000D43H   SYMBOL    EDATA    BYTE      num
L251 LINKER/LOCATER V4.66.93.0                                                        07/17/2023  20:23:02  PAGE 63


      00000D44H   SYMBOL    EDATA    BYTE      byte_reg
      00000D45H   SYMBOL    EDATA    ---       dat_add
      00000D49H   SYMBOL    EDATA    BYTE      num

      ---         MODULE    ---      ---       SEEKFREE_BLUETOOTH_CH9141
      00FF0066H   PUBLIC    CODE     ---       bluetooth_ch9141_uart_callback
      000000D0H   SFRSYM    DATA     BYTE      PSW
      0000009DH   SFRSYM    DATA     BYTE      IRCBAND
      00000097H   SFRSYM    DATA     BYTE      AUXR2
      000000EFH   SFRSYM    DATA     BYTE      AUXINTIF
      000000FDH   SFRSYM    DATA     BYTE      S4CON
      000000ACH   SFRSYM    DATA     BYTE      S3CON
      0000009AH   SFRSYM    DATA     BYTE      S2CON
      000000FEH   SFRSYM    DATA     BYTE      S4BUF
      000000B7H   SFRSYM    DATA     BYTE      IPH
      000000CDH   SFRSYM    DATA     BYTE      SPSTAT
      000000DDH   SFRSYM    DATA     BYTE      T4T3M
      000000C1H   SFRSYM    DATA     BYTE      WDT_CONTR
      000000DFH   SFRSYM    DATA     BYTE      IP3
      000000F4H   SFRSYM    DATA     BYTE      USBCON
      000000B5H   SFRSYM    DATA     BYTE      IP2
      000000FFH   SFRSYM    DATA     BYTE      RSTCFG
      000000F9H   SFRSYM    DATA     BYTE      LINICR
      0000008EH   SFRSYM    DATA     BYTE      AUXR
      000000AFH   SFRSYM    DATA     BYTE      IE2
      00000080H.7 SFRSYM    DATA     BIT       P07
      00000088H   SFRSYM    DATA     BYTE      TCON
      00000098H   SFRSYM    DATA     BYTE      SCON
      000000F1H   SFRSYM    DATA     BYTE      CANICR
      00000087H   SFRSYM    DATA     BYTE      PCON
      000000BCH   SFRSYM    DATA     BYTE      ADC_CONTR
      000000E7H   SFRSYM    DATA     BYTE      CMPCR2
      000000E6H   SFRSYM    DATA     BYTE      CMPCR1
      000000B8H   SFRSYM    DATA     BYTE      IP
      0000008FH   SFRSYM    DATA     BYTE      INTCLKO
      000000EEH   SFRSYM    DATA     BYTE      IP3H
      000000B6H   SFRSYM    DATA     BYTE      IP2H
      000000A8H   SFRSYM    DATA     BYTE      IE
      000000BBH   SFRSYM    DATA     BYTE      P_SW3
      000000BAH   SFRSYM    DATA     BYTE      P_SW2
      000000A2H   SFRSYM    DATA     BYTE      P_SW1
      000000CEH   SFRSYM    DATA     BYTE      SPCTL
      000000F8H   SFRSYM    DATA     BYTE      P7
      000000E8H   SFRSYM    DATA     BYTE      P6
      000000C8H   SFRSYM    DATA     BYTE      P5
      000000C0H   SFRSYM    DATA     BYTE      P4
      000000B0H   SFRSYM    DATA     BYTE      P3
      000000A0H   SFRSYM    DATA     BYTE      P2
      00000090H   SFRSYM    DATA     BYTE      P1
      00000080H   SFRSYM    DATA     BYTE      P0
      000005B5H   SYMBOL    EDATA    ---       bluetooth_ch9141_buffer
      000005F5H   SYMBOL    EDATA    BYTE      bluetooth_ch9141_data
      000005F6H   SYMBOL    EDATA    ---       bluetooth_ch9141_fifo

      00FF0066H   BLOCK     CODE     ---       LVL=0
      00FF0066H   LINE      CODE     ---       #67
      00FF0066H   LINE      CODE     ---       #70
      00FF006CH   LINE      CODE     ---       #71
      00FF007FH   LINE      CODE     ---       #72
      ---         BLOCKEND  ---      ---       LVL=0
      00000B4AH   SYMBOL    EDATA    ---       buff
      00000B4EH   SYMBOL    EDATA    DWORD     len
      00000B52H   SYMBOL    EDATA    WORD      time_count
      00000A6EH   SYMBOL    EDATA    ---       buff
      00000A72H   SYMBOL    EDATA    DWORD     len
L251 LINKER/LOCATER V4.66.93.0                                                        07/17/2023  20:23:02  PAGE 64


      00000A76H   SYMBOL    EDATA    DWORD     data_len

      ---         MODULE    ---      ---       SEEKFREE_DL1A
      00000E38H   PUBLIC    EDATA    WORD      dl1a_distance_mm
      00000E3AH   PUBLIC    EDATA    BYTE      dl1a_finsh_flag
      000000D0H   SFRSYM    DATA     BYTE      PSW
      0000009DH   SFRSYM    DATA     BYTE      IRCBAND
      00000097H   SFRSYM    DATA     BYTE      AUXR2
      000000EFH   SFRSYM    DATA     BYTE      AUXINTIF
      000000FDH   SFRSYM    DATA     BYTE      S4CON
      000000ACH   SFRSYM    DATA     BYTE      S3CON
      0000009AH   SFRSYM    DATA     BYTE      S2CON
      000000B7H   SFRSYM    DATA     BYTE      IPH
      000000CDH   SFRSYM    DATA     BYTE      SPSTAT
      000000DDH   SFRSYM    DATA     BYTE      T4T3M
      000000C1H   SFRSYM    DATA     BYTE      WDT_CONTR
      000000DFH   SFRSYM    DATA     BYTE      IP3
      000000F4H   SFRSYM    DATA     BYTE      USBCON
      000000B5H   SFRSYM    DATA     BYTE      IP2
      000000FFH   SFRSYM    DATA     BYTE      RSTCFG
      000000F9H   SFRSYM    DATA     BYTE      LINICR
      0000008EH   SFRSYM    DATA     BYTE      AUXR
      000000AFH   SFRSYM    DATA     BYTE      IE2
      000000C0H.7 SFRSYM    DATA     BIT       P47
      000000E8H.5 SFRSYM    DATA     BIT       P65
      000000E8H.3 SFRSYM    DATA     BIT       P63
      00000088H   SFRSYM    DATA     BYTE      TCON
      00000098H   SFRSYM    DATA     BYTE      SCON
      000000F1H   SFRSYM    DATA     BYTE      CANICR
      00000087H   SFRSYM    DATA     BYTE      PCON
      000000BCH   SFRSYM    DATA     BYTE      ADC_CONTR
      000000E7H   SFRSYM    DATA     BYTE      CMPCR2
      000000E6H   SFRSYM    DATA     BYTE      CMPCR1
      000000B8H   SFRSYM    DATA     BYTE      IP
      0000008FH   SFRSYM    DATA     BYTE      INTCLKO
      000000EEH   SFRSYM    DATA     BYTE      IP3H
      000000B6H   SFRSYM    DATA     BYTE      IP2H
      000000A8H   SFRSYM    DATA     BYTE      IE
      000000BBH   SFRSYM    DATA     BYTE      P_SW3
      000000BAH   SFRSYM    DATA     BYTE      P_SW2
      000000A2H   SFRSYM    DATA     BYTE      P_SW1
      000000CEH   SFRSYM    DATA     BYTE      SPCTL
      000000F8H   SFRSYM    DATA     BYTE      P7
      000000E8H   SFRSYM    DATA     BYTE      P6
      000000C8H   SFRSYM    DATA     BYTE      P5
      000000C0H   SFRSYM    DATA     BYTE      P4
      000000B0H   SFRSYM    DATA     BYTE      P3
      000000A0H   SFRSYM    DATA     BYTE      P2
      00000090H   SFRSYM    DATA     BYTE      P1
      00000080H   SFRSYM    DATA     BYTE      P0
      00FF7803H   SYMBOL    CODE     ---       dl1a_simiic_sendack
      00FF7198H   SYMBOL    CODE     ---       dl1a_timeout_microseconds_to_mclks
      00FF7145H   SYMBOL    CODE     ---       dl1a_timeout_mclks_to_microseconds
      00FF6B79H   SYMBOL    CODE     ---       dl1a_read_ch
      00FF7787H   SYMBOL    CODE     ---       dl1a_decode_timeout
      00FF744FH   SYMBOL    CODE     ---       dl1a_send_ch
      00FF67D5H   SYMBOL    CODE     ---       dl1a_encode_timeout
      00FF66C5H   SYMBOL    CODE     ---       dl1a_get_sequence_step_enables
      00FF78C1H   SYMBOL    CODE     ---       dl1a_sccb_waitack
      00FF7901H   SYMBOL    CODE     ---       dl1a_simiic_delay
      00FF5848H   SYMBOL    CODE     ---       dl1a_get_sequence_step_timeouts
      00FF7AA1H   SYMBOL    CODE     ---       dl1a_simiic_start
      00FF6BE3H   SYMBOL    CODE     ---       dl1a_simiic_read_regs
      00FF7566H   SYMBOL    CODE     ---       dl1a_simiic_write_dats
      00FF7A0CH   SYMBOL    CODE     ---       dl1a_simiic_stop
L251 LINKER/LOCATER V4.66.93.0                                                        07/17/2023  20:23:02  PAGE 65


      00FF68D3H   SYMBOL    CODE     ---       dl1a_get_vcsel_pulse_period

      00FF7901H   BLOCK     CODE     ---       LVL=0
      00000E8FH   SYMBOL    EDATA    WORD      j
      00FF7901H   LINE      CODE     ---       #59
      00FF7901H   LINE      CODE     ---       #60
      00FF7901H   LINE      CODE     ---       #61
      00FF7909H   LINE      CODE     ---       #62
      00FF791FH   LINE      CODE     ---       #63
      ---         BLOCKEND  ---      ---       LVL=0

      00FF7AA1H   BLOCK     CODE     ---       LVL=0
      00FF7AA1H   LINE      CODE     ---       #66
      00FF7AA1H   LINE      CODE     ---       #68
      00FF7AA4H   LINE      CODE     ---       #69
      00FF7AA7H   LINE      CODE     ---       #70
      00FF7AAAH   LINE      CODE     ---       #71
      00FF7AADH   LINE      CODE     ---       #72
      00FF7AB0H   LINE      CODE     ---       #73
      00FF7AB3H   LINE      CODE     ---       #74
      ---         BLOCKEND  ---      ---       LVL=0

      00FF7A0CH   BLOCK     CODE     ---       LVL=0
      00FF7A0CH   LINE      CODE     ---       #77
      00FF7A0CH   LINE      CODE     ---       #79
      00FF7A0FH   LINE      CODE     ---       #80
      00FF7A12H   LINE      CODE     ---       #81
      00FF7A15H   LINE      CODE     ---       #82
      00FF7A18H   LINE      CODE     ---       #83
      00FF7A1BH   LINE      CODE     ---       #84
      00FF7A1EH   LINE      CODE     ---       #85
      00FF7A21H   LINE      CODE     ---       #86
      ---         BLOCKEND  ---      ---       LVL=0

      00FF7803H   BLOCK     CODE     ---       LVL=0
      00000EC6H   SYMBOL    EDATA    BYTE      ack_dat
      00FF7803H   LINE      CODE     ---       #90
      00FF7807H   LINE      CODE     ---       #92
      00FF780AH   LINE      CODE     ---       #93
      00FF780DH   LINE      CODE     ---       #94
      00FF781BH   LINE      CODE     ---       #95
      00FF781EH   LINE      CODE     ---       #97
      00FF7821H   LINE      CODE     ---       #98
      00FF7824H   LINE      CODE     ---       #99
      00FF7827H   LINE      CODE     ---       #100
      00FF782AH   LINE      CODE     ---       #101
      ---         BLOCKEND  ---      ---       LVL=0

      00FF78C1H   BLOCK     CODE     ---       LVL=0
      00FF78C1H   LINE      CODE     ---       #104
      00FF78C1H   LINE      CODE     ---       #106
      00FF78C4H   LINE      CODE     ---       #108
      00FF78C7H   LINE      CODE     ---       #110
      00FF78CAH   LINE      CODE     ---       #111
      00FF78CDH   LINE      CODE     ---       #113
      00FF78D0H   LINE      CODE     ---       #116
      00FF78D3H   LINE      CODE     ---       #117
      00FF78D7H   LINE      CODE     ---       #118
      00FF78D7H   LINE      CODE     ---       #120
      00FF78DAH   LINE      CODE     ---       #121
      00FF78DDH   LINE      CODE     ---       #122
      00FF78E1H   LINE      CODE     ---       #123
      ---         BLOCKEND  ---      ---       LVL=0

      00FF744FH   BLOCK     CODE     ---       LVL=0
L251 LINKER/LOCATER V4.66.93.0                                                        07/17/2023  20:23:02  PAGE 66


      00000E91H   SYMBOL    EDATA    BYTE      c
      00FF7453H   BLOCK     CODE     NEAR LAB  LVL=1
      00000E92H   SYMBOL    EDATA    BYTE      i
      ---         BLOCKEND  ---      ---       LVL=1
      00FF744FH   LINE      CODE     ---       #129
      00FF7453H   LINE      CODE     ---       #130
      00FF7453H   LINE      CODE     ---       #131
      00FF7459H   LINE      CODE     ---       #132
      00FF745BH   LINE      CODE     ---       #134
      00FF7467H   LINE      CODE     ---       #135
      00FF746AH   LINE      CODE     ---       #136
      00FF7474H   LINE      CODE     ---       #137
      00FF7477H   LINE      CODE     ---       #138
      00FF747AH   LINE      CODE     ---       #139
      00FF747DH   LINE      CODE     ---       #140
      00FF7480H   LINE      CODE     ---       #141
      00FF7494H   LINE      CODE     ---       #142
      00FF7497H   LINE      CODE     ---       #143
      ---         BLOCKEND  ---      ---       LVL=0

      00FF6B79H   BLOCK     CODE     ---       LVL=0
      00000E3BH   SYMBOL    EDATA    BYTE      ack_x
      00FF6B7DH   BLOCK     CODE     NEAR LAB  LVL=1
      00000E3CH   SYMBOL    EDATA    BYTE      i
      00000E3DH   SYMBOL    EDATA    BYTE      c
      ---         BLOCKEND  ---      ---       LVL=1
      00FF6B79H   LINE      CODE     ---       #149
      00FF6B7DH   LINE      CODE     ---       #150
      00FF6B7DH   LINE      CODE     ---       #153
      00FF6B82H   LINE      CODE     ---       #154
      00FF6B85H   LINE      CODE     ---       #155
      00FF6B88H   LINE      CODE     ---       #156
      00FF6B8BH   LINE      CODE     ---       #158
      00FF6B92H   LINE      CODE     ---       #160
      00FF6B95H   LINE      CODE     ---       #161
      00FF6B98H   LINE      CODE     ---       #162
      00FF6B9BH   LINE      CODE     ---       #163
      00FF6B9EH   LINE      CODE     ---       #164
      00FF6BA1H   LINE      CODE     ---       #165
      00FF6BABH   LINE      CODE     ---       #166
      00FF6BAEH   LINE      CODE     ---       #168
      00FF6BBAH   LINE      CODE     ---       #169
      00FF6BD1H   LINE      CODE     ---       #172
      00FF6BD4H   LINE      CODE     ---       #173
      00FF6BD7H   LINE      CODE     ---       #174
      00FF6BDEH   LINE      CODE     ---       #176
      00FF6BE2H   LINE      CODE     ---       #177
      ---         BLOCKEND  ---      ---       LVL=0

      00FF7566H   BLOCK     CODE     ---       LVL=0
      00000BB4H   SYMBOL    EDATA    BYTE      dev_add
      00000BB5H   SYMBOL    EDATA    ---       dat
      00000BB9H   SYMBOL    EDATA    DWORD     len
      00FF7566H   LINE      CODE     ---       #189
      00FF7572H   LINE      CODE     ---       #191
      00FF7575H   LINE      CODE     ---       #192
      00FF757EH   LINE      CODE     ---       #193
      00FF7580H   LINE      CODE     ---       #195
      00FF7590H   LINE      CODE     ---       #196
      00FF75A4H   LINE      CODE     ---       #199
      00FF75A7H   LINE      CODE     ---       #200
      ---         BLOCKEND  ---      ---       LVL=0
      00000E3EH   SYMBOL    EDATA    BYTE      dev_add
      00000E3FH   SYMBOL    EDATA    BYTE      reg
      00000E40H   SYMBOL    EDATA    BYTE      dat
L251 LINKER/LOCATER V4.66.93.0                                                        07/17/2023  20:23:02  PAGE 67


      00000E41H   SYMBOL    EDATA    BYTE      dev_add
      00000E42H   SYMBOL    EDATA    BYTE      reg
      00000E43H   SYMBOL    EDATA    BYTE      dat

      00FF6BE3H   BLOCK     CODE     ---       LVL=0
      00000B54H   SYMBOL    EDATA    BYTE      dev_add
      00000B55H   SYMBOL    EDATA    BYTE      reg
      00000B56H   SYMBOL    EDATA    ---       dat_add
      00000B5AH   SYMBOL    EDATA    DWORD     num
      00FF6BE3H   LINE      CODE     ---       #257
      00FF6BEFH   LINE      CODE     ---       #259
      00FF6BF2H   LINE      CODE     ---       #260
      00FF6BFBH   LINE      CODE     ---       #261
      00FF6C02H   LINE      CODE     ---       #264
      00FF6C05H   LINE      CODE     ---       #265
      00FF6C12H   LINE      CODE     ---       #266
      00FF6C14H   LINE      CODE     ---       #268
      00FF6C20H   LINE      CODE     ---       #269
      00FF6C2AH   LINE      CODE     ---       #270
      00FF6C3CH   LINE      CODE     ---       #271
      00FF6C47H   LINE      CODE     ---       #272
      00FF6C4AH   LINE      CODE     ---       #273
      ---         BLOCKEND  ---      ---       LVL=0
      00000B5EH   SYMBOL    EDATA    BYTE      dev_add
      00000B5FH   SYMBOL    EDATA    BYTE      reg
      00000B60H   SYMBOL    EDATA    ---       dat_add
      00000B64H   SYMBOL    EDATA    DWORD     num
      00000A7AH   SYMBOL    EDATA    ---       index
      00000A7EH   SYMBOL    EDATA    ---       type_is_aperture
      00000A82H   SYMBOL    EDATA    BYTE      tmp
      00000A83H   SYMBOL    EDATA    BYTE      return_state
      00000A84H   SYMBOL    EDATA    WORD      loop_count

      00FF7145H   BLOCK     CODE     ---       LVL=0
      00000CEBH   SYMBOL    EDATA    WORD      timeout_period_mclks
      00000CEDH   SYMBOL    EDATA    BYTE      vcsel_period_pclks
      00FF714DH   BLOCK     CODE     NEAR LAB  LVL=1
      00000CEEH   SYMBOL    EDATA    DWORD     macro_period_ns
      ---         BLOCKEND  ---      ---       LVL=1
      00FF7145H   LINE      CODE     ---       #401
      00FF714DH   LINE      CODE     ---       #402
      00FF714DH   LINE      CODE     ---       #403
      00FF7174H   LINE      CODE     ---       #405
      00FF7197H   LINE      CODE     ---       #406
      ---         BLOCKEND  ---      ---       LVL=0

      00FF7198H   BLOCK     CODE     ---       LVL=0
      00000BBDH   SYMBOL    EDATA    DWORD     timeout_period_us
      00000BC1H   SYMBOL    EDATA    BYTE      vcsel_period_pclks
      00FF71A0H   BLOCK     CODE     NEAR LAB  LVL=1
      00000BC2H   SYMBOL    EDATA    DWORD     macro_period_ns
      ---         BLOCKEND  ---      ---       LVL=1
      00FF7198H   LINE      CODE     ---       #416
      00FF71A0H   LINE      CODE     ---       #417
      00FF71A0H   LINE      CODE     ---       #418
      00FF71C7H   LINE      CODE     ---       #420
      00FF71E8H   LINE      CODE     ---       #421
      ---         BLOCKEND  ---      ---       LVL=0

      00FF7787H   BLOCK     CODE     ---       LVL=0
      00000E93H   SYMBOL    EDATA    WORD      reg_val
      00FF7787H   LINE      CODE     ---       #430
      00FF778BH   LINE      CODE     ---       #433
      00FF77B0H   LINE      CODE     ---       #435
      ---         BLOCKEND  ---      ---       LVL=0
L251 LINKER/LOCATER V4.66.93.0                                                        07/17/2023  20:23:02  PAGE 68



      00FF67D5H   BLOCK     CODE     ---       LVL=0
      00000B68H   SYMBOL    EDATA    WORD      timeout_mclks
      00FF67D9H   BLOCK     CODE     NEAR LAB  LVL=1
      00000B6AH   SYMBOL    EDATA    DWORD     ls_byte
      00000B6EH   SYMBOL    EDATA    WORD      ms_byte
      00000B70H   SYMBOL    EDATA    WORD      return_data
      ---         BLOCKEND  ---      ---       LVL=1
      00FF67D5H   LINE      CODE     ---       #444
      00FF67D9H   LINE      CODE     ---       #445
      00FF67D9H   LINE      CODE     ---       #446
      00FF67DFH   LINE      CODE     ---       #447
      00FF67E5H   LINE      CODE     ---       #448
      00FF67EBH   LINE      CODE     ---       #450
      00FF67F5H   LINE      CODE     ---       #453
      00FF6805H   LINE      CODE     ---       #454
      00FF6807H   LINE      CODE     ---       #456
      00FF6818H   LINE      CODE     ---       #457
      00FF6826H   LINE      CODE     ---       #458
      00FF6837H   LINE      CODE     ---       #459
      00FF684FH   LINE      CODE     ---       #460
      00FF684FH   LINE      CODE     ---       #461
      00FF6853H   LINE      CODE     ---       #462
      ---         BLOCKEND  ---      ---       LVL=0

      00FF66C5H   BLOCK     CODE     ---       LVL=0
      00000DB2H   SYMBOL    EDATA    ---       enables
      00FF66C9H   BLOCK     CODE     NEAR LAB  LVL=1
      00000DB6H   SYMBOL    EDATA    BYTE      sequence_config
      ---         BLOCKEND  ---      ---       LVL=1
      00FF66C5H   LINE      CODE     ---       #471
      00FF66C9H   LINE      CODE     ---       #472
      00FF66C9H   LINE      CODE     ---       #473
      00FF66CEH   LINE      CODE     ---       #474
      00FF66E2H   LINE      CODE     ---       #476
      00FF66F6H   LINE      CODE     ---       #477
      00FF670DH   LINE      CODE     ---       #478
      00FF6723H   LINE      CODE     ---       #479
      00FF673CH   LINE      CODE     ---       #480
      00FF6752H   LINE      CODE     ---       #481
      ---         BLOCKEND  ---      ---       LVL=0

      00FF68D3H   BLOCK     CODE     ---       LVL=0
      00000E44H   SYMBOL    EDATA    INT       type
      00FF68D7H   BLOCK     CODE     NEAR LAB  LVL=1
      00000E46H   SYMBOL    EDATA    BYTE      data_buffer
      ---         BLOCKEND  ---      ---       LVL=1
      00FF68D3H   LINE      CODE     ---       #490
      00FF68D7H   LINE      CODE     ---       #491
      00FF68D7H   LINE      CODE     ---       #492
      00FF68DCH   LINE      CODE     ---       #493
      00FF68E6H   LINE      CODE     ---       #495
      00FF68FAH   LINE      CODE     ---       #496
      00FF690CH   LINE      CODE     ---       #497
      00FF690EH   LINE      CODE     ---       #498
      00FF691AH   LINE      CODE     ---       #500
      00FF692EH   LINE      CODE     ---       #501
      00FF6940H   LINE      CODE     ---       #502
      00FF6942H   LINE      CODE     ---       #505
      00FF6948H   LINE      CODE     ---       #506
      00FF6948H   LINE      CODE     ---       #507
      00FF694CH   LINE      CODE     ---       #508
      ---         BLOCKEND  ---      ---       LVL=0

      00FF5848H   BLOCK     CODE     ---       LVL=0
L251 LINKER/LOCATER V4.66.93.0                                                        07/17/2023  20:23:02  PAGE 69


      00000A86H   SYMBOL    EDATA    ---       enables
      00000A8AH   SYMBOL    EDATA    ---       timeouts
      00FF5850H   BLOCK     CODE     NEAR LAB  LVL=1
      00000A8EH   SYMBOL    EDATA    ---       reg_buffer
      00000A90H   SYMBOL    EDATA    WORD      reg16_buffer
      ---         BLOCKEND  ---      ---       LVL=1
      00FF5848H   LINE      CODE     ---       #518
      00FF5850H   LINE      CODE     ---       #519
      00FF5850H   LINE      CODE     ---       #521
      00FF5856H   LINE      CODE     ---       #523
      00FF5864H   LINE      CODE     ---       #525
      00FF5878H   LINE      CODE     ---       #526
      00FF588DH   LINE      CODE     ---       #527
      00FF58B1H   LINE      CODE     ---       #529
      00FF58C5H   LINE      CODE     ---       #530
      00FF58DBH   LINE      CODE     ---       #531
      00FF58EBH   LINE      CODE     ---       #532
      00FF5911H   LINE      CODE     ---       #534
      00FF5923H   LINE      CODE     ---       #536
      00FF5937H   LINE      CODE     ---       #537
      00FF594DH   LINE      CODE     ---       #538
      00FF595DH   LINE      CODE     ---       #540
      00FF596DH   LINE      CODE     ---       #542
      00FF5988H   LINE      CODE     ---       #543
      00FF5988H   LINE      CODE     ---       #545
      00FF59B0H   LINE      CODE     ---       #546
      ---         BLOCKEND  ---      ---       LVL=0
      00000DB7H   SYMBOL    EDATA    BYTE      vhv_init_byte
      00000DB8H   SYMBOL    EDATA    BYTE      return_state
      00000DB9H   SYMBOL    EDATA    BYTE      data_buffer
      00000DBAH   SYMBOL    EDATA    WORD      loop_count
      000007D4H   SYMBOL    EDATA    DWORD     budget_us
      000007D8H   SYMBOL    EDATA    BYTE      return_state
      000007D9H   SYMBOL    EDATA    ---       data_buffer
      000007DCH   SYMBOL    EDATA    WORD      dat
      000007DEH   SYMBOL    EDATA    DWORD     used_budget_us
      000007E2H   SYMBOL    EDATA    DWORD     final_range_timeout_us
      000007E6H   SYMBOL    EDATA    WORD      final_range_timeout_mclks
      000007E8H   SYMBOL    EDATA    ---       enables
      000007EDH   SYMBOL    EDATA    ---       timeouts
      0000090BH   SYMBOL    EDATA    ---       enables
      00000910H   SYMBOL    EDATA    ---       timeouts
      00000926H   SYMBOL    EDATA    DWORD     budget_us
      00000BC6H   SYMBOL    EDATA    FLOAT     limit_mcps
      00000BCAH   SYMBOL    EDATA    ---       data_buffer
      00000BCDH   SYMBOL    EDATA    WORD      limit_mcps_16bit
      00000E47H   SYMBOL    EDATA    ---       reg_databuffer
      00000008H   SYMBOL    EDATA    DWORD     measurement_timing_budget_us
      0000000CH   SYMBOL    EDATA    BYTE      stop_variable
      0000000DH   SYMBOL    EDATA    BYTE      return_state
      0000000EH   SYMBOL    EDATA    BYTE      reg_data_buffer
      0000000FH   SYMBOL    EDATA    ---       ref_spad_map
      00000015H   SYMBOL    EDATA    ---       data_buffer
      0000001CH   SYMBOL    EDATA    BYTE      i

      ---         MODULE    ---      ---       SEEKFREE_FONT
      00FF20A6H   PUBLIC    CODE     ---       oled_8x16
      00FF2696H   PUBLIC    CODE     ---       tft_ascii
      00FF2C86H   PUBLIC    CODE     ---       oled_6x8
      000000D0H   SFRSYM    DATA     BYTE      PSW
      0000009DH   SFRSYM    DATA     BYTE      IRCBAND
      00000097H   SFRSYM    DATA     BYTE      AUXR2
      000000EFH   SFRSYM    DATA     BYTE      AUXINTIF
      000000FDH   SFRSYM    DATA     BYTE      S4CON
      000000ACH   SFRSYM    DATA     BYTE      S3CON
L251 LINKER/LOCATER V4.66.93.0                                                        07/17/2023  20:23:02  PAGE 70


      0000009AH   SFRSYM    DATA     BYTE      S2CON
      000000B7H   SFRSYM    DATA     BYTE      IPH
      000000CDH   SFRSYM    DATA     BYTE      SPSTAT
      000000DDH   SFRSYM    DATA     BYTE      T4T3M
      000000C1H   SFRSYM    DATA     BYTE      WDT_CONTR
      000000DFH   SFRSYM    DATA     BYTE      IP3
      000000F4H   SFRSYM    DATA     BYTE      USBCON
      000000B5H   SFRSYM    DATA     BYTE      IP2
      000000FFH   SFRSYM    DATA     BYTE      RSTCFG
      000000F9H   SFRSYM    DATA     BYTE      LINICR
      0000008EH   SFRSYM    DATA     BYTE      AUXR
      000000AFH   SFRSYM    DATA     BYTE      IE2
      00000088H   SFRSYM    DATA     BYTE      TCON
      00000098H   SFRSYM    DATA     BYTE      SCON
      000000F1H   SFRSYM    DATA     BYTE      CANICR
      00000087H   SFRSYM    DATA     BYTE      PCON
      000000BCH   SFRSYM    DATA     BYTE      ADC_CONTR
      000000E7H   SFRSYM    DATA     BYTE      CMPCR2
      000000E6H   SFRSYM    DATA     BYTE      CMPCR1
      000000B8H   SFRSYM    DATA     BYTE      IP
      0000008FH   SFRSYM    DATA     BYTE      INTCLKO
      000000EEH   SFRSYM    DATA     BYTE      IP3H
      000000B6H   SFRSYM    DATA     BYTE      IP2H
      000000A8H   SFRSYM    DATA     BYTE      IE
      000000BBH   SFRSYM    DATA     BYTE      P_SW3
      000000BAH   SFRSYM    DATA     BYTE      P_SW2
      000000A2H   SFRSYM    DATA     BYTE      P_SW1
      000000CEH   SFRSYM    DATA     BYTE      SPCTL
      000000F8H   SFRSYM    DATA     BYTE      P7
      000000E8H   SFRSYM    DATA     BYTE      P6
      000000C8H   SFRSYM    DATA     BYTE      P5
      000000C0H   SFRSYM    DATA     BYTE      P4
      000000B0H   SFRSYM    DATA     BYTE      P3
      000000A0H   SFRSYM    DATA     BYTE      P2
      00000090H   SFRSYM    DATA     BYTE      P1
      00000080H   SFRSYM    DATA     BYTE      P0

      ---         MODULE    ---      ---       SEEKFREE_ICM20602
      00000A92H   PUBLIC    EDATA    INT       icm20602_acc_x
      00000A94H   PUBLIC    EDATA    INT       icm20602_acc_y
      00000A96H   PUBLIC    EDATA    INT       icm20602_acc_z
      00000A98H   PUBLIC    EDATA    INT       icm20602_gyro_x
      00000A9AH   PUBLIC    EDATA    INT       icm20602_gyro_y
      00000A9CH   PUBLIC    EDATA    INT       icm20602_gyro_z
      000000D0H   SFRSYM    DATA     BYTE      PSW
      0000009DH   SFRSYM    DATA     BYTE      IRCBAND
      00000097H   SFRSYM    DATA     BYTE      AUXR2
      000000EFH   SFRSYM    DATA     BYTE      AUXINTIF
      000000FDH   SFRSYM    DATA     BYTE      S4CON
      000000ACH   SFRSYM    DATA     BYTE      S3CON
      0000009AH   SFRSYM    DATA     BYTE      S2CON
      000000B7H   SFRSYM    DATA     BYTE      IPH
      000000CDH   SFRSYM    DATA     BYTE      SPSTAT
      000000DDH   SFRSYM    DATA     BYTE      T4T3M
      000000C1H   SFRSYM    DATA     BYTE      WDT_CONTR
      000000DFH   SFRSYM    DATA     BYTE      IP3
      000000F4H   SFRSYM    DATA     BYTE      USBCON
      000000B5H   SFRSYM    DATA     BYTE      IP2
      000000FFH   SFRSYM    DATA     BYTE      RSTCFG
      000000F9H   SFRSYM    DATA     BYTE      LINICR
      0000008EH   SFRSYM    DATA     BYTE      AUXR
      000000AFH   SFRSYM    DATA     BYTE      IE2
      000000C0H.3 SFRSYM    DATA     BIT       P43
      000000C0H.2 SFRSYM    DATA     BIT       P42
      00000088H   SFRSYM    DATA     BYTE      TCON
L251 LINKER/LOCATER V4.66.93.0                                                        07/17/2023  20:23:02  PAGE 71


      000000C0H.1 SFRSYM    DATA     BIT       P41
      00000098H   SFRSYM    DATA     BYTE      SCON
      000000C0H.0 SFRSYM    DATA     BIT       P40
      000000F1H   SFRSYM    DATA     BYTE      CANICR
      00000087H   SFRSYM    DATA     BYTE      PCON
      000000BCH   SFRSYM    DATA     BYTE      ADC_CONTR
      000000E7H   SFRSYM    DATA     BYTE      CMPCR2
      000000E6H   SFRSYM    DATA     BYTE      CMPCR1
      000000B8H   SFRSYM    DATA     BYTE      IP
      0000008FH   SFRSYM    DATA     BYTE      INTCLKO
      000000EEH   SFRSYM    DATA     BYTE      IP3H
      000000B6H   SFRSYM    DATA     BYTE      IP2H
      000000A8H   SFRSYM    DATA     BYTE      IE
      000000BBH   SFRSYM    DATA     BYTE      P_SW3
      000000BAH   SFRSYM    DATA     BYTE      P_SW2
      000000A2H   SFRSYM    DATA     BYTE      P_SW1
      000000CEH   SFRSYM    DATA     BYTE      SPCTL
      000000F8H   SFRSYM    DATA     BYTE      P7
      000000E8H   SFRSYM    DATA     BYTE      P6
      000000C8H   SFRSYM    DATA     BYTE      P5
      000000C0H   SFRSYM    DATA     BYTE      P4
      000000B0H   SFRSYM    DATA     BYTE      P3
      000000A0H   SFRSYM    DATA     BYTE      P2
      00000090H   SFRSYM    DATA     BYTE      P1
      00000080H   SFRSYM    DATA     BYTE      P0
      00FF7920H   SYMBOL    CODE     ---       icm20602_read_register
      00FF6E91H   SYMBOL    CODE     ---       icm20602_simspi_wr_byte
      00FF71E9H   SYMBOL    CODE     ---       icm20602_simspi_r_reg_bytes
      00FF7853H   SYMBOL    CODE     ---       icm20602_simspi_r_reg_byte

      00FF6E91H   BLOCK     CODE     ---       LVL=0
      00000E95H   SYMBOL    EDATA    BYTE      byte
      00FF6E95H   BLOCK     CODE     NEAR LAB  LVL=1
      00000E96H   SYMBOL    EDATA    BYTE      i
      ---         BLOCKEND  ---      ---       LVL=1
      00FF6E91H   LINE      CODE     ---       #278
      00FF6E95H   LINE      CODE     ---       #279
      00FF6E95H   LINE      CODE     ---       #282
      00FF6E9CH   LINE      CODE     ---       #284
      00FF6EAAH   LINE      CODE     ---       #285
      00FF6EB4H   LINE      CODE     ---       #286
      00FF6EB7H   LINE      CODE     ---       #287
      00FF6EBAH   LINE      CODE     ---       #289
      00FF6EBDH   LINE      CODE     ---       #290
      00FF6EC0H   LINE      CODE     ---       #291
      00FF6ECEH   LINE      CODE     ---       #292
      00FF6EE5H   LINE      CODE     ---       #293
      00FF6EE9H   LINE      CODE     ---       #294
      ---         BLOCKEND  ---      ---       LVL=0
      00000E97H   SYMBOL    EDATA    BYTE      cmd
      00000E98H   SYMBOL    EDATA    BYTE      val

      00FF7853H   BLOCK     CODE     ---       LVL=0
      00000DBCH   SYMBOL    EDATA    BYTE      cmd
      00000DBDH   SYMBOL    EDATA    ---       val
      00FF7853H   LINE      CODE     ---       #340
      00FF785BH   LINE      CODE     ---       #343
      00FF7867H   LINE      CODE     ---       #344
      00FF786EH   LINE      CODE     ---       #345
      00FF7879H   LINE      CODE     ---       #347
      ---         BLOCKEND  ---      ---       LVL=0

      00FF71E9H   BLOCK     CODE     ---       LVL=0
      00000A0CH   SYMBOL    EDATA    BYTE      cmd
      00000A0DH   SYMBOL    EDATA    ---       val
L251 LINKER/LOCATER V4.66.93.0                                                        07/17/2023  20:23:02  PAGE 72


      00000A11H   SYMBOL    EDATA    DWORD     num
      00FF71F5H   BLOCK     CODE     NEAR LAB  LVL=1
      00000A15H   SYMBOL    EDATA    DWORD     i
      ---         BLOCKEND  ---      ---       LVL=1
      00FF71E9H   LINE      CODE     ---       #357
      00FF71F5H   LINE      CODE     ---       #358
      00FF71F5H   LINE      CODE     ---       #359
      00FF71FBH   LINE      CODE     ---       #360
      00FF7207H   LINE      CODE     ---       #361
      00FF720EH   LINE      CODE     ---       #363
      00FF7210H   LINE      CODE     ---       #365
      00FF7225H   LINE      CODE     ---       #366
      00FF7239H   LINE      CODE     ---       #367
      ---         BLOCKEND  ---      ---       LVL=0
      00000E99H   SYMBOL    EDATA    BYTE      reg
      00000E9AH   SYMBOL    EDATA    BYTE      dat

      00FF7920H   BLOCK     CODE     ---       LVL=0
      00000E9BH   SYMBOL    EDATA    BYTE      reg
      00FF7924H   BLOCK     CODE     NEAR LAB  LVL=1
      00000E9CH   SYMBOL    EDATA    BYTE      dat
      ---         BLOCKEND  ---      ---       LVL=1
      00FF7920H   LINE      CODE     ---       #407
      00FF7924H   LINE      CODE     ---       #408
      00FF7924H   LINE      CODE     ---       #410
      00FF7927H   LINE      CODE     ---       #411
      00FF7936H   LINE      CODE     ---       #412
      00FF7939H   LINE      CODE     ---       #413
      00FF793DH   LINE      CODE     ---       #414
      ---         BLOCKEND  ---      ---       LVL=0
      00000BCFH   SYMBOL    EDATA    BYTE      reg
      00000BD0H   SYMBOL    EDATA    ---       dat
      00000BD4H   SYMBOL    EDATA    DWORD     len
      00000DFAH   SYMBOL    EDATA    BYTE      dat
      00000DFBH   SYMBOL    EDATA    BYTE      return_state
      00000DFCH   SYMBOL    EDATA    WORD      timeout_count
      00000D4AH   SYMBOL    EDATA    ---       dat
      00000D50H   SYMBOL    EDATA    ---       dat
      00000D56H   SYMBOL    EDATA    INT       acc_value
      00000D58H   SYMBOL    EDATA    FLOAT     acc_data
      00000D5CH   SYMBOL    EDATA    INT       gyro_value
      00000D5EH   SYMBOL    EDATA    FLOAT     gyro_data
      00000DFEH   SYMBOL    EDATA    BYTE      val
      00000DFFH   SYMBOL    EDATA    BYTE      return_state
      00000E00H   SYMBOL    EDATA    WORD      timeout_count

      ---         MODULE    ---      ---       SEEKFREE_IPS114_SPI
      00FF77B1H   PUBLIC    CODE     ---       ips114_writedata_16bit
      00FF709CH   PUBLIC    CODE     ---       ips114_writeDatai_16bit_simspi
      00FF7320H   PUBLIC    CODE     ---       ips114_writeIndex_simspi
      00FF7A62H   PUBLIC    CODE     ---       ips114_writeIndex
      00000714H   PUBLIC    EDATA    BYTE      ?ips114_showfloat_simspi?BYTE
      00000744H   PUBLIC    EDATA    BYTE      ?ips114_showfloat?BYTE
      000000D0H   SFRSYM    DATA     BYTE      PSW
      0000009DH   SFRSYM    DATA     BYTE      IRCBAND
      00000097H   SFRSYM    DATA     BYTE      AUXR2
      000000EFH   SFRSYM    DATA     BYTE      AUXINTIF
      000000FDH   SFRSYM    DATA     BYTE      S4CON
      000000ACH   SFRSYM    DATA     BYTE      S3CON
      0000009AH   SFRSYM    DATA     BYTE      S2CON
      000000B7H   SFRSYM    DATA     BYTE      IPH
      000000CDH   SFRSYM    DATA     BYTE      SPSTAT
      000000DDH   SFRSYM    DATA     BYTE      T4T3M
      000000C1H   SFRSYM    DATA     BYTE      WDT_CONTR
      000000DFH   SFRSYM    DATA     BYTE      IP3
L251 LINKER/LOCATER V4.66.93.0                                                        07/17/2023  20:23:02  PAGE 73


      000000F4H   SFRSYM    DATA     BYTE      USBCON
      000000B5H   SFRSYM    DATA     BYTE      IP2
      000000FFH   SFRSYM    DATA     BYTE      RSTCFG
      000000F9H   SFRSYM    DATA     BYTE      LINICR
      0000008EH   SFRSYM    DATA     BYTE      AUXR
      000000AFH   SFRSYM    DATA     BYTE      IE2
      000000A0H.7 SFRSYM    DATA     BIT       P27
      000000A0H.5 SFRSYM    DATA     BIT       P25
      00000088H   SFRSYM    DATA     BYTE      TCON
      000000A0H.3 SFRSYM    DATA     BIT       P23
      00000098H   SFRSYM    DATA     BYTE      SCON
      000000A0H.2 SFRSYM    DATA     BIT       P22
      000000A0H.1 SFRSYM    DATA     BIT       P21
      000000A0H.0 SFRSYM    DATA     BIT       P20
      000000F1H   SFRSYM    DATA     BYTE      CANICR
      00000087H   SFRSYM    DATA     BYTE      PCON
      000000BCH   SFRSYM    DATA     BYTE      ADC_CONTR
      000000E7H   SFRSYM    DATA     BYTE      CMPCR2
      000000E6H   SFRSYM    DATA     BYTE      CMPCR1
      000000B8H   SFRSYM    DATA     BYTE      IP
      0000008FH   SFRSYM    DATA     BYTE      INTCLKO
      000000EEH   SFRSYM    DATA     BYTE      IP3H
      000000B6H   SFRSYM    DATA     BYTE      IP2H
      000000A8H   SFRSYM    DATA     BYTE      IE
      000000BBH   SFRSYM    DATA     BYTE      P_SW3
      000000BAH   SFRSYM    DATA     BYTE      P_SW2
      000000A2H   SFRSYM    DATA     BYTE      P_SW1
      000000CEH   SFRSYM    DATA     BYTE      SPCTL
      000000F8H   SFRSYM    DATA     BYTE      P7
      000000E8H   SFRSYM    DATA     BYTE      P6
      000000C8H   SFRSYM    DATA     BYTE      P5
      000000C0H   SFRSYM    DATA     BYTE      P4
      000000B0H   SFRSYM    DATA     BYTE      P3
      000000A0H   SFRSYM    DATA     BYTE      P2
      00000090H   SFRSYM    DATA     BYTE      P1
      00000080H   SFRSYM    DATA     BYTE      P0

      00FF7320H   BLOCK     CODE     ---       LVL=0
      00000E9DH   SYMBOL    EDATA    BYTE      dat
      00FF7324H   BLOCK     CODE     NEAR LAB  LVL=1
      00000E9EH   SYMBOL    EDATA    BYTE      i
      ---         BLOCKEND  ---      ---       LVL=1
      00FF7320H   LINE      CODE     ---       #61
      00FF7324H   LINE      CODE     ---       #62
      00FF7324H   LINE      CODE     ---       #63
      00FF732AH   LINE      CODE     ---       #64
      00FF732DH   LINE      CODE     ---       #65
      00FF7330H   LINE      CODE     ---       #67
      00FF7333H   LINE      CODE     ---       #69
      00FF7335H   LINE      CODE     ---       #71
      00FF7341H   LINE      CODE     ---       #72
      00FF7344H   LINE      CODE     ---       #73
      00FF7347H   LINE      CODE     ---       #75
      00FF734AH   LINE      CODE     ---       #76
      00FF7354H   LINE      CODE     ---       #77
      00FF7368H   LINE      CODE     ---       #78
      00FF736BH   LINE      CODE     ---       #79
      ---         BLOCKEND  ---      ---       LVL=0
      00000E9FH   SYMBOL    EDATA    BYTE      dat
      00000EA0H   SYMBOL    EDATA    BYTE      i

      00FF709CH   BLOCK     CODE     ---       LVL=0
      00000E4AH   SYMBOL    EDATA    WORD      dat
      00FF70A0H   BLOCK     CODE     NEAR LAB  LVL=1
      00000E4CH   SYMBOL    EDATA    BYTE      i
L251 LINKER/LOCATER V4.66.93.0                                                        07/17/2023  20:23:02  PAGE 74


      ---         BLOCKEND  ---      ---       LVL=1
      00FF709CH   LINE      CODE     ---       #115
      00FF70A0H   LINE      CODE     ---       #116
      00FF70A0H   LINE      CODE     ---       #117
      00FF70A6H   LINE      CODE     ---       #118
      00FF70A9H   LINE      CODE     ---       #119
      00FF70ACH   LINE      CODE     ---       #120
      00FF70AFH   LINE      CODE     ---       #121
      00FF70B1H   LINE      CODE     ---       #123
      00FF70C6H   LINE      CODE     ---       #124
      00FF70C9H   LINE      CODE     ---       #125
      00FF70CCH   LINE      CODE     ---       #127
      00FF70CFH   LINE      CODE     ---       #128
      00FF70D9H   LINE      CODE     ---       #129
      00FF70EDH   LINE      CODE     ---       #130
      00FF70F0H   LINE      CODE     ---       #131
      ---         BLOCKEND  ---      ---       LVL=0
      00000C95H   SYMBOL    EDATA    WORD      x1
      00000C97H   SYMBOL    EDATA    WORD      y1
      00000C99H   SYMBOL    EDATA    WORD      x2
      00000C9BH   SYMBOL    EDATA    WORD      y2
      00000D62H   SYMBOL    EDATA    WORD      color
      00000D64H   SYMBOL    EDATA    WORD      i
      00000D66H   SYMBOL    EDATA    WORD      j
      00000D68H   SYMBOL    EDATA    WORD      x
      00000D6AH   SYMBOL    EDATA    WORD      y
      00000D6CH   SYMBOL    EDATA    WORD      color
      00000C9DH   SYMBOL    EDATA    WORD      x
      00000C9FH   SYMBOL    EDATA    WORD      y
      00000CA1H   SYMBOL    EDATA    CHAR      dat
      00000CA2H   SYMBOL    EDATA    BYTE      i
      00000CA3H   SYMBOL    EDATA    BYTE      j
      00000CA4H   SYMBOL    EDATA    BYTE      temp
      00000B72H   SYMBOL    EDATA    WORD      x
      00000B74H   SYMBOL    EDATA    WORD      y
      00000B76H   SYMBOL    EDATA    ---       dat
      00000B7AH   SYMBOL    EDATA    WORD      j
      00000BD8H   SYMBOL    EDATA    WORD      x
      00000BDAH   SYMBOL    EDATA    WORD      y
      00000BDCH   SYMBOL    EDATA    CHAR      dat
      00000BDDH   SYMBOL    EDATA    ---       a
      00000BE0H   SYMBOL    EDATA    BYTE      i
      00000BE1H   SYMBOL    EDATA    WORD      x
      00000BE3H   SYMBOL    EDATA    WORD      y
      00000BE5H   SYMBOL    EDATA    BYTE      dat
      00000BE6H   SYMBOL    EDATA    ---       a
      00000BE9H   SYMBOL    EDATA    BYTE      i
      00000A9EH   SYMBOL    EDATA    WORD      x
      00000AA0H   SYMBOL    EDATA    WORD      y
      00000AA2H   SYMBOL    EDATA    INT       dat
      00000AA4H   SYMBOL    EDATA    ---       a
      00000AA9H   SYMBOL    EDATA    BYTE      i
      00000AAAH   SYMBOL    EDATA    WORD      x
      00000AACH   SYMBOL    EDATA    WORD      y
      00000AAEH   SYMBOL    EDATA    WORD      dat
      00000AB0H   SYMBOL    EDATA    ---       a
      00000AB5H   SYMBOL    EDATA    BYTE      i
      0000085BH   SYMBOL    EDATA    WORD      x
      0000085DH   SYMBOL    EDATA    WORD      y
      0000085FH   SYMBOL    EDATA    LONG      dat
      00000863H   SYMBOL    EDATA    BYTE      num
      00000864H   SYMBOL    EDATA    ---       buff
      00000886H   SYMBOL    EDATA    BYTE      length
      00000714H   SYMBOL    EDATA    WORD      x
      00000716H   SYMBOL    EDATA    WORD      y
L251 LINKER/LOCATER V4.66.93.0                                                        07/17/2023  20:23:02  PAGE 75


      00000718H   SYMBOL    EDATA    FLOAT     dat
      0000071CH   SYMBOL    EDATA    BYTE      num
      0000071DH   SYMBOL    EDATA    BYTE      pointnum
      0000071EH   SYMBOL    EDATA    BYTE      length
      0000071FH   SYMBOL    EDATA    ---       buff
      00000741H   SYMBOL    EDATA    CHAR      start
      00000742H   SYMBOL    EDATA    CHAR      end
      00000743H   SYMBOL    EDATA    CHAR      point

      00FF7A62H   BLOCK     CODE     ---       LVL=0
      00000EC7H   SYMBOL    EDATA    BYTE      dat
      00FF7A62H   LINE      CODE     ---       #594
      00FF7A66H   LINE      CODE     ---       #596
      00FF7A69H   LINE      CODE     ---       #597
      00FF7A6CH   LINE      CODE     ---       #599
      00FF7A73H   LINE      CODE     ---       #600
      00FF7A76H   LINE      CODE     ---       #601
      ---         BLOCKEND  ---      ---       LVL=0
      00000EC8H   SYMBOL    EDATA    BYTE      dat

      00FF77B1H   BLOCK     CODE     ---       LVL=0
      00000E02H   SYMBOL    EDATA    WORD      dat
      00FF77B5H   BLOCK     CODE     NEAR LAB  LVL=1
      00000E04H   SYMBOL    EDATA    ---       dat1
      ---         BLOCKEND  ---      ---       LVL=1
      00FF77B1H   LINE      CODE     ---       #626
      00FF77B5H   LINE      CODE     ---       #627
      00FF77B5H   LINE      CODE     ---       #629
      00FF77BBH   LINE      CODE     ---       #630
      00FF77C3H   LINE      CODE     ---       #631
      00FF77C6H   LINE      CODE     ---       #632
      00FF77C9H   LINE      CODE     ---       #633
      00FF77D0H   LINE      CODE     ---       #634
      00FF77D7H   LINE      CODE     ---       #635
      00FF77DAH   LINE      CODE     ---       #636
      ---         BLOCKEND  ---      ---       LVL=0
      00000CA5H   SYMBOL    EDATA    WORD      x1
      00000CA7H   SYMBOL    EDATA    WORD      y1
      00000CA9H   SYMBOL    EDATA    WORD      x2
      00000CABH   SYMBOL    EDATA    WORD      y2
      00000D6EH   SYMBOL    EDATA    WORD      color
      00000D70H   SYMBOL    EDATA    WORD      i
      00000D72H   SYMBOL    EDATA    WORD      j
      00000D74H   SYMBOL    EDATA    WORD      x
      00000D76H   SYMBOL    EDATA    WORD      y
      00000D78H   SYMBOL    EDATA    WORD      color
      00000CADH   SYMBOL    EDATA    WORD      x
      00000CAFH   SYMBOL    EDATA    WORD      y
      00000CB1H   SYMBOL    EDATA    CHAR      dat
      00000CB2H   SYMBOL    EDATA    BYTE      i
      00000CB3H   SYMBOL    EDATA    BYTE      j
      00000CB4H   SYMBOL    EDATA    BYTE      temp
      00000B7CH   SYMBOL    EDATA    WORD      x
      00000B7EH   SYMBOL    EDATA    WORD      y
      00000B80H   SYMBOL    EDATA    ---       dat
      00000B84H   SYMBOL    EDATA    WORD      j
      00000BEAH   SYMBOL    EDATA    WORD      x
      00000BECH   SYMBOL    EDATA    WORD      y
      00000BEEH   SYMBOL    EDATA    CHAR      dat
      00000BEFH   SYMBOL    EDATA    ---       a
      00000BF2H   SYMBOL    EDATA    BYTE      i
      00000BF3H   SYMBOL    EDATA    WORD      x
      00000BF5H   SYMBOL    EDATA    WORD      y
      00000BF7H   SYMBOL    EDATA    BYTE      dat
      00000BF8H   SYMBOL    EDATA    ---       a
L251 LINKER/LOCATER V4.66.93.0                                                        07/17/2023  20:23:02  PAGE 76


      00000BFBH   SYMBOL    EDATA    BYTE      i
      00000AB6H   SYMBOL    EDATA    WORD      x
      00000AB8H   SYMBOL    EDATA    WORD      y
      00000ABAH   SYMBOL    EDATA    INT       dat
      00000ABCH   SYMBOL    EDATA    ---       a
      00000AC1H   SYMBOL    EDATA    BYTE      i
      00000AC2H   SYMBOL    EDATA    WORD      x
      00000AC4H   SYMBOL    EDATA    WORD      y
      00000AC6H   SYMBOL    EDATA    WORD      dat
      00000AC8H   SYMBOL    EDATA    ---       a
      00000ACDH   SYMBOL    EDATA    BYTE      i
      00000887H   SYMBOL    EDATA    WORD      x
      00000889H   SYMBOL    EDATA    WORD      y
      0000088BH   SYMBOL    EDATA    LONG      dat
      0000088FH   SYMBOL    EDATA    BYTE      num
      00000890H   SYMBOL    EDATA    ---       buff
      000008B2H   SYMBOL    EDATA    BYTE      length
      00000744H   SYMBOL    EDATA    WORD      x
      00000746H   SYMBOL    EDATA    WORD      y
      00000748H   SYMBOL    EDATA    FLOAT     dat
      0000074CH   SYMBOL    EDATA    BYTE      num
      0000074DH   SYMBOL    EDATA    BYTE      pointnum
      0000074EH   SYMBOL    EDATA    BYTE      length
      0000074FH   SYMBOL    EDATA    ---       buff
      00000771H   SYMBOL    EDATA    CHAR      start
      00000772H   SYMBOL    EDATA    CHAR      end
      00000773H   SYMBOL    EDATA    CHAR      point

      ---         MODULE    ---      ---       SEEKFREE_MPU6050
      00000ACEH   PUBLIC    EDATA    INT       mpu6050_acc_x
      00000AD0H   PUBLIC    EDATA    INT       mpu6050_acc_y
      00000AD2H   PUBLIC    EDATA    INT       mpu6050_acc_z
      00000AD4H   PUBLIC    EDATA    INT       mpu6050_gyro_x
      00000AD6H   PUBLIC    EDATA    INT       mpu6050_gyro_y
      00000AD8H   PUBLIC    EDATA    INT       mpu6050_gyro_z
      000000D0H   SFRSYM    DATA     BYTE      PSW
      0000009DH   SFRSYM    DATA     BYTE      IRCBAND
      00000097H   SFRSYM    DATA     BYTE      AUXR2
      000000EFH   SFRSYM    DATA     BYTE      AUXINTIF
      000000FDH   SFRSYM    DATA     BYTE      S4CON
      000000ACH   SFRSYM    DATA     BYTE      S3CON
      0000009AH   SFRSYM    DATA     BYTE      S2CON
      000000B7H   SFRSYM    DATA     BYTE      IPH
      000000CDH   SFRSYM    DATA     BYTE      SPSTAT
      000000DDH   SFRSYM    DATA     BYTE      T4T3M
      000000C1H   SFRSYM    DATA     BYTE      WDT_CONTR
      000000DFH   SFRSYM    DATA     BYTE      IP3
      000000F4H   SFRSYM    DATA     BYTE      USBCON
      000000B5H   SFRSYM    DATA     BYTE      IP2
      000000FFH   SFRSYM    DATA     BYTE      RSTCFG
      000000F9H   SFRSYM    DATA     BYTE      LINICR
      0000008EH   SFRSYM    DATA     BYTE      AUXR
      000000AFH   SFRSYM    DATA     BYTE      IE2
      00000088H   SFRSYM    DATA     BYTE      TCON
      000000C0H.1 SFRSYM    DATA     BIT       P41
      00000098H   SFRSYM    DATA     BYTE      SCON
      000000C0H.0 SFRSYM    DATA     BIT       P40
      000000F1H   SFRSYM    DATA     BYTE      CANICR
      00000087H   SFRSYM    DATA     BYTE      PCON
      000000BCH   SFRSYM    DATA     BYTE      ADC_CONTR
      000000E7H   SFRSYM    DATA     BYTE      CMPCR2
      000000E6H   SFRSYM    DATA     BYTE      CMPCR1
      000000B8H   SFRSYM    DATA     BYTE      IP
      0000008FH   SFRSYM    DATA     BYTE      INTCLKO
      000000EEH   SFRSYM    DATA     BYTE      IP3H
L251 LINKER/LOCATER V4.66.93.0                                                        07/17/2023  20:23:02  PAGE 77


      000000B6H   SFRSYM    DATA     BYTE      IP2H
      000000A8H   SFRSYM    DATA     BYTE      IE
      000000BBH   SFRSYM    DATA     BYTE      P_SW3
      000000BAH   SFRSYM    DATA     BYTE      P_SW2
      000000A2H   SFRSYM    DATA     BYTE      P_SW1
      000000CEH   SFRSYM    DATA     BYTE      SPCTL
      000000F8H   SFRSYM    DATA     BYTE      P7
      000000E8H   SFRSYM    DATA     BYTE      P6
      000000C8H   SFRSYM    DATA     BYTE      P5
      000000C0H   SFRSYM    DATA     BYTE      P4
      000000B0H   SFRSYM    DATA     BYTE      P3
      000000A0H   SFRSYM    DATA     BYTE      P2
      00000090H   SFRSYM    DATA     BYTE      P1
      00000080H   SFRSYM    DATA     BYTE      P0
      00FF7AB4H   SYMBOL    CODE     ---       mpu6050_simiic_start
      00FF7A22H   SYMBOL    CODE     ---       mpu6050_simiic_stop
      00FF782BH   SYMBOL    CODE     ---       mpu6050_simiic_sendack
      00FF0026H   SYMBOL    CODE     ---       mpu6050_simiic_delay

      00FF0026H   BLOCK     CODE     ---       LVL=0
      00000EA1H   SYMBOL    EDATA    WORD      j
      00FF0026H   LINE      CODE     ---       #52
      00FF0026H   LINE      CODE     ---       #53
      00FF0026H   LINE      CODE     ---       #54
      00FF002CH   LINE      CODE     ---       #55
      00FF0042H   LINE      CODE     ---       #56
      ---         BLOCKEND  ---      ---       LVL=0

      00FF7AB4H   BLOCK     CODE     ---       LVL=0
      00FF7AB4H   LINE      CODE     ---       #59
      00FF7AB4H   LINE      CODE     ---       #61
      00FF7AB7H   LINE      CODE     ---       #62
      00FF7ABAH   LINE      CODE     ---       #63
      00FF7ABDH   LINE      CODE     ---       #64
      00FF7AC0H   LINE      CODE     ---       #65
      00FF7AC3H   LINE      CODE     ---       #66
      00FF7AC6H   LINE      CODE     ---       #67
      ---         BLOCKEND  ---      ---       LVL=0

      00FF7A22H   BLOCK     CODE     ---       LVL=0
      00FF7A22H   LINE      CODE     ---       #70
      00FF7A22H   LINE      CODE     ---       #72
      00FF7A25H   LINE      CODE     ---       #73
      00FF7A28H   LINE      CODE     ---       #74
      00FF7A2BH   LINE      CODE     ---       #75
      00FF7A2EH   LINE      CODE     ---       #76
      00FF7A31H   LINE      CODE     ---       #77
      00FF7A34H   LINE      CODE     ---       #78
      00FF7A37H   LINE      CODE     ---       #79
      ---         BLOCKEND  ---      ---       LVL=0

      00FF782BH   BLOCK     CODE     ---       LVL=0
      00000EC9H   SYMBOL    EDATA    BYTE      ack_dat
      00FF782BH   LINE      CODE     ---       #83
      00FF782FH   LINE      CODE     ---       #85
      00FF7832H   LINE      CODE     ---       #86
      00FF7835H   LINE      CODE     ---       #87
      00FF7843H   LINE      CODE     ---       #88
      00FF7846H   LINE      CODE     ---       #90
      00FF7849H   LINE      CODE     ---       #91
      00FF784CH   LINE      CODE     ---       #92
      00FF784FH   LINE      CODE     ---       #93
      00FF7852H   LINE      CODE     ---       #94
      ---         BLOCKEND  ---      ---       LVL=0
      00000EA3H   SYMBOL    EDATA    BYTE      c
L251 LINKER/LOCATER V4.66.93.0                                                        07/17/2023  20:23:02  PAGE 78


      00000EA4H   SYMBOL    EDATA    BYTE      i
      00000E4DH   SYMBOL    EDATA    BYTE      ack_x
      00000E4EH   SYMBOL    EDATA    BYTE      i
      00000E4FH   SYMBOL    EDATA    BYTE      c
      00000E50H   SYMBOL    EDATA    BYTE      dev_add
      00000E51H   SYMBOL    EDATA    BYTE      reg
      00000E52H   SYMBOL    EDATA    BYTE      dat
      00000E53H   SYMBOL    EDATA    BYTE      dev_add
      00000E54H   SYMBOL    EDATA    BYTE      reg
      00000E55H   SYMBOL    EDATA    BYTE      dat
      00000CF2H   SYMBOL    EDATA    BYTE      dev_add
      00000CF3H   SYMBOL    EDATA    BYTE      reg
      00000CF4H   SYMBOL    EDATA    ---       dat_add
      00000CF8H   SYMBOL    EDATA    BYTE      num
      00000D7AH   SYMBOL    EDATA    ---       dat
      00000D80H   SYMBOL    EDATA    ---       dat

      ---         MODULE    ---      ---       SEEKFREE_OLED
      00FF76C0H   PUBLIC    CODE     ---       oled_set_pos
      00FF736CH   PUBLIC    CODE     ---       oled_wrcmd
      00FF73B8H   PUBLIC    CODE     ---       oled_wrdat
      00FF7620H   PUBLIC    CODE     ---       oled_set_pos_spi
      00FF7A77H   PUBLIC    CODE     ---       oled_wrcmd_spi
      00FF7A8CH   PUBLIC    CODE     ---       oled_wrdat_spi
      00000774H   PUBLIC    EDATA    BYTE      ?oled_printf_float?BYTE
      000007A4H   PUBLIC    EDATA    BYTE      ?oled_printf_float_spi?BYTE
      000000D0H   SFRSYM    DATA     BYTE      PSW
      0000009DH   SFRSYM    DATA     BYTE      IRCBAND
      00000097H   SFRSYM    DATA     BYTE      AUXR2
      000000EFH   SFRSYM    DATA     BYTE      AUXINTIF
      000000FDH   SFRSYM    DATA     BYTE      S4CON
      000000ACH   SFRSYM    DATA     BYTE      S3CON
      0000009AH   SFRSYM    DATA     BYTE      S2CON
      000000B7H   SFRSYM    DATA     BYTE      IPH
      000000CDH   SFRSYM    DATA     BYTE      SPSTAT
      000000DDH   SFRSYM    DATA     BYTE      T4T3M
      000000C1H   SFRSYM    DATA     BYTE      WDT_CONTR
      000000DFH   SFRSYM    DATA     BYTE      IP3
      000000F4H   SFRSYM    DATA     BYTE      USBCON
      000000B5H   SFRSYM    DATA     BYTE      IP2
      000000FFH   SFRSYM    DATA     BYTE      RSTCFG
      000000F9H   SFRSYM    DATA     BYTE      LINICR
      0000008EH   SFRSYM    DATA     BYTE      AUXR
      000000AFH   SFRSYM    DATA     BYTE      IE2
      000000A0H.5 SFRSYM    DATA     BIT       P25
      00000088H   SFRSYM    DATA     BYTE      TCON
      000000A0H.3 SFRSYM    DATA     BIT       P23
      00000098H   SFRSYM    DATA     BYTE      SCON
      000000A0H.2 SFRSYM    DATA     BIT       P22
      000000A0H.1 SFRSYM    DATA     BIT       P21
      000000A0H.0 SFRSYM    DATA     BIT       P20
      000000F1H   SFRSYM    DATA     BYTE      CANICR
      00000087H   SFRSYM    DATA     BYTE      PCON
      000000BCH   SFRSYM    DATA     BYTE      ADC_CONTR
      000000E7H   SFRSYM    DATA     BYTE      CMPCR2
      000000E6H   SFRSYM    DATA     BYTE      CMPCR1
      000000B8H   SFRSYM    DATA     BYTE      IP
      0000008FH   SFRSYM    DATA     BYTE      INTCLKO
      000000EEH   SFRSYM    DATA     BYTE      IP3H
      000000B6H   SFRSYM    DATA     BYTE      IP2H
      000000A8H   SFRSYM    DATA     BYTE      IE
      000000BBH   SFRSYM    DATA     BYTE      P_SW3
      000000BAH   SFRSYM    DATA     BYTE      P_SW2
      000000A2H   SFRSYM    DATA     BYTE      P_SW1
      000000CEH   SFRSYM    DATA     BYTE      SPCTL
L251 LINKER/LOCATER V4.66.93.0                                                        07/17/2023  20:23:02  PAGE 79


      000000F8H   SFRSYM    DATA     BYTE      P7
      000000E8H   SFRSYM    DATA     BYTE      P6
      000000C8H   SFRSYM    DATA     BYTE      P5
      000000C0H   SFRSYM    DATA     BYTE      P4
      000000B0H   SFRSYM    DATA     BYTE      P3
      000000A0H   SFRSYM    DATA     BYTE      P2
      00000090H   SFRSYM    DATA     BYTE      P1
      00000080H   SFRSYM    DATA     BYTE      P0

      00FF73B8H   BLOCK     CODE     ---       LVL=0
      00000EA5H   SYMBOL    EDATA    BYTE      dat
      00FF73BCH   BLOCK     CODE     NEAR LAB  LVL=1
      00000EA6H   SYMBOL    EDATA    BYTE      i
      ---         BLOCKEND  ---      ---       LVL=1
      00FF73B8H   LINE      CODE     ---       #47
      00FF73BCH   LINE      CODE     ---       #48
      00FF73BCH   LINE      CODE     ---       #49
      00FF73C2H   LINE      CODE     ---       #51
      00FF73C5H   LINE      CODE     ---       #52
      00FF73C8H   LINE      CODE     ---       #53
      00FF73CBH   LINE      CODE     ---       #54
      00FF73CDH   LINE      CODE     ---       #56
      00FF73D9H   LINE      CODE     ---       #57
      00FF73DCH   LINE      CODE     ---       #58
      00FF73DFH   LINE      CODE     ---       #60
      00FF73E2H   LINE      CODE     ---       #61
      00FF73ECH   LINE      CODE     ---       #62
      00FF7400H   LINE      CODE     ---       #63
      00FF7403H   LINE      CODE     ---       #64
      ---         BLOCKEND  ---      ---       LVL=0

      00FF736CH   BLOCK     CODE     ---       LVL=0
      00000EA7H   SYMBOL    EDATA    BYTE      cmd
      00FF7370H   BLOCK     CODE     NEAR LAB  LVL=1
      00000EA8H   SYMBOL    EDATA    BYTE      i
      ---         BLOCKEND  ---      ---       LVL=1
      00FF736CH   LINE      CODE     ---       #98
      00FF7370H   LINE      CODE     ---       #99
      00FF7370H   LINE      CODE     ---       #100
      00FF7376H   LINE      CODE     ---       #102
      00FF7379H   LINE      CODE     ---       #103
      00FF737CH   LINE      CODE     ---       #104
      00FF737FH   LINE      CODE     ---       #106
      00FF7381H   LINE      CODE     ---       #108
      00FF738DH   LINE      CODE     ---       #109
      00FF7390H   LINE      CODE     ---       #110
      00FF7393H   LINE      CODE     ---       #112
      00FF7396H   LINE      CODE     ---       #113
      00FF73A0H   LINE      CODE     ---       #114
      00FF73B4H   LINE      CODE     ---       #115
      00FF73B7H   LINE      CODE     ---       #116
      ---         BLOCKEND  ---      ---       LVL=0
      00000CB5H   SYMBOL    EDATA    WORD      hex
      00000CB7H   SYMBOL    EDATA    ---       Print
      00000CBBH   SYMBOL    EDATA    BYTE      hexcheck
      00000CBCH   SYMBOL    EDATA    BYTE      TEMP

      00FF76C0H   BLOCK     CODE     ---       LVL=0
      00000EA9H   SYMBOL    EDATA    BYTE      x
      00000EAAH   SYMBOL    EDATA    BYTE      y
      00FF76C0H   LINE      CODE     ---       #205
      00FF76C8H   LINE      CODE     ---       #207
      00FF76D3H   LINE      CODE     ---       #208
      00FF76E9H   LINE      CODE     ---       #209
      00FF76F4H   LINE      CODE     ---       #210
L251 LINKER/LOCATER V4.66.93.0                                                        07/17/2023  20:23:02  PAGE 80


      ---         BLOCKEND  ---      ---       LVL=0
      00000E56H   SYMBOL    EDATA    BYTE      bmp_data
      00000E57H   SYMBOL    EDATA    BYTE      y
      00000E58H   SYMBOL    EDATA    BYTE      x
      00000E59H   SYMBOL    EDATA    BYTE      x
      00000E5AH   SYMBOL    EDATA    BYTE      y
      00000E5BH   SYMBOL    EDATA    BYTE      data1
      00000EABH   SYMBOL    EDATA    BYTE      x
      00000EACH   SYMBOL    EDATA    BYTE      y
      00000BFCH   SYMBOL    EDATA    BYTE      x
      00000BFDH   SYMBOL    EDATA    BYTE      y
      00000BFEH   SYMBOL    EDATA    ---       ch
      00000C02H   SYMBOL    EDATA    BYTE      c
      00000C03H   SYMBOL    EDATA    BYTE      i
      00000C04H   SYMBOL    EDATA    BYTE      j
      00000C05H   SYMBOL    EDATA    BYTE      x
      00000C06H   SYMBOL    EDATA    BYTE      y
      00000C07H   SYMBOL    EDATA    ---       ch
      00000C0BH   SYMBOL    EDATA    BYTE      c
      00000C0CH   SYMBOL    EDATA    BYTE      i
      00000C0DH   SYMBOL    EDATA    BYTE      j
      00000B0AH   SYMBOL    EDATA    BYTE      x
      00000B0BH   SYMBOL    EDATA    BYTE      y
      00000B0CH   SYMBOL    EDATA    WORD      num
      00000B0EH   SYMBOL    EDATA    ---       ch
      00000B15H   SYMBOL    EDATA    BYTE      x
      00000B16H   SYMBOL    EDATA    BYTE      y
      00000B17H   SYMBOL    EDATA    INT       num
      00000B19H   SYMBOL    EDATA    ---       ch
      000008B3H   SYMBOL    EDATA    WORD      x
      000008B5H   SYMBOL    EDATA    WORD      y
      000008B7H   SYMBOL    EDATA    LONG      dat
      000008BBH   SYMBOL    EDATA    BYTE      num
      000008BCH   SYMBOL    EDATA    ---       buff
      000008DEH   SYMBOL    EDATA    BYTE      length
      00000774H   SYMBOL    EDATA    WORD      x
      00000776H   SYMBOL    EDATA    WORD      y
      00000778H   SYMBOL    EDATA    FLOAT     dat
      0000077CH   SYMBOL    EDATA    BYTE      num
      0000077DH   SYMBOL    EDATA    BYTE      pointnum
      0000077EH   SYMBOL    EDATA    BYTE      length
      0000077FH   SYMBOL    EDATA    ---       buff
      000007A1H   SYMBOL    EDATA    CHAR      start
      000007A2H   SYMBOL    EDATA    CHAR      end
      000007A3H   SYMBOL    EDATA    CHAR      point
      00000992H   SYMBOL    EDATA    WORD      high
      00000994H   SYMBOL    EDATA    WORD      width
      00000996H   SYMBOL    EDATA    ---       p
      0000099AH   SYMBOL    EDATA    BYTE      value
      0000099BH   SYMBOL    EDATA    WORD      i
      0000099DH   SYMBOL    EDATA    WORD      j
      0000099FH   SYMBOL    EDATA    WORD      temp
      000009A1H   SYMBOL    EDATA    WORD      temp1
      000009A3H   SYMBOL    EDATA    BYTE      dat
      000009E2H   SYMBOL    EDATA    BYTE      x
      000009E3H   SYMBOL    EDATA    BYTE      y
      000009E4H   SYMBOL    EDATA    BYTE      size
      000009E5H   SYMBOL    EDATA    ---       p
      000009E9H   SYMBOL    EDATA    BYTE      len
      000009EAH   SYMBOL    EDATA    WORD      i
      000009ECH   SYMBOL    EDATA    WORD      j
      000009EEH   SYMBOL    EDATA    WORD      k

      00FF7A8CH   BLOCK     CODE     ---       LVL=0
      00000ECAH   SYMBOL    EDATA    BYTE      dat
L251 LINKER/LOCATER V4.66.93.0                                                        07/17/2023  20:23:02  PAGE 81


      00FF7A8CH   LINE      CODE     ---       #534
      00FF7A90H   LINE      CODE     ---       #536
      00FF7A93H   LINE      CODE     ---       #537
      00FF7A96H   LINE      CODE     ---       #538
      00FF7A9DH   LINE      CODE     ---       #539
      00FF7AA0H   LINE      CODE     ---       #542
      ---         BLOCKEND  ---      ---       LVL=0

      00FF7A77H   BLOCK     CODE     ---       LVL=0
      00000ECBH   SYMBOL    EDATA    BYTE      cmd
      00FF7A77H   LINE      CODE     ---       #576
      00FF7A7BH   LINE      CODE     ---       #578
      00FF7A7EH   LINE      CODE     ---       #579
      00FF7A81H   LINE      CODE     ---       #580
      00FF7A88H   LINE      CODE     ---       #581
      00FF7A8BH   LINE      CODE     ---       #582
      ---         BLOCKEND  ---      ---       LVL=0
      00000CBDH   SYMBOL    EDATA    WORD      hex
      00000CBFH   SYMBOL    EDATA    ---       Print
      00000CC3H   SYMBOL    EDATA    BYTE      hexcheck
      00000CC4H   SYMBOL    EDATA    BYTE      TEMP

      00FF7620H   BLOCK     CODE     ---       LVL=0
      00000EADH   SYMBOL    EDATA    BYTE      x
      00000EAEH   SYMBOL    EDATA    BYTE      y
      00FF7620H   LINE      CODE     ---       #672
      00FF7628H   LINE      CODE     ---       #676
      00FF7633H   LINE      CODE     ---       #677
      00FF764AH   LINE      CODE     ---       #678
      00FF7655H   LINE      CODE     ---       #679
      ---         BLOCKEND  ---      ---       LVL=0
      00000E5CH   SYMBOL    EDATA    BYTE      bmp_data
      00000E5DH   SYMBOL    EDATA    BYTE      y
      00000E5EH   SYMBOL    EDATA    BYTE      x
      00000E5FH   SYMBOL    EDATA    BYTE      x
      00000E60H   SYMBOL    EDATA    BYTE      y
      00000E61H   SYMBOL    EDATA    BYTE      data1
      00000EAFH   SYMBOL    EDATA    BYTE      x
      00000EB0H   SYMBOL    EDATA    BYTE      y
      00000C0EH   SYMBOL    EDATA    BYTE      x
      00000C0FH   SYMBOL    EDATA    BYTE      y
      00000C10H   SYMBOL    EDATA    ---       ch
      00000C14H   SYMBOL    EDATA    BYTE      c
      00000C15H   SYMBOL    EDATA    BYTE      i
      00000C16H   SYMBOL    EDATA    BYTE      j
      00000C17H   SYMBOL    EDATA    BYTE      x
      00000C18H   SYMBOL    EDATA    BYTE      y
      00000C19H   SYMBOL    EDATA    ---       ch
      00000C1DH   SYMBOL    EDATA    BYTE      c
      00000C1EH   SYMBOL    EDATA    BYTE      i
      00000C1FH   SYMBOL    EDATA    BYTE      j
      00000B20H   SYMBOL    EDATA    BYTE      x
      00000B21H   SYMBOL    EDATA    BYTE      y
      00000B22H   SYMBOL    EDATA    WORD      num
      00000B24H   SYMBOL    EDATA    ---       ch
      00000B2BH   SYMBOL    EDATA    BYTE      x
      00000B2CH   SYMBOL    EDATA    BYTE      y
      00000B2DH   SYMBOL    EDATA    INT       num
      00000B2FH   SYMBOL    EDATA    ---       ch
      000008DFH   SYMBOL    EDATA    WORD      x
      000008E1H   SYMBOL    EDATA    WORD      y
      000008E3H   SYMBOL    EDATA    LONG      dat
      000008E7H   SYMBOL    EDATA    BYTE      num
      000008E8H   SYMBOL    EDATA    ---       buff
      0000090AH   SYMBOL    EDATA    BYTE      length
L251 LINKER/LOCATER V4.66.93.0                                                        07/17/2023  20:23:02  PAGE 82


      000007A4H   SYMBOL    EDATA    WORD      x
      000007A6H   SYMBOL    EDATA    WORD      y
      000007A8H   SYMBOL    EDATA    FLOAT     dat
      000007ACH   SYMBOL    EDATA    BYTE      num
      000007ADH   SYMBOL    EDATA    BYTE      pointnum
      000007AEH   SYMBOL    EDATA    BYTE      length
      000007AFH   SYMBOL    EDATA    ---       buff
      000007D1H   SYMBOL    EDATA    CHAR      start
      000007D2H   SYMBOL    EDATA    CHAR      end
      000007D3H   SYMBOL    EDATA    CHAR      point
      000009A4H   SYMBOL    EDATA    WORD      high
      000009A6H   SYMBOL    EDATA    WORD      width
      000009A8H   SYMBOL    EDATA    ---       p
      000009ACH   SYMBOL    EDATA    BYTE      value
      000009ADH   SYMBOL    EDATA    WORD      i
      000009AFH   SYMBOL    EDATA    WORD      j
      000009B1H   SYMBOL    EDATA    WORD      temp
      000009B3H   SYMBOL    EDATA    WORD      temp1
      000009B5H   SYMBOL    EDATA    BYTE      dat
      000009F0H   SYMBOL    EDATA    BYTE      x
      000009F1H   SYMBOL    EDATA    BYTE      y
      000009F2H   SYMBOL    EDATA    BYTE      size
      000009F3H   SYMBOL    EDATA    ---       p
      000009F7H   SYMBOL    EDATA    BYTE      len
      000009F8H   SYMBOL    EDATA    WORD      i
      000009FAH   SYMBOL    EDATA    WORD      j
      000009FCH   SYMBOL    EDATA    WORD      k

      ---         MODULE    ---      ---       SEEKFREE_PRINTF
      00FF5E8FH   PUBLIC    CODE     ---       number_conversion_ascii
      00FF4173H   PUBLIC    CODE     ---       zf_sprintf
      00FF6630H   PUBLIC    CODE     ---       printf_reverse_order
      0000096BH   PUBLIC    EDATA    BYTE      ?number_conversion_ascii?BYTE
      0000057EH   PUBLIC    EDATA    BYTE      ?zf_sprintf?BYTE
      000000D0H   SFRSYM    DATA     BYTE      PSW
      0000009DH   SFRSYM    DATA     BYTE      IRCBAND
      00000097H   SFRSYM    DATA     BYTE      AUXR2
      000000EFH   SFRSYM    DATA     BYTE      AUXINTIF
      000000FDH   SFRSYM    DATA     BYTE      S4CON
      000000ACH   SFRSYM    DATA     BYTE      S3CON
      0000009AH   SFRSYM    DATA     BYTE      S2CON
      000000B7H   SFRSYM    DATA     BYTE      IPH
      000000CDH   SFRSYM    DATA     BYTE      SPSTAT
      000000DDH   SFRSYM    DATA     BYTE      T4T3M
      000000C1H   SFRSYM    DATA     BYTE      WDT_CONTR
      000000DFH   SFRSYM    DATA     BYTE      IP3
      000000F4H   SFRSYM    DATA     BYTE      USBCON
      000000B5H   SFRSYM    DATA     BYTE      IP2
      000000FFH   SFRSYM    DATA     BYTE      RSTCFG
      000000F9H   SFRSYM    DATA     BYTE      LINICR
      0000008EH   SFRSYM    DATA     BYTE      AUXR
      000000AFH   SFRSYM    DATA     BYTE      IE2
      00000088H   SFRSYM    DATA     BYTE      TCON
      00000098H   SFRSYM    DATA     BYTE      SCON
      000000F1H   SFRSYM    DATA     BYTE      CANICR
      00000087H   SFRSYM    DATA     BYTE      PCON
      000000BCH   SFRSYM    DATA     BYTE      ADC_CONTR
      000000E7H   SFRSYM    DATA     BYTE      CMPCR2
      000000E6H   SFRSYM    DATA     BYTE      CMPCR1
      000000B8H   SFRSYM    DATA     BYTE      IP
      0000008FH   SFRSYM    DATA     BYTE      INTCLKO
      000000EEH   SFRSYM    DATA     BYTE      IP3H
      000000B6H   SFRSYM    DATA     BYTE      IP2H
      000000A8H   SFRSYM    DATA     BYTE      IE
      000000BBH   SFRSYM    DATA     BYTE      P_SW3
L251 LINKER/LOCATER V4.66.93.0                                                        07/17/2023  20:23:02  PAGE 83


      000000BAH   SFRSYM    DATA     BYTE      P_SW2
      000000A2H   SFRSYM    DATA     BYTE      P_SW1
      000000CEH   SFRSYM    DATA     BYTE      SPCTL
      000000F8H   SFRSYM    DATA     BYTE      P7
      000000E8H   SFRSYM    DATA     BYTE      P6
      000000C8H   SFRSYM    DATA     BYTE      P5
      000000C0H   SFRSYM    DATA     BYTE      P4
      000000B0H   SFRSYM    DATA     BYTE      P3
      000000A0H   SFRSYM    DATA     BYTE      P2
      00000090H   SFRSYM    DATA     BYTE      P1
      00000080H   SFRSYM    DATA     BYTE      P0

      00FF5E8FH   BLOCK     CODE     ---       LVL=0
      0000096BH   SYMBOL    EDATA    DWORD     dat
      0000096FH   SYMBOL    EDATA    ---       p
      00000973H   SYMBOL    EDATA    BYTE      neg_type
      00000974H   SYMBOL    EDATA    BYTE      radix
      00FF5E9BH   BLOCK     CODE     NEAR LAB  LVL=1
      00000975H   SYMBOL    EDATA    LONG      neg_dat
      00000979H   SYMBOL    EDATA    DWORD     pos_dat
      0000097DH   SYMBOL    EDATA    BYTE      temp_data
      0000097EH   SYMBOL    EDATA    BYTE      valid_num
      ---         BLOCKEND  ---      ---       LVL=1
      00FF5E8FH   LINE      CODE     ---       #25
      00FF5E9BH   LINE      CODE     ---       #26
      00FF5E9BH   LINE      CODE     ---       #29
      00FF5EA0H   LINE      CODE     ---       #30
      00FF5EA5H   LINE      CODE     ---       #32
      00FF5EAEH   LINE      CODE     ---       #34
      00FF5EB6H   LINE      CODE     ---       #35
      00FF5ECEH   LINE      CODE     ---       #36
      00FF5ECEH   LINE      CODE     ---       #38
      00FF5EEAH   LINE      CODE     ---       #39
      00FF5EFDH   LINE      CODE     ---       #40
      00FF5F0AH   LINE      CODE     ---       #42
      00FF5F12H   LINE      CODE     ---       #43
      00FF5F1CH   LINE      CODE     ---       #44
      00FF5F1EH   LINE      CODE     ---       #45
      00FF5F21H   LINE      CODE     ---       #48
      00FF5F29H   LINE      CODE     ---       #49
      00FF5F29H   LINE      CODE     ---       #51
      00FF5F3EH   LINE      CODE     ---       #52
      00FF5F56H   LINE      CODE     ---       #53
      00FF5F62H   LINE      CODE     ---       #55
      00FF5F6DH   LINE      CODE     ---       #57
      00FF5F80H   LINE      CODE     ---       #58
      00FF5F8DH   LINE      CODE     ---       #60
      00FF5F95H   LINE      CODE     ---       #61
      00FF5F9FH   LINE      CODE     ---       #62
      00FF5FA1H   LINE      CODE     ---       #63
      00FF5FA1H   LINE      CODE     ---       #64
      00FF5FA5H   LINE      CODE     ---       #65
      ---         BLOCKEND  ---      ---       LVL=0

      00FF6630H   BLOCK     CODE     ---       LVL=0
      00000A19H   SYMBOL    EDATA    ---       d_buff
      00000A1DH   SYMBOL    EDATA    DWORD     len
      00FF6638H   BLOCK     CODE     NEAR LAB  LVL=1
      00000A21H   SYMBOL    EDATA    DWORD     i
      00000A25H   SYMBOL    EDATA    CHAR      temp_data
      ---         BLOCKEND  ---      ---       LVL=1
      00FF6630H   LINE      CODE     ---       #67
      00FF6638H   LINE      CODE     ---       #68
      00FF6638H   LINE      CODE     ---       #71
      00FF6640H   LINE      CODE     ---       #73
L251 LINKER/LOCATER V4.66.93.0                                                        07/17/2023  20:23:02  PAGE 84


      00FF665FH   LINE      CODE     ---       #74
      00FF6689H   LINE      CODE     ---       #75
      00FF669CH   LINE      CODE     ---       #76
      00FF66C4H   LINE      CODE     ---       #77
      ---         BLOCKEND  ---      ---       LVL=0

      00FF4173H   BLOCK     CODE     ---       LVL=0
      0000057EH   SYMBOL    EDATA    ---       buff
      00000582H   SYMBOL    EDATA    ---       format
      00FF417BH   BLOCK     CODE     NEAR LAB  LVL=1
      00000586H   SYMBOL    EDATA    DWORD     buff_len
      0000058AH   SYMBOL    EDATA    ---       arg
      00FF4190H   BLOCK     CODE     NEAR LAB  LVL=2
      0000058EH   SYMBOL    EDATA    CHAR      ret
      00FF42C5H   BLOCK     CODE     NEAR LAB  LVL=3
      0000058FH   SYMBOL    EDATA    CHAR      ch
      ---         BLOCKEND  ---      ---       LVL=3
      00FF4304H   BLOCK     CODE     NEAR LAB  LVL=3
      0000058FH   SYMBOL    EDATA    ---       vstr
      000005B0H   SYMBOL    EDATA    LONG      ival
      000005B4H   SYMBOL    EDATA    BYTE      vlen
      ---         BLOCKEND  ---      ---       LVL=3
      00FF43A5H   BLOCK     CODE     NEAR LAB  LVL=3
      0000058FH   SYMBOL    EDATA    ---       vstr
      000005B0H   SYMBOL    EDATA    FLOAT     ival
      000005B4H   SYMBOL    EDATA    BYTE      vlen
      ---         BLOCKEND  ---      ---       LVL=3
      00FF4536H   BLOCK     CODE     NEAR LAB  LVL=3
      0000058FH   SYMBOL    EDATA    ---       vstr
      000005B0H   SYMBOL    EDATA    DWORD     ival
      000005B4H   SYMBOL    EDATA    BYTE      vlen
      ---         BLOCKEND  ---      ---       LVL=3
      00FF45AEH   BLOCK     CODE     NEAR LAB  LVL=3
      0000058FH   SYMBOL    EDATA    ---       vstr
      000005B0H   SYMBOL    EDATA    DWORD     ival
      000005B4H   SYMBOL    EDATA    BYTE      vlen
      ---         BLOCKEND  ---      ---       LVL=3
      00FF4626H   BLOCK     CODE     NEAR LAB  LVL=3
      0000058FH   SYMBOL    EDATA    ---       vstr
      000005B0H   SYMBOL    EDATA    DWORD     ival
      000005B4H   SYMBOL    EDATA    BYTE      vlen
      ---         BLOCKEND  ---      ---       LVL=3
      00FF469EH   BLOCK     CODE     NEAR LAB  LVL=3
      0000058FH   SYMBOL    EDATA    ---       pc
      ---         BLOCKEND  ---      ---       LVL=3
      00FF46F8H   BLOCK     CODE     NEAR LAB  LVL=3
      0000058FH   SYMBOL    EDATA    ---       vstr
      000005B0H   SYMBOL    EDATA    DWORD     ival
      ---         BLOCKEND  ---      ---       LVL=3
      ---         BLOCKEND  ---      ---       LVL=2
      ---         BLOCKEND  ---      ---       LVL=1
      00FF4173H   LINE      CODE     ---       #212
      00FF417BH   LINE      CODE     ---       #213
      00FF417BH   LINE      CODE     ---       #214
      00FF4181H   LINE      CODE     ---       #216
      00FF418DH   LINE      CODE     ---       #218
      00FF4190H   LINE      CODE     ---       #219
      00FF4190H   LINE      CODE     ---       #220
      00FF419BH   LINE      CODE     ---       #221
      00FF41A7H   LINE      CODE     ---       #223
      00FF42C2H   LINE      CODE     ---       #225
      00FF42C2H   LINE      CODE     ---       #229
      00FF42C5H   LINE      CODE     ---       #232
      00FF42C5H   LINE      CODE     ---       #233
      00FF42C5H   LINE      CODE     ---       #234
L251 LINKER/LOCATER V4.66.93.0                                                        07/17/2023  20:23:02  PAGE 85


      00FF42DEH   LINE      CODE     ---       #235
      00FF42E9H   LINE      CODE     ---       #236
      00FF42F3H   LINE      CODE     ---       #237
      00FF4301H   LINE      CODE     ---       #239
      00FF4304H   LINE      CODE     ---       #242
      00FF4304H   LINE      CODE     ---       #243
      00FF4304H   LINE      CODE     ---       #244
      00FF4304H   LINE      CODE     ---       #246
      00FF431DH   LINE      CODE     ---       #247
      00FF4334H   LINE      CODE     ---       #249
      00FF433EH   LINE      CODE     ---       #251
      00FF434FH   LINE      CODE     ---       #252
      00FF435CH   LINE      CODE     ---       #253
      00FF435CH   LINE      CODE     ---       #254
      00FF436BH   LINE      CODE     ---       #255
      00FF4380H   LINE      CODE     ---       #256
      00FF4390H   LINE      CODE     ---       #257
      00FF43A2H   LINE      CODE     ---       #260
      00FF43A5H   LINE      CODE     ---       #262
      00FF43A5H   LINE      CODE     ---       #263
      00FF43A5H   LINE      CODE     ---       #264
      00FF43A5H   LINE      CODE     ---       #266
      00FF43BEH   LINE      CODE     ---       #267
      00FF43D8H   LINE      CODE     ---       #269
      00FF43E3H   LINE      CODE     ---       #271
      00FF43F4H   LINE      CODE     ---       #272
      00FF4401H   LINE      CODE     ---       #273
      00FF4401H   LINE      CODE     ---       #274
      00FF4410H   LINE      CODE     ---       #275
      00FF4425H   LINE      CODE     ---       #276
      00FF4435H   LINE      CODE     ---       #277
      00FF4447H   LINE      CODE     ---       #279
      00FF446BH   LINE      CODE     ---       #280
      00FF446FH   LINE      CODE     ---       #282
      00FF4489H   LINE      CODE     ---       #283
      00FF448BH   LINE      CODE     ---       #286
      00FF44AFH   LINE      CODE     ---       #287
      00FF44B5H   LINE      CODE     ---       #288
      00FF44B5H   LINE      CODE     ---       #290
      00FF44B7H   LINE      CODE     ---       #292
      00FF44C8H   LINE      CODE     ---       #293
      00FF44D5H   LINE      CODE     ---       #294
      00FF44DFH   LINE      CODE     ---       #296
      00FF44F0H   LINE      CODE     ---       #297
      00FF44FDH   LINE      CODE     ---       #299
      00FF450CH   LINE      CODE     ---       #300
      00FF4521H   LINE      CODE     ---       #301
      00FF4533H   LINE      CODE     ---       #303
      00FF4536H   LINE      CODE     ---       #306
      00FF4536H   LINE      CODE     ---       #307
      00FF4536H   LINE      CODE     ---       #309
      00FF454FH   LINE      CODE     ---       #310
      00FF4565H   LINE      CODE     ---       #312
      00FF4574H   LINE      CODE     ---       #313
      00FF4589H   LINE      CODE     ---       #314
      00FF4599H   LINE      CODE     ---       #315
      00FF45ABH   LINE      CODE     ---       #316
      00FF45AEH   LINE      CODE     ---       #318
      00FF45AEH   LINE      CODE     ---       #319
      00FF45AEH   LINE      CODE     ---       #321
      00FF45C7H   LINE      CODE     ---       #322
      00FF45DDH   LINE      CODE     ---       #324
      00FF45ECH   LINE      CODE     ---       #325
      00FF4601H   LINE      CODE     ---       #326
      00FF4611H   LINE      CODE     ---       #327
L251 LINKER/LOCATER V4.66.93.0                                                        07/17/2023  20:23:02  PAGE 86


      00FF4623H   LINE      CODE     ---       #329
      00FF4626H   LINE      CODE     ---       #331
      00FF4626H   LINE      CODE     ---       #332
      00FF4626H   LINE      CODE     ---       #333
      00FF4626H   LINE      CODE     ---       #335
      00FF463FH   LINE      CODE     ---       #336
      00FF4655H   LINE      CODE     ---       #338
      00FF4664H   LINE      CODE     ---       #339
      00FF4679H   LINE      CODE     ---       #340
      00FF4689H   LINE      CODE     ---       #341
      00FF469BH   LINE      CODE     ---       #342
      00FF469EH   LINE      CODE     ---       #345
      00FF469EH   LINE      CODE     ---       #346
      00FF469EH   LINE      CODE     ---       #347
      00FF46B7H   LINE      CODE     ---       #348
      00FF46B9H   LINE      CODE     ---       #350
      00FF46C7H   LINE      CODE     ---       #351
      00FF46D1H   LINE      CODE     ---       #352
      00FF46DFH   LINE      CODE     ---       #353
      00FF46E9H   LINE      CODE     ---       #354
      00FF46F5H   LINE      CODE     ---       #355
      00FF46F8H   LINE      CODE     ---       #357
      00FF46F8H   LINE      CODE     ---       #358
      00FF46F8H   LINE      CODE     ---       #360
      00FF4711H   LINE      CODE     ---       #362
      00FF4723H   LINE      CODE     ---       #364
      00FF472EH   LINE      CODE     ---       #365
      00FF4741H   LINE      CODE     ---       #366
      00FF474DH   LINE      CODE     ---       #367
      00FF475BH   LINE      CODE     ---       #369
      00FF475DH   LINE      CODE     ---       #372
      00FF475DH   LINE      CODE     ---       #374
      00FF4766H   LINE      CODE     ---       #375
      00FF4770H   LINE      CODE     ---       #376
      00FF477EH   LINE      CODE     ---       #377
      00FF4780H   LINE      CODE     ---       #379
      00FF4780H   LINE      CODE     ---       #380
      00FF4780H   LINE      CODE     ---       #381
      00FF4780H   LINE      CODE     ---       #384
      00FF478EH   LINE      CODE     ---       #385
      00FF4798H   LINE      CODE     ---       #386
      00FF47A6H   LINE      CODE     ---       #387
      00FF47A6H   LINE      CODE     ---       #388
      00FF47B0H   LINE      CODE     ---       #389
      00FF47BFH   LINE      CODE     ---       #392
      00FF47C3H   LINE      CODE     ---       #393
      ---         BLOCKEND  ---      ---       LVL=0

      ---         MODULE    ---      ---       SEEKFREE_TSL1401
      0000022BH   PUBLIC    EDATA    BYTE      tsl1401_finish_flag
      0000022CH   PUBLIC    EDATA    ---       ccd_data
      000000D0H   SFRSYM    DATA     BYTE      PSW
      0000009DH   SFRSYM    DATA     BYTE      IRCBAND
      00000097H   SFRSYM    DATA     BYTE      AUXR2
      000000EFH   SFRSYM    DATA     BYTE      AUXINTIF
      000000FDH   SFRSYM    DATA     BYTE      S4CON
      000000ACH   SFRSYM    DATA     BYTE      S3CON
      0000009AH   SFRSYM    DATA     BYTE      S2CON
      000000B7H   SFRSYM    DATA     BYTE      IPH
      000000CDH   SFRSYM    DATA     BYTE      SPSTAT
      000000DDH   SFRSYM    DATA     BYTE      T4T3M
      000000C1H   SFRSYM    DATA     BYTE      WDT_CONTR
      000000DFH   SFRSYM    DATA     BYTE      IP3
      000000F4H   SFRSYM    DATA     BYTE      USBCON
      000000B5H   SFRSYM    DATA     BYTE      IP2
L251 LINKER/LOCATER V4.66.93.0                                                        07/17/2023  20:23:02  PAGE 87


      000000FFH   SFRSYM    DATA     BYTE      RSTCFG
      000000F9H   SFRSYM    DATA     BYTE      LINICR
      0000008EH   SFRSYM    DATA     BYTE      AUXR
      000000AFH   SFRSYM    DATA     BYTE      IE2
      000000B0H.3 SFRSYM    DATA     BIT       P33
      00000088H   SFRSYM    DATA     BYTE      TCON
      000000B0H.2 SFRSYM    DATA     BIT       P32
      00000098H   SFRSYM    DATA     BYTE      SCON
      000000F1H   SFRSYM    DATA     BYTE      CANICR
      00000087H   SFRSYM    DATA     BYTE      PCON
      000000BCH   SFRSYM    DATA     BYTE      ADC_CONTR
      000000E7H   SFRSYM    DATA     BYTE      CMPCR2
      000000E6H   SFRSYM    DATA     BYTE      CMPCR1
      000000B8H   SFRSYM    DATA     BYTE      IP
      0000008FH   SFRSYM    DATA     BYTE      INTCLKO
      000000EEH   SFRSYM    DATA     BYTE      IP3H
      000000B6H   SFRSYM    DATA     BYTE      IP2H
      000000A8H   SFRSYM    DATA     BYTE      IE
      000000BBH   SFRSYM    DATA     BYTE      P_SW3
      000000BAH   SFRSYM    DATA     BYTE      P_SW2
      000000A2H   SFRSYM    DATA     BYTE      P_SW1
      000000CEH   SFRSYM    DATA     BYTE      SPCTL
      000000F8H   SFRSYM    DATA     BYTE      P7
      000000E8H   SFRSYM    DATA     BYTE      P6
      000000C8H   SFRSYM    DATA     BYTE      P5
      000000C0H   SFRSYM    DATA     BYTE      P4
      000000B0H   SFRSYM    DATA     BYTE      P3
      000000A0H   SFRSYM    DATA     BYTE      P2
      00000090H   SFRSYM    DATA     BYTE      P1
      00000080H   SFRSYM    DATA     BYTE      P0
      00000CF9H   SYMBOL    EDATA    INT       uart_n
      00000CFBH   SYMBOL    EDATA    ---       dat
      00000CFFH   SYMBOL    EDATA    BYTE      i
      00000ECCH   SYMBOL    EDATA    BYTE      i

      ---         MODULE    ---      ---       SEEKFREE_VIRSCO
      00000B86H   PUBLIC    EDATA    ---       virtual_scope_data
      000009FEH   PUBLIC    EDATA    BYTE      ?data_conversion?BYTE
      000000D0H   SFRSYM    DATA     BYTE      PSW
      0000009DH   SFRSYM    DATA     BYTE      IRCBAND
      00000097H   SFRSYM    DATA     BYTE      AUXR2
      000000EFH   SFRSYM    DATA     BYTE      AUXINTIF
      000000FDH   SFRSYM    DATA     BYTE      S4CON
      000000ACH   SFRSYM    DATA     BYTE      S3CON
      0000009AH   SFRSYM    DATA     BYTE      S2CON
      000000B7H   SFRSYM    DATA     BYTE      IPH
      000000CDH   SFRSYM    DATA     BYTE      SPSTAT
      000000DDH   SFRSYM    DATA     BYTE      T4T3M
      000000C1H   SFRSYM    DATA     BYTE      WDT_CONTR
      000000DFH   SFRSYM    DATA     BYTE      IP3
      000000F4H   SFRSYM    DATA     BYTE      USBCON
      000000B5H   SFRSYM    DATA     BYTE      IP2
      000000FFH   SFRSYM    DATA     BYTE      RSTCFG
      000000F9H   SFRSYM    DATA     BYTE      LINICR
      0000008EH   SFRSYM    DATA     BYTE      AUXR
      000000AFH   SFRSYM    DATA     BYTE      IE2
      00000088H   SFRSYM    DATA     BYTE      TCON
      00000098H   SFRSYM    DATA     BYTE      SCON
      000000F1H   SFRSYM    DATA     BYTE      CANICR
      00000087H   SFRSYM    DATA     BYTE      PCON
      000000BCH   SFRSYM    DATA     BYTE      ADC_CONTR
      000000E7H   SFRSYM    DATA     BYTE      CMPCR2
      000000E6H   SFRSYM    DATA     BYTE      CMPCR1
      000000B8H   SFRSYM    DATA     BYTE      IP
      0000008FH   SFRSYM    DATA     BYTE      INTCLKO
L251 LINKER/LOCATER V4.66.93.0                                                        07/17/2023  20:23:02  PAGE 88


      000000EEH   SFRSYM    DATA     BYTE      IP3H
      000000B6H   SFRSYM    DATA     BYTE      IP2H
      000000A8H   SFRSYM    DATA     BYTE      IE
      000000BBH   SFRSYM    DATA     BYTE      P_SW3
      000000BAH   SFRSYM    DATA     BYTE      P_SW2
      000000A2H   SFRSYM    DATA     BYTE      P_SW1
      000000CEH   SFRSYM    DATA     BYTE      SPCTL
      000000F8H   SFRSYM    DATA     BYTE      P7
      000000E8H   SFRSYM    DATA     BYTE      P6
      000000C8H   SFRSYM    DATA     BYTE      P5
      000000C0H   SFRSYM    DATA     BYTE      P4
      000000B0H   SFRSYM    DATA     BYTE      P3
      000000A0H   SFRSYM    DATA     BYTE      P2
      00000090H   SFRSYM    DATA     BYTE      P1
      00000080H   SFRSYM    DATA     BYTE      P0
      00000C20H   SYMBOL    EDATA    ---       Buf
      00000C24H   SYMBOL    EDATA    BYTE      CRC_CNT
      00000C25H   SYMBOL    EDATA    WORD      CRC_Temp
      00000C27H   SYMBOL    EDATA    BYTE      i
      00000C28H   SYMBOL    EDATA    BYTE      j
      000009FEH   SYMBOL    EDATA    INT       data1
      00000A00H   SYMBOL    EDATA    INT       data2
      00000A02H   SYMBOL    EDATA    INT       data3
      00000A04H   SYMBOL    EDATA    INT       data4
      00000A06H   SYMBOL    EDATA    ---       dat
      00000A0AH   SYMBOL    EDATA    WORD      CRC16

      ---         MODULE    ---      ---       SEEKFREE_WIRELESS
      00FF797AH   PUBLIC    CODE     ---       wireless_uart_callback
      000000D0H   SFRSYM    DATA     BYTE      PSW
      0000009DH   SFRSYM    DATA     BYTE      IRCBAND
      00000097H   SFRSYM    DATA     BYTE      AUXR2
      000000EFH   SFRSYM    DATA     BYTE      AUXINTIF
      000000FDH   SFRSYM    DATA     BYTE      S4CON
      000000ACH   SFRSYM    DATA     BYTE      S3CON
      0000009AH   SFRSYM    DATA     BYTE      S2CON
      000000FEH   SFRSYM    DATA     BYTE      S4BUF
      000000B7H   SFRSYM    DATA     BYTE      IPH
      000000CDH   SFRSYM    DATA     BYTE      SPSTAT
      000000DDH   SFRSYM    DATA     BYTE      T4T3M
      000000C1H   SFRSYM    DATA     BYTE      WDT_CONTR
      000000DFH   SFRSYM    DATA     BYTE      IP3
      000000F4H   SFRSYM    DATA     BYTE      USBCON
      000000B5H   SFRSYM    DATA     BYTE      IP2
      000000FFH   SFRSYM    DATA     BYTE      RSTCFG
      000000F9H   SFRSYM    DATA     BYTE      LINICR
      0000008EH   SFRSYM    DATA     BYTE      AUXR
      000000AFH   SFRSYM    DATA     BYTE      IE2
      00000080H.7 SFRSYM    DATA     BIT       P07
      00000088H   SFRSYM    DATA     BYTE      TCON
      00000098H   SFRSYM    DATA     BYTE      SCON
      000000F1H   SFRSYM    DATA     BYTE      CANICR
      00000087H   SFRSYM    DATA     BYTE      PCON
      000000BCH   SFRSYM    DATA     BYTE      ADC_CONTR
      000000E7H   SFRSYM    DATA     BYTE      CMPCR2
      000000E6H   SFRSYM    DATA     BYTE      CMPCR1
      000000B8H   SFRSYM    DATA     BYTE      IP
      0000008FH   SFRSYM    DATA     BYTE      INTCLKO
      000000EEH   SFRSYM    DATA     BYTE      IP3H
      000000B6H   SFRSYM    DATA     BYTE      IP2H
      000000A8H   SFRSYM    DATA     BYTE      IE
      000000BBH   SFRSYM    DATA     BYTE      P_SW3
      000000BAH   SFRSYM    DATA     BYTE      P_SW2
      000000A2H   SFRSYM    DATA     BYTE      P_SW1
      000000CEH   SFRSYM    DATA     BYTE      SPCTL
L251 LINKER/LOCATER V4.66.93.0                                                        07/17/2023  20:23:02  PAGE 89


      000000F8H   SFRSYM    DATA     BYTE      P7
      000000E8H   SFRSYM    DATA     BYTE      P6
      000000C8H   SFRSYM    DATA     BYTE      P5
      000000C0H   SFRSYM    DATA     BYTE      P4
      000000B0H   SFRSYM    DATA     BYTE      P3
      000000A0H   SFRSYM    DATA     BYTE      P2
      00000090H   SFRSYM    DATA     BYTE      P1
      00000080H   SFRSYM    DATA     BYTE      P0
      0000060AH   SYMBOL    EDATA    BYTE      wireless_uart_data
      0000060BH   SYMBOL    EDATA    ---       wireless_uart_fifo
      0000061FH   SYMBOL    EDATA    ---       wireless_uart_buffer

      00FF797AH   BLOCK     CODE     ---       LVL=0
      00FF797AH   LINE      CODE     ---       #48
      00FF797AH   LINE      CODE     ---       #51
      00FF7980H   LINE      CODE     ---       #52
      00FF7993H   LINE      CODE     ---       #53
      ---         BLOCKEND  ---      ---       LVL=0
      00000D86H   SYMBOL    EDATA    ---       buff
      00000D8AH   SYMBOL    EDATA    WORD      len
      00000ADAH   SYMBOL    EDATA    ---       buff
      00000ADEH   SYMBOL    EDATA    DWORD     len
      00000AE2H   SYMBOL    EDATA    DWORD     data_len

      ---         MODULE    ---      ---       SEEKFREE_WIRELESS_CH573
      00FF7994H   PUBLIC    CODE     ---       wireless_ch573_callback
      000000D0H   SFRSYM    DATA     BYTE      PSW
      0000009DH   SFRSYM    DATA     BYTE      IRCBAND
      00000097H   SFRSYM    DATA     BYTE      AUXR2
      000000EFH   SFRSYM    DATA     BYTE      AUXINTIF
      000000FDH   SFRSYM    DATA     BYTE      S4CON
      000000ACH   SFRSYM    DATA     BYTE      S3CON
      0000009AH   SFRSYM    DATA     BYTE      S2CON
      000000FEH   SFRSYM    DATA     BYTE      S4BUF
      000000B7H   SFRSYM    DATA     BYTE      IPH
      000000CDH   SFRSYM    DATA     BYTE      SPSTAT
      000000DDH   SFRSYM    DATA     BYTE      T4T3M
      000000C1H   SFRSYM    DATA     BYTE      WDT_CONTR
      000000DFH   SFRSYM    DATA     BYTE      IP3
      000000F4H   SFRSYM    DATA     BYTE      USBCON
      000000B5H   SFRSYM    DATA     BYTE      IP2
      000000FFH   SFRSYM    DATA     BYTE      RSTCFG
      000000F9H   SFRSYM    DATA     BYTE      LINICR
      0000008EH   SFRSYM    DATA     BYTE      AUXR
      000000AFH   SFRSYM    DATA     BYTE      IE2
      00000080H.7 SFRSYM    DATA     BIT       P07
      00000088H   SFRSYM    DATA     BYTE      TCON
      00000098H   SFRSYM    DATA     BYTE      SCON
      000000F1H   SFRSYM    DATA     BYTE      CANICR
      00000087H   SFRSYM    DATA     BYTE      PCON
      000000BCH   SFRSYM    DATA     BYTE      ADC_CONTR
      000000E7H   SFRSYM    DATA     BYTE      CMPCR2
      000000E6H   SFRSYM    DATA     BYTE      CMPCR1
      000000B8H   SFRSYM    DATA     BYTE      IP
      0000008FH   SFRSYM    DATA     BYTE      INTCLKO
      000000EEH   SFRSYM    DATA     BYTE      IP3H
      000000B6H   SFRSYM    DATA     BYTE      IP2H
      000000A8H   SFRSYM    DATA     BYTE      IE
      000000BBH   SFRSYM    DATA     BYTE      P_SW3
      000000BAH   SFRSYM    DATA     BYTE      P_SW2
      000000A2H   SFRSYM    DATA     BYTE      P_SW1
      000000CEH   SFRSYM    DATA     BYTE      SPCTL
      000000F8H   SFRSYM    DATA     BYTE      P7
      000000E8H   SFRSYM    DATA     BYTE      P6
      000000C8H   SFRSYM    DATA     BYTE      P5
L251 LINKER/LOCATER V4.66.93.0                                                        07/17/2023  20:23:02  PAGE 90


      000000C0H   SFRSYM    DATA     BYTE      P4
      000000B0H   SFRSYM    DATA     BYTE      P3
      000000A0H   SFRSYM    DATA     BYTE      P2
      00000090H   SFRSYM    DATA     BYTE      P1
      00000080H   SFRSYM    DATA     BYTE      P0
      0000065FH   SYMBOL    EDATA    ---       wireless_ch573_buffer
      0000069FH   SYMBOL    EDATA    BYTE      wireless_ch573_data
      000006A0H   SYMBOL    EDATA    ---       wireless_ch573_fifo

      00FF7994H   BLOCK     CODE     ---       LVL=0
      00FF7994H   LINE      CODE     ---       #47
      00FF7994H   LINE      CODE     ---       #50
      00FF799AH   LINE      CODE     ---       #51
      00FF79ADH   LINE      CODE     ---       #52
      ---         BLOCKEND  ---      ---       LVL=0
      00000D8CH   SYMBOL    EDATA    ---       buff
      00000D90H   SYMBOL    EDATA    WORD      len
      00000AE6H   SYMBOL    EDATA    ---       buff
      00000AEAH   SYMBOL    EDATA    DWORD     len
      00000AEEH   SYMBOL    EDATA    DWORD     data_len

      ---         MODULE    ---      ---       SEEKFREE_IMU660RA
      00000AF2H   PUBLIC    EDATA    INT       imu660ra_acc_x
      00000AF4H   PUBLIC    EDATA    INT       imu660ra_acc_y
      00000AF6H   PUBLIC    EDATA    INT       imu660ra_acc_z
      00000AF8H   PUBLIC    EDATA    INT       imu660ra_gyro_x
      00000AFAH   PUBLIC    EDATA    INT       imu660ra_gyro_y
      00000AFCH   PUBLIC    EDATA    INT       imu660ra_gyro_z
      000000D0H   SFRSYM    DATA     BYTE      PSW
      0000009DH   SFRSYM    DATA     BYTE      IRCBAND
      00000097H   SFRSYM    DATA     BYTE      AUXR2
      000000EFH   SFRSYM    DATA     BYTE      AUXINTIF
      000000FDH   SFRSYM    DATA     BYTE      S4CON
      000000ACH   SFRSYM    DATA     BYTE      S3CON
      0000009AH   SFRSYM    DATA     BYTE      S2CON
      000000B7H   SFRSYM    DATA     BYTE      IPH
      000000CDH   SFRSYM    DATA     BYTE      SPSTAT
      000000DDH   SFRSYM    DATA     BYTE      T4T3M
      000000C1H   SFRSYM    DATA     BYTE      WDT_CONTR
      000000DFH   SFRSYM    DATA     BYTE      IP3
      000000F4H   SFRSYM    DATA     BYTE      USBCON
      000000B5H   SFRSYM    DATA     BYTE      IP2
      000000FFH   SFRSYM    DATA     BYTE      RSTCFG
      000000F9H   SFRSYM    DATA     BYTE      LINICR
      0000008EH   SFRSYM    DATA     BYTE      AUXR
      000000AFH   SFRSYM    DATA     BYTE      IE2
      00000090H.6 SFRSYM    DATA     BIT       P16
      000000C0H.3 SFRSYM    DATA     BIT       P43
      00000088H   SFRSYM    DATA     BYTE      TCON
      000000C0H.1 SFRSYM    DATA     BIT       P41
      00000098H   SFRSYM    DATA     BYTE      SCON
      000000C0H.0 SFRSYM    DATA     BIT       P40
      000000F1H   SFRSYM    DATA     BYTE      CANICR
      00000087H   SFRSYM    DATA     BYTE      PCON
      000000BCH   SFRSYM    DATA     BYTE      ADC_CONTR
      000000E7H   SFRSYM    DATA     BYTE      CMPCR2
      000000E6H   SFRSYM    DATA     BYTE      CMPCR1
      000000B8H   SFRSYM    DATA     BYTE      IP
      0000008FH   SFRSYM    DATA     BYTE      INTCLKO
      000000EEH   SFRSYM    DATA     BYTE      IP3H
      000000B6H   SFRSYM    DATA     BYTE      IP2H
      000000A8H   SFRSYM    DATA     BYTE      IE
      000000BBH   SFRSYM    DATA     BYTE      P_SW3
      000000BAH   SFRSYM    DATA     BYTE      P_SW2
      000000A2H   SFRSYM    DATA     BYTE      P_SW1
L251 LINKER/LOCATER V4.66.93.0                                                        07/17/2023  20:23:02  PAGE 91


      000000CEH   SFRSYM    DATA     BYTE      SPCTL
      000000F8H   SFRSYM    DATA     BYTE      P7
      000000E8H   SFRSYM    DATA     BYTE      P6
      000000C8H   SFRSYM    DATA     BYTE      P5
      000000C0H   SFRSYM    DATA     BYTE      P4
      000000B0H   SFRSYM    DATA     BYTE      P3
      000000A0H   SFRSYM    DATA     BYTE      P2
      00000090H   SFRSYM    DATA     BYTE      P1
      00000080H   SFRSYM    DATA     BYTE      P0
      00FF789FH   SYMBOL    CODE     ---       imu660ra_read_register
      00FF6EEAH   SYMBOL    CODE     ---       imu660ra_simspi_wr_byte
      00FF7404H   SYMBOL    CODE     ---       imu660ra_simspi_r_reg_bytes

      00FF6EEAH   BLOCK     CODE     ---       LVL=0
      00000EB1H   SYMBOL    EDATA    BYTE      byte
      00FF6EEEH   BLOCK     CODE     NEAR LAB  LVL=1
      00000EB2H   SYMBOL    EDATA    BYTE      i
      ---         BLOCKEND  ---      ---       LVL=1
      00FF6EEAH   LINE      CODE     ---       #309
      00FF6EEEH   LINE      CODE     ---       #310
      00FF6EEEH   LINE      CODE     ---       #313
      00FF6EF5H   LINE      CODE     ---       #315
      00FF6F03H   LINE      CODE     ---       #316
      00FF6F0DH   LINE      CODE     ---       #317
      00FF6F10H   LINE      CODE     ---       #318
      00FF6F13H   LINE      CODE     ---       #319
      00FF6F16H   LINE      CODE     ---       #320
      00FF6F19H   LINE      CODE     ---       #322
      00FF6F27H   LINE      CODE     ---       #323
      00FF6F3EH   LINE      CODE     ---       #324
      00FF6F42H   LINE      CODE     ---       #325
      ---         BLOCKEND  ---      ---       LVL=0
      00000EB3H   SYMBOL    EDATA    BYTE      cmd
      00000EB4H   SYMBOL    EDATA    BYTE      val
      00000C29H   SYMBOL    EDATA    BYTE      cmd
      00000C2AH   SYMBOL    EDATA    ---       dat_addr
      00000C2EH   SYMBOL    EDATA    DWORD     len

      00FF7404H   BLOCK     CODE     ---       LVL=0
      00000C32H   SYMBOL    EDATA    BYTE      cmd
      00000C33H   SYMBOL    EDATA    ---       val
      00000C37H   SYMBOL    EDATA    DWORD     num
      00FF7404H   LINE      CODE     ---       #382
      00FF7410H   LINE      CODE     ---       #384
      00FF741CH   LINE      CODE     ---       #385
      00FF7423H   LINE      CODE     ---       #387
      00FF7425H   LINE      CODE     ---       #389
      00FF743AH   LINE      CODE     ---       #390
      00FF744EH   LINE      CODE     ---       #391
      ---         BLOCKEND  ---      ---       LVL=0
      00000EB5H   SYMBOL    EDATA    BYTE      reg
      00000EB6H   SYMBOL    EDATA    BYTE      dat
      00000C3BH   SYMBOL    EDATA    BYTE      reg
      00000C3CH   SYMBOL    EDATA    ---       dat
      00000C40H   SYMBOL    EDATA    DWORD     len

      00FF789FH   BLOCK     CODE     ---       LVL=0
      00000E62H   SYMBOL    EDATA    BYTE      reg
      00FF78A3H   BLOCK     CODE     NEAR LAB  LVL=1
      00000E63H   SYMBOL    EDATA    ---       dat
      ---         BLOCKEND  ---      ---       LVL=1
      00FF789FH   LINE      CODE     ---       #432
      00FF78A3H   LINE      CODE     ---       #433
      00FF78A3H   LINE      CODE     ---       #435
      00FF78A6H   LINE      CODE     ---       #436
L251 LINKER/LOCATER V4.66.93.0                                                        07/17/2023  20:23:02  PAGE 92


      00FF78B9H   LINE      CODE     ---       #437
      00FF78BCH   LINE      CODE     ---       #438
      00FF78C0H   LINE      CODE     ---       #439
      ---         BLOCKEND  ---      ---       LVL=0
      00000C44H   SYMBOL    EDATA    BYTE      reg
      00000C45H   SYMBOL    EDATA    ---       dat
      00000C49H   SYMBOL    EDATA    DWORD     len
      00000E06H   SYMBOL    EDATA    BYTE      dat
      00000E07H   SYMBOL    EDATA    BYTE      return_state
      00000E08H   SYMBOL    EDATA    WORD      timeout_count
      00000D00H   SYMBOL    EDATA    ---       dat
      00000D07H   SYMBOL    EDATA    ---       dat
      00000D92H   SYMBOL    EDATA    INT       acc_value
      00000D94H   SYMBOL    EDATA    FLOAT     acc_dat
      00000D98H   SYMBOL    EDATA    INT       gyro_value
      00000D9AH   SYMBOL    EDATA    FLOAT     gyro_dat
      00000ECDH   SYMBOL    EDATA    BYTE      return_state

      ---         MODULE    ---      ---       isr
      00FF7498H   PUBLIC    CODE     ---       UART1_Isr
      00FF793EH   PUBLIC    CODE     ---       UART2_Isr
      00FF795CH   PUBLIC    CODE     ---       UART3_Isr
      00FF69C2H   PUBLIC    CODE     ---       UART4_Isr
      00FF7AF5H   PUBLIC    CODE     ---       INT0_Isr
      00FF000AH   PUBLIC    CODE     ---       INT1_Isr
      00FF7AFDH   PUBLIC    CODE     ---       INT2_Isr
      00FF7B05H   PUBLIC    CODE     ---       INT3_Isr
      00FF7B0DH   PUBLIC    CODE     ---       INT4_Isr
      00FF000EH   PUBLIC    CODE     ---       TM0_Isr
      00FF723AH   PUBLIC    CODE     ---       TM1_Isr
      00FF7B15H   PUBLIC    CODE     ---       TM2_Isr
      00FF7B1DH   PUBLIC    CODE     ---       TM3_Isr
      00FF7B25H   PUBLIC    CODE     ---       TM4_Isr
      00000DC1H   PUBLIC    EDATA    INT       flag_stop
      00000DC3H   PUBLIC    EDATA    CHAR      cnt
      00000DC4H   PUBLIC    EDATA    CHAR      cnt2
      000000D0H   SFRSYM    DATA     BYTE      PSW
      0000009DH   SFRSYM    DATA     BYTE      IRCBAND
      00000097H   SFRSYM    DATA     BYTE      AUXR2
      000000EFH   SFRSYM    DATA     BYTE      AUXINTIF
      000000FDH   SFRSYM    DATA     BYTE      S4CON
      000000ACH   SFRSYM    DATA     BYTE      S3CON
      0000009AH   SFRSYM    DATA     BYTE      S2CON
      000000B7H   SFRSYM    DATA     BYTE      IPH
      000000CDH   SFRSYM    DATA     BYTE      SPSTAT
      000000DDH   SFRSYM    DATA     BYTE      T4T3M
      000000C1H   SFRSYM    DATA     BYTE      WDT_CONTR
      000000DFH   SFRSYM    DATA     BYTE      IP3
      000000F4H   SFRSYM    DATA     BYTE      USBCON
      000000B5H   SFRSYM    DATA     BYTE      IP2
      000000FFH   SFRSYM    DATA     BYTE      RSTCFG
      000000C7H   SFRSYM    DATA     BYTE      IAP_CONTR
      000000F9H   SFRSYM    DATA     BYTE      LINICR
      0000008EH   SFRSYM    DATA     BYTE      AUXR
      000000AFH   SFRSYM    DATA     BYTE      IE2
      000000C8H.2 SFRSYM    DATA     BIT       P52
      00000088H   SFRSYM    DATA     BYTE      TCON
      00000098H   SFRSYM    DATA     BYTE      SCON
      000000F1H   SFRSYM    DATA     BYTE      CANICR
      00000087H   SFRSYM    DATA     BYTE      PCON
      00000099H   SFRSYM    DATA     BYTE      SBUF
      000000BCH   SFRSYM    DATA     BYTE      ADC_CONTR
      000000E7H   SFRSYM    DATA     BYTE      CMPCR2
      000000E6H   SFRSYM    DATA     BYTE      CMPCR1
      000000B8H   SFRSYM    DATA     BYTE      IP
L251 LINKER/LOCATER V4.66.93.0                                                        07/17/2023  20:23:02  PAGE 93


      0000008FH   SFRSYM    DATA     BYTE      INTCLKO
      000000EEH   SFRSYM    DATA     BYTE      IP3H
      000000B6H   SFRSYM    DATA     BYTE      IP2H
      000000A8H   SFRSYM    DATA     BYTE      IE
      000000BBH   SFRSYM    DATA     BYTE      P_SW3
      000000BAH   SFRSYM    DATA     BYTE      P_SW2
      000000A2H   SFRSYM    DATA     BYTE      P_SW1
      000000CEH   SFRSYM    DATA     BYTE      SPCTL
      000000F8H   SFRSYM    DATA     BYTE      P7
      000000E8H   SFRSYM    DATA     BYTE      P6
      000000C8H   SFRSYM    DATA     BYTE      P5
      000000C0H   SFRSYM    DATA     BYTE      P4
      000000B0H   SFRSYM    DATA     BYTE      P3
      000000A0H   SFRSYM    DATA     BYTE      P2
      00000090H   SFRSYM    DATA     BYTE      P1
      00000080H   SFRSYM    DATA     BYTE      P0

      00FF723AH   BLOCK     CODE     ---       LVL=0
      00FF723AH   LINE      CODE     ---       #34
      00FF7250H   LINE      CODE     ---       #36
      00FF725DH   LINE      CODE     ---       #37
      00FF7266H   LINE      CODE     ---       #39
      00FF7269H   LINE      CODE     ---       #40
      00FF726EH   LINE      CODE     ---       #41
      00FF726EH   LINE      CODE     ---       #42
      00FF7271H   LINE      CODE     ---       #43
      ---         BLOCKEND  ---      ---       LVL=0

      00FF7B15H   BLOCK     CODE     ---       LVL=0
      00FF7B15H   LINE      CODE     ---       #46
      00FF7B17H   LINE      CODE     ---       #48
      00FF7B1AH   LINE      CODE     ---       #49
      ---         BLOCKEND  ---      ---       LVL=0

      00FF000AH   BLOCK     CODE     ---       LVL=0
      00FF000AH   LINE      CODE     ---       #54
      00FF000AH   LINE      CODE     ---       #57
      ---         BLOCKEND  ---      ---       LVL=0

      00FF7AFDH   BLOCK     CODE     ---       LVL=0
      00FF7AFDH   LINE      CODE     ---       #58
      00FF7AFFH   LINE      CODE     ---       #60
      00FF7B02H   LINE      CODE     ---       #61
      ---         BLOCKEND  ---      ---       LVL=0

      00FF7498H   BLOCK     CODE     ---       LVL=0
      00FF749CH   BLOCK     CODE     NEAR LAB  LVL=1
      00000ECEH   SYMBOL    EDATA    BYTE      res
      00000DC5H   SYMBOL    EDATA    BYTE      dwon_count
      ---         BLOCKEND  ---      ---       LVL=1
      00FF7498H   LINE      CODE     ---       #63
      00FF749CH   LINE      CODE     ---       #64
      00FF749CH   LINE      CODE     ---       #67
      00FF74A1H   LINE      CODE     ---       #69
      00FF74A4H   LINE      CODE     ---       #70
      00FF74A9H   LINE      CODE     ---       #71
      00FF74A9H   LINE      CODE     ---       #72
      00FF74AEH   LINE      CODE     ---       #74
      00FF74B1H   LINE      CODE     ---       #75
      00FF74B7H   LINE      CODE     ---       #77
      00FF74BCH   LINE      CODE     ---       #79
      00FF74CEH   LINE      CODE     ---       #80
      00FF74D2H   LINE      CODE     ---       #81
      00FF74D4H   LINE      CODE     ---       #84
      00FF74D9H   LINE      CODE     ---       #85
L251 LINKER/LOCATER V4.66.93.0                                                        07/17/2023  20:23:02  PAGE 94


      00FF74D9H   LINE      CODE     ---       #86
      ---         BLOCKEND  ---      ---       LVL=0

      00FF793EH   BLOCK     CODE     ---       LVL=0
      00FF793EH   LINE      CODE     ---       #90
      00FF7942H   LINE      CODE     ---       #92
      00FF7947H   LINE      CODE     ---       #94
      00FF794AH   LINE      CODE     ---       #95
      00FF794FH   LINE      CODE     ---       #96
      00FF794FH   LINE      CODE     ---       #97
      00FF7954H   LINE      CODE     ---       #99
      00FF7957H   LINE      CODE     ---       #102
      ---         BLOCKEND  ---      ---       LVL=0

      00FF795CH   BLOCK     CODE     ---       LVL=0
      00FF795CH   LINE      CODE     ---       #107
      00FF7960H   LINE      CODE     ---       #109
      00FF7965H   LINE      CODE     ---       #111
      00FF7968H   LINE      CODE     ---       #112
      00FF796DH   LINE      CODE     ---       #113
      00FF796DH   LINE      CODE     ---       #114
      00FF7972H   LINE      CODE     ---       #116
      00FF7975H   LINE      CODE     ---       #119
      ---         BLOCKEND  ---      ---       LVL=0

      00FF69C2H   BLOCK     CODE     ---       LVL=0
      00FF69C2H   LINE      CODE     ---       #124
      00FF69D8H   LINE      CODE     ---       #126
      00FF69DDH   LINE      CODE     ---       #128
      00FF69E0H   LINE      CODE     ---       #129
      00FF69E5H   LINE      CODE     ---       #130
      00FF69E5H   LINE      CODE     ---       #131
      00FF69EAH   LINE      CODE     ---       #133
      00FF69EDH   LINE      CODE     ---       #136
      00FF69F9H   LINE      CODE     ---       #138
      00FF69FCH   LINE      CODE     ---       #139
      00FF69FEH   LINE      CODE     ---       #140
      00FF6A0AH   LINE      CODE     ---       #142
      00FF6A0DH   LINE      CODE     ---       #143
      00FF6A0FH   LINE      CODE     ---       #144
      00FF6A1BH   LINE      CODE     ---       #146
      00FF6A1EH   LINE      CODE     ---       #147
      00FF6A1EH   LINE      CODE     ---       #149
      ---         BLOCKEND  ---      ---       LVL=0

      00FF7AF5H   BLOCK     CODE     ---       LVL=0
      00FF7AF5H   LINE      CODE     ---       #152
      00FF7AF7H   LINE      CODE     ---       #154
      00FF7AFAH   LINE      CODE     ---       #155
      ---         BLOCKEND  ---      ---       LVL=0

      00FF7B05H   BLOCK     CODE     ---       LVL=0
      00FF7B05H   LINE      CODE     ---       #157
      00FF7B07H   LINE      CODE     ---       #159
      00FF7B0AH   LINE      CODE     ---       #160
      ---         BLOCKEND  ---      ---       LVL=0

      00FF7B0DH   BLOCK     CODE     ---       LVL=0
      00FF7B0DH   LINE      CODE     ---       #162
      00FF7B0FH   LINE      CODE     ---       #164
      00FF7B12H   LINE      CODE     ---       #165
      ---         BLOCKEND  ---      ---       LVL=0

      00FF000EH   BLOCK     CODE     ---       LVL=0
      00FF000EH   LINE      CODE     ---       #167
L251 LINKER/LOCATER V4.66.93.0                                                        07/17/2023  20:23:02  PAGE 95


      00FF000EH   LINE      CODE     ---       #170
      ---         BLOCKEND  ---      ---       LVL=0

      00FF7B1DH   BLOCK     CODE     ---       LVL=0
      00FF7B1DH   LINE      CODE     ---       #172
      00FF7B1FH   LINE      CODE     ---       #174
      00FF7B22H   LINE      CODE     ---       #176
      ---         BLOCKEND  ---      ---       LVL=0

      00FF7B25H   BLOCK     CODE     ---       LVL=0
      00FF7B25H   LINE      CODE     ---       #178
      00FF7B27H   LINE      CODE     ---       #180
      00FF7B2AH   LINE      CODE     ---       #183
      ---         BLOCKEND  ---      ---       LVL=0

      ---         MODULE    ---      ---       main
      00FF6AA3H   PUBLIC    CODE     ---       main
      000000D0H   SFRSYM    DATA     BYTE      PSW
      0000009DH   SFRSYM    DATA     BYTE      IRCBAND
      00000097H   SFRSYM    DATA     BYTE      AUXR2
      000000EFH   SFRSYM    DATA     BYTE      AUXINTIF
      000000FDH   SFRSYM    DATA     BYTE      S4CON
      000000ACH   SFRSYM    DATA     BYTE      S3CON
      0000009AH   SFRSYM    DATA     BYTE      S2CON
      000000B7H   SFRSYM    DATA     BYTE      IPH
      000000CDH   SFRSYM    DATA     BYTE      SPSTAT
      000000DDH   SFRSYM    DATA     BYTE      T4T3M
      000000C1H   SFRSYM    DATA     BYTE      WDT_CONTR
      000000DFH   SFRSYM    DATA     BYTE      IP3
      000000F4H   SFRSYM    DATA     BYTE      USBCON
      000000B5H   SFRSYM    DATA     BYTE      IP2
      000000FFH   SFRSYM    DATA     BYTE      RSTCFG
      00000090H.7 SFRSYM    DATA     BIT       key
      000000F9H   SFRSYM    DATA     BYTE      LINICR
      0000008EH   SFRSYM    DATA     BYTE      AUXR
      000000AFH   SFRSYM    DATA     BYTE      IE2
      00000088H   SFRSYM    DATA     BYTE      TCON
      00000098H   SFRSYM    DATA     BYTE      SCON
      000000F1H   SFRSYM    DATA     BYTE      CANICR
      00000087H   SFRSYM    DATA     BYTE      PCON
      000000BCH   SFRSYM    DATA     BYTE      ADC_CONTR
      000000E7H   SFRSYM    DATA     BYTE      CMPCR2
      000000E6H   SFRSYM    DATA     BYTE      CMPCR1
      000000B8H   SFRSYM    DATA     BYTE      IP
      0000008FH   SFRSYM    DATA     BYTE      INTCLKO
      000000EEH   SFRSYM    DATA     BYTE      IP3H
      000000B6H   SFRSYM    DATA     BYTE      IP2H
      000000A8H   SFRSYM    DATA     BYTE      IE
      000000BBH   SFRSYM    DATA     BYTE      P_SW3
      000000BAH   SFRSYM    DATA     BYTE      P_SW2
      000000A2H   SFRSYM    DATA     BYTE      P_SW1
      000000CEH   SFRSYM    DATA     BYTE      SPCTL
      000000F8H   SFRSYM    DATA     BYTE      P7
      000000E8H   SFRSYM    DATA     BYTE      P6
      000000C8H   SFRSYM    DATA     BYTE      P5
      000000C0H   SFRSYM    DATA     BYTE      P4
      000000B0H   SFRSYM    DATA     BYTE      P3
      000000A0H   SFRSYM    DATA     BYTE      P2
      00000090H   SFRSYM    DATA     BYTE      P1
      00000080H   SFRSYM    DATA     BYTE      P0

      00FF6AA3H   BLOCK     CODE     ---       LVL=0
      00FF6AA3H   LINE      CODE     ---       #55
      00FF6AA3H   LINE      CODE     ---       #57
      00FF6AA6H   LINE      CODE     ---       #58
L251 LINKER/LOCATER V4.66.93.0                                                        07/17/2023  20:23:02  PAGE 96


      00FF6AA9H   LINE      CODE     ---       #60
      00FF6AACH   LINE      CODE     ---       #61
      00FF6AB7H   LINE      CODE     ---       #63
      00FF6ABAH   LINE      CODE     ---       #64
      00FF6ABAH   LINE      CODE     ---       #75
      00FF6ACDH   LINE      CODE     ---       #76
      00FF6AE2H   LINE      CODE     ---       #77
      00FF6AF7H   LINE      CODE     ---       #78
      00FF6B0CH   LINE      CODE     ---       #92
      00FF6B0EH   LINE      CODE     ---       #93
      ---         BLOCKEND  ---      ---       LVL=0

      ---         MODULE    ---      ---       all_init
      00FF79AEH   PUBLIC    CODE     ---       All_init
      000000D0H   SFRSYM    DATA     BYTE      PSW
      0000009DH   SFRSYM    DATA     BYTE      IRCBAND
      00000097H   SFRSYM    DATA     BYTE      AUXR2
      000000EFH   SFRSYM    DATA     BYTE      AUXINTIF
      000000FDH   SFRSYM    DATA     BYTE      S4CON
      000000ACH   SFRSYM    DATA     BYTE      S3CON
      0000009AH   SFRSYM    DATA     BYTE      S2CON
      000000B7H   SFRSYM    DATA     BYTE      IPH
      000000CDH   SFRSYM    DATA     BYTE      SPSTAT
      000000DDH   SFRSYM    DATA     BYTE      T4T3M
      000000C1H   SFRSYM    DATA     BYTE      WDT_CONTR
      000000DFH   SFRSYM    DATA     BYTE      IP3
      000000F4H   SFRSYM    DATA     BYTE      USBCON
      000000B5H   SFRSYM    DATA     BYTE      IP2
      000000FFH   SFRSYM    DATA     BYTE      RSTCFG
      000000F9H   SFRSYM    DATA     BYTE      LINICR
      0000008EH   SFRSYM    DATA     BYTE      AUXR
      000000AFH   SFRSYM    DATA     BYTE      IE2
      000000B0H.6 SFRSYM    DATA     BIT       P36
      00000088H   SFRSYM    DATA     BYTE      TCON
      00000098H   SFRSYM    DATA     BYTE      SCON
      000000F1H   SFRSYM    DATA     BYTE      CANICR
      00000087H   SFRSYM    DATA     BYTE      PCON
      000000BCH   SFRSYM    DATA     BYTE      ADC_CONTR
      000000E7H   SFRSYM    DATA     BYTE      CMPCR2
      000000E6H   SFRSYM    DATA     BYTE      CMPCR1
      000000B8H   SFRSYM    DATA     BYTE      IP
      0000008FH   SFRSYM    DATA     BYTE      INTCLKO
      000000EEH   SFRSYM    DATA     BYTE      IP3H
      000000B6H   SFRSYM    DATA     BYTE      IP2H
      000000A8H   SFRSYM    DATA     BYTE      IE
      000000BBH   SFRSYM    DATA     BYTE      P_SW3
      000000BAH   SFRSYM    DATA     BYTE      P_SW2
      000000A2H   SFRSYM    DATA     BYTE      P_SW1
      000000CEH   SFRSYM    DATA     BYTE      SPCTL
      000000F8H   SFRSYM    DATA     BYTE      P7
      000000E8H   SFRSYM    DATA     BYTE      P6
      000000C8H   SFRSYM    DATA     BYTE      P5
      000000C0H   SFRSYM    DATA     BYTE      P4
      000000B0H   SFRSYM    DATA     BYTE      P3
      000000A0H   SFRSYM    DATA     BYTE      P2
      000000B1H   SFRSYM    DATA     BYTE      P3M1
      00000090H   SFRSYM    DATA     BYTE      P1
      000000B2H   SFRSYM    DATA     BYTE      P3M0
      00000080H   SFRSYM    DATA     BYTE      P0

      00FF79AEH   BLOCK     CODE     ---       LVL=0
      00FF79AEH   LINE      CODE     ---       #7
      00FF79AEH   LINE      CODE     ---       #8
      00FF79B1H   LINE      CODE     ---       #9
      00FF79B4H   LINE      CODE     ---       #10
L251 LINKER/LOCATER V4.66.93.0                                                        07/17/2023  20:23:02  PAGE 97


      00FF79B7H   LINE      CODE     ---       #11
      00FF79BAH   LINE      CODE     ---       #12
      00FF79BDH   LINE      CODE     ---       #14
      00FF79C3H   LINE      CODE     ---       #15
      00FF79C6H   LINE      CODE     ---       #16
      ---         BLOCKEND  ---      ---       LVL=0

      ---         MODULE    ---      ---       bal
      00FF6A35H   PUBLIC    CODE     ---       All_PID_Init
      00FF5208H   PUBLIC    CODE     ---       velocity_control
      00FF6502H   PUBLIC    CODE     ---       Bal_control
      0000032CH   PUBLIC    EDATA    INT       AddSpeed
      0000032EH   PUBLIC    EDATA    FLOAT     global_pid_ki_out
      00000332H   PUBLIC    EDATA    FLOAT     Turn_OUT
      00000336H   PUBLIC    EDATA    INT       L_Speed_Last_Error
      00000338H   PUBLIC    EDATA    FLOAT     Turn_K1
      0000033CH   PUBLIC    EDATA    FLOAT     Turn_K2
      00000340H   PUBLIC    EDATA    FLOAT     global_pid_kp_out
      00000344H   PUBLIC    EDATA    INT       R_Speed_Last_Error
      00000346H   PUBLIC    EDATA    INT       L_Speed_Now_Error
      00000348H   PUBLIC    EDATA    INT       global_L_Speed_Now_car
      0000034AH   PUBLIC    EDATA    INT       R_Speed_Now_Error
      0000034CH   PUBLIC    EDATA    INT       global_R_Speed_Now_car
      0000034EH   PUBLIC    EDATA    WORD      Brake_CNT
      00000350H   PUBLIC    EDATA    FLOAT     L_target
      00000354H   PUBLIC    EDATA    INT       Pulse_L
      00000356H   PUBLIC    EDATA    FLOAT     Speed_L_Out
      0000035AH   PUBLIC    EDATA    FLOAT     R_target
      0000035EH   PUBLIC    EDATA    INT       Pulse_R
      00000360H   PUBLIC    EDATA    FLOAT     Speed_R_Out
      00000364H   PUBLIC    EDATA    WORD      Brake_Flag
      00000366H   PUBLIC    EDATA    INT       L_Speed_Now_car
      00000368H   PUBLIC    EDATA    INT       R_Speed_Now_car
      0000036AH   PUBLIC    EDATA    WORD      Speed_Target_car
      0000036CH   PUBLIC    EDATA    ---       L_Speed_PID
      0000039CH   PUBLIC    EDATA    ---       R_Speed_PID
      000003CCH   PUBLIC    EDATA    INT       Basic_L_Speed
      000003CEH   PUBLIC    EDATA    ---       Turn_PID
      000003FEH   PUBLIC    EDATA    INT       Basic_R_Speed
      00000400H   PUBLIC    EDATA    FLOAT     Turn_OUT_Error
      000000D0H   SFRSYM    DATA     BYTE      PSW
      0000009DH   SFRSYM    DATA     BYTE      IRCBAND
      00000097H   SFRSYM    DATA     BYTE      AUXR2
      000000EFH   SFRSYM    DATA     BYTE      AUXINTIF
      000000FDH   SFRSYM    DATA     BYTE      S4CON
      000000ACH   SFRSYM    DATA     BYTE      S3CON
      0000009AH   SFRSYM    DATA     BYTE      S2CON
      000000B7H   SFRSYM    DATA     BYTE      IPH
      000000CDH   SFRSYM    DATA     BYTE      SPSTAT
      000000DDH   SFRSYM    DATA     BYTE      T4T3M
      000000C1H   SFRSYM    DATA     BYTE      WDT_CONTR
      000000DFH   SFRSYM    DATA     BYTE      IP3
      000000F4H   SFRSYM    DATA     BYTE      USBCON
      000000B5H   SFRSYM    DATA     BYTE      IP2
      000000FFH   SFRSYM    DATA     BYTE      RSTCFG
      000000F9H   SFRSYM    DATA     BYTE      LINICR
      0000008EH   SFRSYM    DATA     BYTE      AUXR
      000000AFH   SFRSYM    DATA     BYTE      IE2
      000000B0H.5 SFRSYM    DATA     BIT       P35
      000000C8H.3 SFRSYM    DATA     BIT       P53
      00000088H   SFRSYM    DATA     BYTE      TCON
      00000098H   SFRSYM    DATA     BYTE      SCON
      000000F1H   SFRSYM    DATA     BYTE      CANICR
      00000087H   SFRSYM    DATA     BYTE      PCON
      000000BCH   SFRSYM    DATA     BYTE      ADC_CONTR
L251 LINKER/LOCATER V4.66.93.0                                                        07/17/2023  20:23:02  PAGE 98


      000000E7H   SFRSYM    DATA     BYTE      CMPCR2
      000000E6H   SFRSYM    DATA     BYTE      CMPCR1
      000000B8H   SFRSYM    DATA     BYTE      IP
      0000008FH   SFRSYM    DATA     BYTE      INTCLKO
      000000EEH   SFRSYM    DATA     BYTE      IP3H
      000000B6H   SFRSYM    DATA     BYTE      IP2H
      000000A8H   SFRSYM    DATA     BYTE      IE
      000000BBH   SFRSYM    DATA     BYTE      P_SW3
      000000BAH   SFRSYM    DATA     BYTE      P_SW2
      000000A2H   SFRSYM    DATA     BYTE      P_SW1
      000000CEH   SFRSYM    DATA     BYTE      SPCTL
      000000F8H   SFRSYM    DATA     BYTE      P7
      000000E8H   SFRSYM    DATA     BYTE      P6
      000000C8H   SFRSYM    DATA     BYTE      P5
      000000C0H   SFRSYM    DATA     BYTE      P4
      000000B0H   SFRSYM    DATA     BYTE      P3
      000000A0H   SFRSYM    DATA     BYTE      P2
      00000090H   SFRSYM    DATA     BYTE      P1
      00000080H   SFRSYM    DATA     BYTE      P0

      00FF6A35H   BLOCK     CODE     ---       LVL=0
      00FF6A35H   LINE      CODE     ---       #49
      00FF6A35H   LINE      CODE     ---       #51
      00FF6A3CH   LINE      CODE     ---       #52
      00FF6A43H   LINE      CODE     ---       #53
      00FF6A4AH   LINE      CODE     ---       #65
      00FF6A54H   LINE      CODE     ---       #66
      00FF6A60H   LINE      CODE     ---       #67
      00FF6A66H   LINE      CODE     ---       #69
      00FF6A70H   LINE      CODE     ---       #70
      00FF6A7CH   LINE      CODE     ---       #71
      00FF6A82H   LINE      CODE     ---       #73
      00FF6A8EH   LINE      CODE     ---       #74
      00FF6A94H   LINE      CODE     ---       #75
      00FF6A9AH   LINE      CODE     ---       #77
      00FF6AA2H   LINE      CODE     ---       #78
      ---         BLOCKEND  ---      ---       LVL=0

      00FF6502H   BLOCK     CODE     ---       LVL=0
      00FF6502H   LINE      CODE     ---       #81
      00FF6502H   LINE      CODE     ---       #83
      00FF650BH   LINE      CODE     ---       #85
      00FF651AH   LINE      CODE     ---       #86
      00FF651FH   LINE      CODE     ---       #87
      00FF651FH   LINE      CODE     ---       #91
      00FF653DH   LINE      CODE     ---       #94
      00FF6545H   LINE      CODE     ---       #95
      00FF6547H   LINE      CODE     ---       #98
      00FF6555H   LINE      CODE     ---       #100
      00FF6561H   LINE      CODE     ---       #102
      00FF6567H   LINE      CODE     ---       #104
      00FF656DH   LINE      CODE     ---       #105
      00FF656DH   LINE      CODE     ---       #109
      00FF6583H   LINE      CODE     ---       #111
      00FF658BH   LINE      CODE     ---       #112
      00FF658DH   LINE      CODE     ---       #115
      00FF6595H   LINE      CODE     ---       #116
      00FF6595H   LINE      CODE     ---       #133
      00FF6598H   LINE      CODE     ---       #141
      ---         BLOCKEND  ---      ---       LVL=0

      00FF5208H   BLOCK     CODE     ---       LVL=0
      00FF5208H   LINE      CODE     ---       #144
      00FF5208H   LINE      CODE     ---       #146
      00FF5211H   LINE      CODE     ---       #147
L251 LINKER/LOCATER V4.66.93.0                                                        07/17/2023  20:23:02  PAGE 99


      00FF521CH   LINE      CODE     ---       #149
      00FF5225H   LINE      CODE     ---       #151
      00FF5233H   LINE      CODE     ---       #152
      00FF5233H   LINE      CODE     ---       #154
      00FF523CH   LINE      CODE     ---       #156
      00FF524AH   LINE      CODE     ---       #157
      00FF524AH   LINE      CODE     ---       #159
      00FF5252H   LINE      CODE     ---       #160
      00FF525AH   LINE      CODE     ---       #162
      00FF5262H   LINE      CODE     ---       #163
      00FF526AH   LINE      CODE     ---       #165
      00FF5275H   LINE      CODE     ---       #167
      00FF5281H   LINE      CODE     ---       #168
      00FF52A1H   LINE      CODE     ---       #169
      00FF52A3H   LINE      CODE     ---       #172
      00FF52B6H   LINE      CODE     ---       #173
      00FF52C4H   LINE      CODE     ---       #174
      00FF52C4H   LINE      CODE     ---       #176
      00FF52DDH   LINE      CODE     ---       #177
      00FF52F6H   LINE      CODE     ---       #180
      00FF5300H   LINE      CODE     ---       #182
      00FF530CH   LINE      CODE     ---       #183
      00FF5318H   LINE      CODE     ---       #184
      00FF531AH   LINE      CODE     ---       #187
      00FF5324H   LINE      CODE     ---       #188
      00FF5330H   LINE      CODE     ---       #189
      00FF5330H   LINE      CODE     ---       #191
      00FF533AH   LINE      CODE     ---       #193
      00FF5346H   LINE      CODE     ---       #194
      00FF5352H   LINE      CODE     ---       #195
      00FF5354H   LINE      CODE     ---       #198
      00FF535EH   LINE      CODE     ---       #199
      00FF536AH   LINE      CODE     ---       #200
      00FF536AH   LINE      CODE     ---       #207
      00FF537EH   LINE      CODE     ---       #208
      00FF5392H   LINE      CODE     ---       #211
      00FF53A3H   LINE      CODE     ---       #213
      00FF53AFH   LINE      CODE     ---       #214
      00FF53BBH   LINE      CODE     ---       #215
      00FF53BDH   LINE      CODE     ---       #216
      00FF53CEH   LINE      CODE     ---       #218
      00FF53DAH   LINE      CODE     ---       #219
      00FF53E6H   LINE      CODE     ---       #220
      00FF53E6H   LINE      CODE     ---       #223
      00FF53F7H   LINE      CODE     ---       #225
      00FF5403H   LINE      CODE     ---       #226
      00FF540FH   LINE      CODE     ---       #227
      00FF5411H   LINE      CODE     ---       #228
      00FF5422H   LINE      CODE     ---       #230
      00FF542EH   LINE      CODE     ---       #231
      00FF543AH   LINE      CODE     ---       #232
      00FF543AH   LINE      CODE     ---       #237
      00FF543FH   LINE      CODE     ---       #238
      00FF5446H   LINE      CODE     ---       #239
      ---         BLOCKEND  ---      ---       LVL=0

      ---         MODULE    ---      ---       electronic
      00FF75E9H   PUBLIC    CODE     ---       ADC_6_road_init
      00FF6854H   PUBLIC    CODE     ---       adc_data_convert
      00FF6D78H   PUBLIC    CODE     ---       adc_filter
      00FF6599H   PUBLIC    CODE     ---       InductorNormal
      000004D1H   PUBLIC    EDATA    FLOAT     electro_error
      000004D5H   PUBLIC    EDATA    INT       R0
      000004D7H   PUBLIC    EDATA    FLOAT     Limit
      000004DBH   PUBLIC    EDATA    INT       R1
L251 LINKER/LOCATER V4.66.93.0                                                        07/17/2023  20:23:02  PAGE 100


      000004DDH   PUBLIC    EDATA    INT       R2
      000004DFH   PUBLIC    EDATA    INT       ad_min_xie
      000004E1H   PUBLIC    EDATA    INT       MagneticField
      000004E3H   PUBLIC    EDATA    INT       ad_max_xie
      000004E5H   PUBLIC    EDATA    INT       ad_min_shu
      000004E7H   PUBLIC    EDATA    INT       ad_max_shu
      000004E9H   PUBLIC    EDATA    INT       right
      000004EBH   PUBLIC    EDATA    CHAR      Turn_flag
      000004ECH   PUBLIC    EDATA    INT       left
      000004EEH   PUBLIC    EDATA    FLOAT     weightA
      000004F2H   PUBLIC    EDATA    FLOAT     weightB
      000004F6H   PUBLIC    EDATA    ---       ADC_DATA_CH0
      0000050EH   PUBLIC    EDATA    ---       ADC_DATA_CH2
      00000526H   PUBLIC    EDATA    ---       ADC_DATA_CH5
      0000053EH   PUBLIC    EDATA    ---       LnowADC
      0000054AH   PUBLIC    EDATA    INT       ad_min_heng
      0000054CH   PUBLIC    EDATA    INT       ad_max_heng
      0000054EH   PUBLIC    EDATA    INT       middle
      00000550H   PUBLIC    EDATA    INT       L0
      00000552H   PUBLIC    EDATA    INT       L1
      00000554H   PUBLIC    EDATA    INT       L2
      000000D0H   SFRSYM    DATA     BYTE      PSW
      0000009DH   SFRSYM    DATA     BYTE      IRCBAND
      00000097H   SFRSYM    DATA     BYTE      AUXR2
      000000EFH   SFRSYM    DATA     BYTE      AUXINTIF
      000000FDH   SFRSYM    DATA     BYTE      S4CON
      000000ACH   SFRSYM    DATA     BYTE      S3CON
      0000009AH   SFRSYM    DATA     BYTE      S2CON
      000000B7H   SFRSYM    DATA     BYTE      IPH
      000000CDH   SFRSYM    DATA     BYTE      SPSTAT
      000000DDH   SFRSYM    DATA     BYTE      T4T3M
      000000C1H   SFRSYM    DATA     BYTE      WDT_CONTR
      000000DFH   SFRSYM    DATA     BYTE      IP3
      000000F4H   SFRSYM    DATA     BYTE      USBCON
      000000B5H   SFRSYM    DATA     BYTE      IP2
      000000FFH   SFRSYM    DATA     BYTE      RSTCFG
      000000F9H   SFRSYM    DATA     BYTE      LINICR
      0000008EH   SFRSYM    DATA     BYTE      AUXR
      000000AFH   SFRSYM    DATA     BYTE      IE2
      00000088H   SFRSYM    DATA     BYTE      TCON
      00000098H   SFRSYM    DATA     BYTE      SCON
      000000F1H   SFRSYM    DATA     BYTE      CANICR
      00000087H   SFRSYM    DATA     BYTE      PCON
      000000BCH   SFRSYM    DATA     BYTE      ADC_CONTR
      000000E7H   SFRSYM    DATA     BYTE      CMPCR2
      000000E6H   SFRSYM    DATA     BYTE      CMPCR1
      000000B8H   SFRSYM    DATA     BYTE      IP
      0000008FH   SFRSYM    DATA     BYTE      INTCLKO
      000000EEH   SFRSYM    DATA     BYTE      IP3H
      000000B6H   SFRSYM    DATA     BYTE      IP2H
      000000A8H   SFRSYM    DATA     BYTE      IE
      000000BBH   SFRSYM    DATA     BYTE      P_SW3
      000000BAH   SFRSYM    DATA     BYTE      P_SW2
      000000A2H   SFRSYM    DATA     BYTE      P_SW1
      000000CEH   SFRSYM    DATA     BYTE      SPCTL
      000000F8H   SFRSYM    DATA     BYTE      P7
      000000E8H   SFRSYM    DATA     BYTE      P6
      000000C8H   SFRSYM    DATA     BYTE      P5
      000000C0H   SFRSYM    DATA     BYTE      P4
      000000B0H   SFRSYM    DATA     BYTE      P3
      000000A0H   SFRSYM    DATA     BYTE      P2
      00000090H   SFRSYM    DATA     BYTE      P1
      00000080H   SFRSYM    DATA     BYTE      P0

      00FF75E9H   BLOCK     CODE     ---       LVL=0
L251 LINKER/LOCATER V4.66.93.0                                                        07/17/2023  20:23:02  PAGE 101


      00FF75E9H   LINE      CODE     ---       #33
      00FF75E9H   LINE      CODE     ---       #35
      00FF75F2H   LINE      CODE     ---       #36
      00FF75FBH   LINE      CODE     ---       #37
      00FF7604H   LINE      CODE     ---       #38
      00FF760DH   LINE      CODE     ---       #39
      00FF7616H   LINE      CODE     ---       #40
      00FF761FH   LINE      CODE     ---       #41
      ---         BLOCKEND  ---      ---       LVL=0

      00FF6599H   BLOCK     CODE     ---       LVL=0
      00FF6599H   LINE      CODE     ---       #50
      00FF6599H   LINE      CODE     ---       #59
      00FF659CH   LINE      CODE     ---       #61
      00FF65A7H   LINE      CODE     ---       #62
      00FF65B2H   LINE      CODE     ---       #63
      00FF65BDH   LINE      CODE     ---       #75
      00FF65CBH   LINE      CODE     ---       #80
      00FF6618H   LINE      CODE     ---       #84
      00FF6629H   LINE      CODE     ---       #85
      00FF662FH   LINE      CODE     ---       #86
      ---         BLOCKEND  ---      ---       LVL=0
      00000CC5H   SYMBOL    EDATA    INT       vadc_chn
      00010000H   SYMBOL    XDATA    BYTE      i
      00010001H   SYMBOL    XDATA    ---       a
      00000CC7H   SYMBOL    EDATA    INT       filter_temp
      00000CC9H   SYMBOL    EDATA    INT       out
      00000CCBH   SYMBOL    EDATA    INT       j

      00FF6854H   BLOCK     CODE     ---       LVL=0
      0001001CH   SYMBOL    XDATA    BYTE      i
      00FF6854H   LINE      CODE     ---       #130
      00FF6854H   LINE      CODE     ---       #131
      00FF6854H   LINE      CODE     ---       #133
      00FF685BH   LINE      CODE     ---       #135
      00FF687BH   LINE      CODE     ---       #137
      00FF689BH   LINE      CODE     ---       #141
      00FF68BBH   LINE      CODE     ---       #142
      00FF68D2H   LINE      CODE     ---       #143
      ---         BLOCKEND  ---      ---       LVL=0

      00FF6D78H   BLOCK     CODE     ---       LVL=0
      00000E0AH   SYMBOL    EDATA    ---       a
      00FF6D7CH   BLOCK     CODE     NEAR LAB  LVL=1
      00010019H   SYMBOL    XDATA    BYTE      i
      0001001AH   SYMBOL    XDATA    INT       out
      ---         BLOCKEND  ---      ---       LVL=1
      00FF6D78H   LINE      CODE     ---       #146
      00FF6D7CH   LINE      CODE     ---       #147
      00FF6D7CH   LINE      CODE     ---       #149
      00FF6D84H   LINE      CODE     ---       #151
      00FF6D8BH   LINE      CODE     ---       #153
      00FF6DA9H   LINE      CODE     ---       #154
      00FF6DC0H   LINE      CODE     ---       #156
      00FF6DD0H   LINE      CODE     ---       #157
      00FF6DD6H   LINE      CODE     ---       #158
      ---         BLOCKEND  ---      ---       LVL=0

      ---         MODULE    ---      ---       element
      00FF76F5H   PUBLIC    CODE     ---       out_garage
      00FF6753H   PUBLIC    CODE     ---       Judge_Game
      00FF6C4BH   PUBLIC    CODE     ---       go_4_ring
      0000092AH   PUBLIC    EDATA    CHAR      stop_garage
      0000092BH   PUBLIC    EDATA    INT       flag_element_L
      0000092DH   PUBLIC    EDATA    INT       flag_element_R
L251 LINKER/LOCATER V4.66.93.0                                                        07/17/2023  20:23:02  PAGE 102


      0000092FH   PUBLIC    EDATA    CHAR      start_judge
      00000930H   PUBLIC    EDATA    FLOAT     road
      00000934H   PUBLIC    EDATA    CHAR      after_ring_in_garage
      00000935H   PUBLIC    EDATA    INT       time_ring
      00000937H   PUBLIC    EDATA    FLOAT     road_L
      0000093BH   PUBLIC    EDATA    INT       flag_stop_ring
      0000093DH   PUBLIC    EDATA    CHAR      bal_stop
      0000093EH   PUBLIC    EDATA    FLOAT     road_R
      00000942H   PUBLIC    EDATA    CHAR      flag_garage
      00000020H.0 PUBLIC    BIT      BIT       flag_electronic
      00000020H.1 PUBLIC    BIT      BIT       outRing_flag
      000000D0H   SFRSYM    DATA     BYTE      PSW
      0000009DH   SFRSYM    DATA     BYTE      IRCBAND
      00000097H   SFRSYM    DATA     BYTE      AUXR2
      000000EFH   SFRSYM    DATA     BYTE      AUXINTIF
      000000FDH   SFRSYM    DATA     BYTE      S4CON
      000000ACH   SFRSYM    DATA     BYTE      S3CON
      0000009AH   SFRSYM    DATA     BYTE      S2CON
      000000B7H   SFRSYM    DATA     BYTE      IPH
      000000CDH   SFRSYM    DATA     BYTE      SPSTAT
      000000DDH   SFRSYM    DATA     BYTE      T4T3M
      000000C1H   SFRSYM    DATA     BYTE      WDT_CONTR
      000000DFH   SFRSYM    DATA     BYTE      IP3
      000000F4H   SFRSYM    DATA     BYTE      USBCON
      000000B5H   SFRSYM    DATA     BYTE      IP2
      000000FFH   SFRSYM    DATA     BYTE      RSTCFG
      000000F9H   SFRSYM    DATA     BYTE      LINICR
      0000008EH   SFRSYM    DATA     BYTE      AUXR
      000000AFH   SFRSYM    DATA     BYTE      IE2
      000000B0H.6 SFRSYM    DATA     BIT       P36
      000000C0H.5 SFRSYM    DATA     BIT       P45
      00000088H   SFRSYM    DATA     BYTE      TCON
      00000098H   SFRSYM    DATA     BYTE      SCON
      000000F1H   SFRSYM    DATA     BYTE      CANICR
      00000087H   SFRSYM    DATA     BYTE      PCON
      000000BCH   SFRSYM    DATA     BYTE      ADC_CONTR
      000000E7H   SFRSYM    DATA     BYTE      CMPCR2
      000000E6H   SFRSYM    DATA     BYTE      CMPCR1
      000000B8H   SFRSYM    DATA     BYTE      IP
      0000008FH   SFRSYM    DATA     BYTE      INTCLKO
      000000EEH   SFRSYM    DATA     BYTE      IP3H
      000000B6H   SFRSYM    DATA     BYTE      IP2H
      000000A8H   SFRSYM    DATA     BYTE      IE
      000000BBH   SFRSYM    DATA     BYTE      P_SW3
      000000BAH   SFRSYM    DATA     BYTE      P_SW2
      000000A2H   SFRSYM    DATA     BYTE      P_SW1
      000000CEH   SFRSYM    DATA     BYTE      SPCTL
      000000F8H   SFRSYM    DATA     BYTE      P7
      000000E8H   SFRSYM    DATA     BYTE      P6
      000000C8H   SFRSYM    DATA     BYTE      P5
      000000C0H   SFRSYM    DATA     BYTE      P4
      000000B0H   SFRSYM    DATA     BYTE      P3
      000000A0H   SFRSYM    DATA     BYTE      P2
      00000090H   SFRSYM    DATA     BYTE      P1
      00000080H   SFRSYM    DATA     BYTE      P0

      00FF6753H   BLOCK     CODE     ---       LVL=0
      00FF6753H   LINE      CODE     ---       #35
      00FF6753H   LINE      CODE     ---       #39
      00FF675CH   LINE      CODE     ---       #45
      00FF675FH   LINE      CODE     ---       #47
      00FF6762H   LINE      CODE     ---       #49
      00FF676EH   LINE      CODE     ---       #51
      00FF6776H   LINE      CODE     ---       #52
      00FF677CH   LINE      CODE     ---       #53
L251 LINKER/LOCATER V4.66.93.0                                                        07/17/2023  20:23:02  PAGE 103


      00FF6782H   LINE      CODE     ---       #57
      00FF6782H   LINE      CODE     ---       #59
      00FF678BH   LINE      CODE     ---       #61
      00FF6791H   LINE      CODE     ---       #62
      00FF6797H   LINE      CODE     ---       #66
      00FF6797H   LINE      CODE     ---       #68
      00FF67AEH   LINE      CODE     ---       #69
      00FF67AEH   LINE      CODE     ---       #72
      00FF67CCH   LINE      CODE     ---       #74
      00FF67CFH   LINE      CODE     ---       #75
      00FF67D1H   LINE      CODE     ---       #78
      00FF67D4H   LINE      CODE     ---       #79
      00FF67D4H   LINE      CODE     ---       #81
      ---         BLOCKEND  ---      ---       LVL=0

      00FF6C4BH   BLOCK     CODE     ---       LVL=0
      00FF6C4BH   LINE      CODE     ---       #97
      00FF6C4BH   LINE      CODE     ---       #99
      00FF6C55H   LINE      CODE     ---       #101
      00FF6C58H   LINE      CODE     ---       #102
      00FF6C66H   LINE      CODE     ---       #103
      00FF6C66H   LINE      CODE     ---       #104
      00FF6C87H   LINE      CODE     ---       #107
      00FF6C8DH   LINE      CODE     ---       #108
      00FF6C95H   LINE      CODE     ---       #110
      00FF6C95H   LINE      CODE     ---       #111
      00FF6C9FH   LINE      CODE     ---       #114
      00FF6CA5H   LINE      CODE     ---       #115
      00FF6CAFH   LINE      CODE     ---       #116
      ---         BLOCKEND  ---      ---       LVL=0

      00FF76F5H   BLOCK     CODE     ---       LVL=0
      00FF76F5H   LINE      CODE     ---       #132
      00FF76F5H   LINE      CODE     ---       #154
      00FF76F7H   LINE      CODE     ---       #156
      00FF7702H   LINE      CODE     ---       #157
      00FF7705H   LINE      CODE     ---       #159
      00FF770CH   LINE      CODE     ---       #160
      00FF7713H   LINE      CODE     ---       #162
      00FF771CH   LINE      CODE     ---       #163
      00FF7723H   LINE      CODE     ---       #165
      00FF7729H   LINE      CODE     ---       #166
      ---         BLOCKEND  ---      ---       LVL=0

      ---         MODULE    ---      ---       LQ_PID
      00FF6178H   PUBLIC    CODE     ---       PidInit
      00FF59B1H   PUBLIC    CODE     ---       PidIncCtrl
      00000AFEH   PUBLIC    EDATA    BYTE      ?constrain_float?BYTE
      000000D0H   SFRSYM    DATA     BYTE      PSW
      0000009DH   SFRSYM    DATA     BYTE      IRCBAND
      00000097H   SFRSYM    DATA     BYTE      AUXR2
      000000EFH   SFRSYM    DATA     BYTE      AUXINTIF
      000000FDH   SFRSYM    DATA     BYTE      S4CON
      000000ACH   SFRSYM    DATA     BYTE      S3CON
      0000009AH   SFRSYM    DATA     BYTE      S2CON
      000000B7H   SFRSYM    DATA     BYTE      IPH
      000000CDH   SFRSYM    DATA     BYTE      SPSTAT
      000000DDH   SFRSYM    DATA     BYTE      T4T3M
      000000C1H   SFRSYM    DATA     BYTE      WDT_CONTR
      000000DFH   SFRSYM    DATA     BYTE      IP3
      000000F4H   SFRSYM    DATA     BYTE      USBCON
      000000B5H   SFRSYM    DATA     BYTE      IP2
      000000FFH   SFRSYM    DATA     BYTE      RSTCFG
      000000F9H   SFRSYM    DATA     BYTE      LINICR
      0000008EH   SFRSYM    DATA     BYTE      AUXR
L251 LINKER/LOCATER V4.66.93.0                                                        07/17/2023  20:23:02  PAGE 104


      000000AFH   SFRSYM    DATA     BYTE      IE2
      00000088H   SFRSYM    DATA     BYTE      TCON
      00000098H   SFRSYM    DATA     BYTE      SCON
      000000F1H   SFRSYM    DATA     BYTE      CANICR
      00000087H   SFRSYM    DATA     BYTE      PCON
      000000BCH   SFRSYM    DATA     BYTE      ADC_CONTR
      000000E7H   SFRSYM    DATA     BYTE      CMPCR2
      000000E6H   SFRSYM    DATA     BYTE      CMPCR1
      000000B8H   SFRSYM    DATA     BYTE      IP
      0000008FH   SFRSYM    DATA     BYTE      INTCLKO
      000000EEH   SFRSYM    DATA     BYTE      IP3H
      000000B6H   SFRSYM    DATA     BYTE      IP2H
      000000A8H   SFRSYM    DATA     BYTE      IE
      000000BBH   SFRSYM    DATA     BYTE      P_SW3
      000000BAH   SFRSYM    DATA     BYTE      P_SW2
      000000A2H   SFRSYM    DATA     BYTE      P_SW1
      000000CEH   SFRSYM    DATA     BYTE      SPCTL
      000000F8H   SFRSYM    DATA     BYTE      P7
      000000E8H   SFRSYM    DATA     BYTE      P6
      000000C8H   SFRSYM    DATA     BYTE      P5
      000000C0H   SFRSYM    DATA     BYTE      P4
      000000B0H   SFRSYM    DATA     BYTE      P3
      000000A0H   SFRSYM    DATA     BYTE      P2
      00000090H   SFRSYM    DATA     BYTE      P1
      00000080H   SFRSYM    DATA     BYTE      P0
      00000AFEH   SYMBOL    EDATA    FLOAT     amt
      00000B02H   SYMBOL    EDATA    FLOAT     low
      00000B06H   SYMBOL    EDATA    FLOAT     high

      00FF6178H   BLOCK     CODE     ---       LVL=0
      00000E0EH   SYMBOL    EDATA    ---       pid
      00FF6178H   LINE      CODE     ---       #40
      00FF617CH   LINE      CODE     ---       #42
      00FF6189H   LINE      CODE     ---       #43
      00FF6198H   LINE      CODE     ---       #44
      00FF61A9H   LINE      CODE     ---       #45
      00FF61BAH   LINE      CODE     ---       #46
      00FF61CBH   LINE      CODE     ---       #47
      00FF61DCH   LINE      CODE     ---       #48
      00FF61EDH   LINE      CODE     ---       #49
      00FF61FEH   LINE      CODE     ---       #50
      00FF620FH   LINE      CODE     ---       #51
      00FF6220H   LINE      CODE     ---       #52
      00FF6231H   LINE      CODE     ---       #53
      00FF6242H   LINE      CODE     ---       #54
      ---         BLOCKEND  ---      ---       LVL=0
      00000CCDH   SYMBOL    EDATA    ---       pid
      00000CD1H   SYMBOL    EDATA    FLOAT     error

      00FF59B1H   BLOCK     CODE     ---       LVL=0
      00000CD5H   SYMBOL    EDATA    ---       pid
      00000CD9H   SYMBOL    EDATA    FLOAT     error
      00FF59B1H   LINE      CODE     ---       #95
      00FF59B9H   LINE      CODE     ---       #97
      00FF59F0H   LINE      CODE     ---       #98
      00FF5A15H   LINE      CODE     ---       #99
      00FF5A62H   LINE      CODE     ---       #101
      00FF5A89H   LINE      CODE     ---       #102
      00FF5A9CH   LINE      CODE     ---       #104
      00FF5AEAH   LINE      CODE     ---       #106
      00FF5AF9H   LINE      CODE     ---       #107
      ---         BLOCKEND  ---      ---       LVL=0

      ---         MODULE    ---      ---       motor
      00FF79DFH   PUBLIC    CODE     ---       encoder_get
L251 LINKER/LOCATER V4.66.93.0                                                        07/17/2023  20:23:02  PAGE 105


      00FF74DEH   PUBLIC    CODE     ---       Motor_Init
      00FF5FA6H   PUBLIC    CODE     ---       Motor_SpeedSet
      00FF0046H   PUBLIC    CODE     ---       Encoder_init
      000000D0H   SFRSYM    DATA     BYTE      PSW
      0000009DH   SFRSYM    DATA     BYTE      IRCBAND
      00000097H   SFRSYM    DATA     BYTE      AUXR2
      000000EFH   SFRSYM    DATA     BYTE      AUXINTIF
      000000FDH   SFRSYM    DATA     BYTE      S4CON
      000000ACH   SFRSYM    DATA     BYTE      S3CON
      0000009AH   SFRSYM    DATA     BYTE      S2CON
      000000B7H   SFRSYM    DATA     BYTE      IPH
      000000CDH   SFRSYM    DATA     BYTE      SPSTAT
      000000DDH   SFRSYM    DATA     BYTE      T4T3M
      000000C1H   SFRSYM    DATA     BYTE      WDT_CONTR
      000000DFH   SFRSYM    DATA     BYTE      IP3
      000000F4H   SFRSYM    DATA     BYTE      USBCON
      000000B5H   SFRSYM    DATA     BYTE      IP2
      000000FFH   SFRSYM    DATA     BYTE      RSTCFG
      000000F9H   SFRSYM    DATA     BYTE      LINICR
      0000008EH   SFRSYM    DATA     BYTE      AUXR
      000000AFH   SFRSYM    DATA     BYTE      IE2
      00000088H   SFRSYM    DATA     BYTE      TCON
      00000098H   SFRSYM    DATA     BYTE      SCON
      000000F1H   SFRSYM    DATA     BYTE      CANICR
      00000087H   SFRSYM    DATA     BYTE      PCON
      000000BCH   SFRSYM    DATA     BYTE      ADC_CONTR
      000000E7H   SFRSYM    DATA     BYTE      CMPCR2
      000000E6H   SFRSYM    DATA     BYTE      CMPCR1
      000000B8H   SFRSYM    DATA     BYTE      IP
      0000008FH   SFRSYM    DATA     BYTE      INTCLKO
      000000EEH   SFRSYM    DATA     BYTE      IP3H
      000000B6H   SFRSYM    DATA     BYTE      IP2H
      000000A8H   SFRSYM    DATA     BYTE      IE
      000000BBH   SFRSYM    DATA     BYTE      P_SW3
      000000BAH   SFRSYM    DATA     BYTE      P_SW2
      000000A2H   SFRSYM    DATA     BYTE      P_SW1
      000000CEH   SFRSYM    DATA     BYTE      SPCTL
      000000F8H   SFRSYM    DATA     BYTE      P7
      000000E8H   SFRSYM    DATA     BYTE      P6
      000000C8H   SFRSYM    DATA     BYTE      P5
      000000C0H   SFRSYM    DATA     BYTE      P4
      000000B0H   SFRSYM    DATA     BYTE      P3
      000000A0H   SFRSYM    DATA     BYTE      P2
      00000090H   SFRSYM    DATA     BYTE      P1
      00000080H   SFRSYM    DATA     BYTE      P0

      00FF0046H   BLOCK     CODE     ---       LVL=0
      00FF0046H   LINE      CODE     ---       #5
      00FF0046H   LINE      CODE     ---       #6
      00FF004DH   LINE      CODE     ---       #7
      00FF0052H   LINE      CODE     ---       #8
      ---         BLOCKEND  ---      ---       LVL=0

      00FF79DFH   BLOCK     CODE     ---       LVL=0
      00000E12H   SYMBOL    EDATA    INT       pin
      00FF79E3H   BLOCK     CODE     NEAR LAB  LVL=1
      00000E14H   SYMBOL    EDATA    INT       t
      ---         BLOCKEND  ---      ---       LVL=1
      00FF79DFH   LINE      CODE     ---       #10
      00FF79E3H   LINE      CODE     ---       #11
      00FF79E3H   LINE      CODE     ---       #13
      00FF79EAH   LINE      CODE     ---       #14
      00FF79F1H   LINE      CODE     ---       #15
      00FF79F5H   LINE      CODE     ---       #16
      ---         BLOCKEND  ---      ---       LVL=0
L251 LINKER/LOCATER V4.66.93.0                                                        07/17/2023  20:23:02  PAGE 106



      00FF74DEH   BLOCK     CODE     ---       LVL=0
      00FF74DEH   LINE      CODE     ---       #17
      00FF74DEH   LINE      CODE     ---       #19
      00FF74EFH   LINE      CODE     ---       #20
      00FF7500H   LINE      CODE     ---       #21
      00FF7511H   LINE      CODE     ---       #22
      00FF7522H   LINE      CODE     ---       #23
      ---         BLOCKEND  ---      ---       LVL=0

      00FF5FA6H   BLOCK     CODE     ---       LVL=0
      00000E16H   SYMBOL    EDATA    INT       Duty_L
      00000E18H   SYMBOL    EDATA    INT       Duty_R
      00FF5FA6H   LINE      CODE     ---       #25
      00FF5FAEH   LINE      CODE     ---       #34
      00FF5FBAH   LINE      CODE     ---       #36
      00FF5FC2H   LINE      CODE     ---       #37
      00FF5FC2H   LINE      CODE     ---       #38
      00FF5FCEH   LINE      CODE     ---       #40
      00FF5FD6H   LINE      CODE     ---       #41
      00FF5FD6H   LINE      CODE     ---       #42
      00FF5FE2H   LINE      CODE     ---       #44
      00FF5FEAH   LINE      CODE     ---       #45
      00FF5FEAH   LINE      CODE     ---       #46
      00FF5FF6H   LINE      CODE     ---       #48
      00FF5FFEH   LINE      CODE     ---       #49
      00FF5FFEH   LINE      CODE     ---       #51
      00FF6008H   LINE      CODE     ---       #53
      00FF6011H   LINE      CODE     ---       #54
      00FF6020H   LINE      CODE     ---       #55
      00FF6022H   LINE      CODE     ---       #56
      00FF602CH   LINE      CODE     ---       #58
      00FF603FH   LINE      CODE     ---       #59
      00FF6048H   LINE      CODE     ---       #60
      00FF6048H   LINE      CODE     ---       #62
      00FF6052H   LINE      CODE     ---       #64
      00FF6061H   LINE      CODE     ---       #65
      00FF606AH   LINE      CODE     ---       #66
      00FF606CH   LINE      CODE     ---       #67
      00FF6076H   LINE      CODE     ---       #70
      00FF607FH   LINE      CODE     ---       #71
      00FF6092H   LINE      CODE     ---       #72
      ---         BLOCKEND  ---      ---       LVL=0

      ---         MODULE    ---      ---       SEEKFREE_CONFIG
      00FF00A6H   PUBLIC    CODE     ---       imu660ra_config_file

      ---         MODULE    ---      ---       ?C?FPADD
      00FF2EB4H   PUBLIC    CODE     ---       ?C?FPADD
      00FF2EB1H   PUBLIC    CODE     ---       ?C?FPSUB

      ---         MODULE    ---      ---       ?C?FPMUL
      00FF2F6CH   PUBLIC    CODE     ---       ?C?FPMUL

      ---         MODULE    ---      ---       ?C?FPDIV
      00FF300CH   PUBLIC    CODE     ---       ?C?FPDIV

      ---         MODULE    ---      ---       ?C?FPCMP
      00FF308FH   PUBLIC    CODE     ---       ?C?FPCMP
      00FF308DH   PUBLIC    CODE     ---       ?C?FPCMP3

      ---         MODULE    ---      ---       ?C?FPNEG
      00FF30D3H   PUBLIC    CODE     ---       ?C?FPNEG

      ---         MODULE    ---      ---       ?C?FCAST
L251 LINKER/LOCATER V4.66.93.0                                                        07/17/2023  20:23:02  PAGE 107


      00FF30EBH   PUBLIC    CODE     NEAR LAB  ?C?FCASTC
      00FF30E6H   PUBLIC    CODE     NEAR LAB  ?C?FCASTI
      00FF30E1H   PUBLIC    CODE     NEAR LAB  ?C?FCASTL

      ---         MODULE    ---      ---       ?C?CASTF
      00FF311EH   PUBLIC    CODE     NEAR LAB  ?C?CASTF

      ---         MODULE    ---      ---       PRINTF
      00FF315BH   PUBLIC    CODE     NEAR LAB  PRINTF

      ---         MODULE    ---      ---       FABS
      00FF3187H   PUBLIC    CODE     NEAR LAB  FABS?_

      ---         MODULE    ---      ---       ?C?FPGETOPN
      00FF3196H   PUBLIC    CODE     ---       ?C?FPGETOPN2
      00FF31D3H   PUBLIC    CODE     ---       ?C?FPNANRESULT
      00FF31DBH   PUBLIC    CODE     ---       ?C?FPOVERFLOW
      00FF31AFH   PUBLIC    CODE     ---       ?C?FPRESULT
      00FF31C5H   PUBLIC    CODE     ---       ?C?FPRESULT2
      00FF31D8H   PUBLIC    CODE     ---       ?C?FPUNDERFLOW

      ---         MODULE    ---      ---       ?C?PRNFMT
      00FF3214H   PUBLIC    CODE     ---       ?C?PRNFMT

      ---         MODULE    ---      ---       ?C?FPCONVERT
      00FF3631H   PUBLIC    CODE     ---       ?C?FPCONVERT
      00FF36E9H   PUBLIC    CODE     ---       ?C?FPROUND

      ---         MODULE    ---      ---       ?C?FTNPWR
      00FF375CH   PUBLIC    CODE     ---       ?C?FTNPWR

      ---         MODULE    ---      ---       ?C_START
      00FF0000H   PUBLIC    CODE     ---       ?C?STARTUP
      00FF0000H   PUBLIC    CODE     ---       ?C_STARTUP

      ---         MODULE    ---      ---       ?C?INITEDATA
      00FF753AH   PUBLIC    CODE     ---       ?C?INITEDATA

      ---         MODULE    ---      ---       ?C?SIDIV
      00FF3793H   PUBLIC    CODE     ---       ?C?SIDIV

      ---         MODULE    ---      ---       ?C?LMUL
      00FF37C5H   PUBLIC    CODE     ---       ?C?LMUL

      ---         MODULE    ---      ---       ?C?LIMUL
      00FF37D6H   PUBLIC    CODE     ---       ?C?LIMUL

      ---         MODULE    ---      ---       ?C?ULDIV
      00FF37E1H   PUBLIC    CODE     NEAR LAB  ?C?ULDIV
      00FF37DFH   PUBLIC    CODE     NEAR LAB  ?C?ULIDIV

      ---         MODULE    ---      ---       ?C?SLDIV
      00FF3832H   PUBLIC    CODE     NEAR LAB  ?C?SLDIV

      ---         MODULE    ---      ---       memcpy
      00FF787AH   PUBLIC    CODE     ---       memcpy?_

      ---         MODULE    ---      ---       memset

      ---         MODULE    ---      ---       ?C?INITEDATA_END
      00FE01B8H   PUBLIC    HCONST   WORD      ?C?INITEDATA_END

Program Size: data=8.2 edata+hdata=4038 xdata=29 const=707 code=31486
L251 RUN COMPLETE.  0 WARNING(S),  0 ERROR(S)
